gplink-2.0.0
Copyright (c) IDE Tool Project
 
 
Address  Value    Disassembly              Source
-------  -----    -----------              ------
                                           	.radix dec
                                           	.include "KF8A100GQS.inc"
                                           func._Led_Tail_AllClose	.code
                                           _Led_Tail_AllClose	;Function start
007445   9830     MOV	R0, #0x30            	MOV	R0,# 0x30
007446   e100     MOVB	#0x00               	BANKSEL	r0x1004
007447   51ae     MOV	0xae, R0             	MOV	r0x1004, R0
                                           _00095_DS_
007448   981f     MOV	R0, #0x1f            	MOV	R0,# 0x1f
                                           	BANKSEL	r0x1004
007449   38ae     SUB	R0, 0xae             	SUB	R0, r0x1004
00744a   7803     JB	0x3, 0                	JB	PSW, 0
00744b   c468     JMP	#0x468               	JMP	_00098_DS_
00744c   9800     MOV	R0, #0               	MOV	R0,# 0x00
                                           	BANKSEL	STK01
00744d   5192     MOV	0x92, R0             	MOV	STK01, R0
                                           	BANKSEL	r0x1004
00744e   0eae     MOVZ	R0, 0xae            	MOVZ	R0, r0x1004
                                           	BANKSEL	STK00
00744f   5193     MOV	0x93, R0             	MOV	STK00, R0
007450   9801     MOV	R0, #0x1             	MOV	R0,# 0x01
007451   9f76     MOV	R7, #0x76            	TRAPPC1	_SPI_Write_2Byte
007452   5f73     MOV	0x73, R7             	TRAPPC2	_SPI_Write_2Byte
007453   e076     MOVP	#0x76               	PAGESEL	_SPI_Write_2Byte
007454   d610     CALL	#0x610              	CALL	_SPI_Write_2Byte
007455   9f74     MOV	R7, #0x74            	TRAPPC1	$+2
007456   5f73     MOV	0x73, R7             	TRAPPC2	$+1
007457   e074     MOVP	#0x74               	PAGESEL	$
007458   9800     MOV	R0, #0               	MOV	R0,# 0x00
007459   e100     MOVB	#0x00               	BANKSEL	STK01
00745a   5192     MOV	0x92, R0             	MOV	STK01, R0
00745b   9837     MOV	R0, #0x37            	MOV	R0,# 0x37
                                           	BANKSEL	STK00
00745c   5193     MOV	0x93, R0             	MOV	STK00, R0
00745d   9801     MOV	R0, #0x1             	MOV	R0,# 0x01
00745e   9f76     MOV	R7, #0x76            	TRAPPC1	_SPI_Write_2Byte
00745f   5f73     MOV	0x73, R7             	TRAPPC2	_SPI_Write_2Byte
007460   e076     MOVP	#0x76               	PAGESEL	_SPI_Write_2Byte
007461   d610     CALL	#0x610              	CALL	_SPI_Write_2Byte
007462   9f74     MOV	R7, #0x74            	TRAPPC1	$+2
007463   5f73     MOV	0x73, R7             	TRAPPC2	$+1
007464   e074     MOVP	#0x74               	PAGESEL	$
007465   e100     MOVB	#0x00               	BANKSEL	r0x1004
007466   07ae     DEC	0xae                 	DEC	r0x1004
007467   c448     JMP	#0x448               	JMP	_00095_DS_
                                           _00098_DS_
007468   9830     MOV	R0, #0x30            	MOV	R0,# 0x30
                                           	BANKSEL	r0x1004
007469   51ae     MOV	0xae, R0             	MOV	r0x1004, R0
                                           _00099_DS_
00746a   981f     MOV	R0, #0x1f            	MOV	R0,# 0x1f
                                           	BANKSEL	r0x1004
00746b   38ae     SUB	R0, 0xae             	SUB	R0, r0x1004
00746c   7803     JB	0x3, 0                	JB	PSW, 0
00746d   c48a     JMP	#0x48a               	JMP	_00103_DS_
00746e   9800     MOV	R0, #0               	MOV	R0,# 0x00
                                           	BANKSEL	STK01
00746f   5192     MOV	0x92, R0             	MOV	STK01, R0
                                           	BANKSEL	r0x1004
007470   0eae     MOVZ	R0, 0xae            	MOVZ	R0, r0x1004
                                           	BANKSEL	STK00
007471   5193     MOV	0x93, R0             	MOV	STK00, R0
007472   9802     MOV	R0, #0x2             	MOV	R0,# 0x02
007473   9f76     MOV	R7, #0x76            	TRAPPC1	_SPI_Write_2Byte
007474   5f73     MOV	0x73, R7             	TRAPPC2	_SPI_Write_2Byte
007475   e076     MOVP	#0x76               	PAGESEL	_SPI_Write_2Byte
007476   d610     CALL	#0x610              	CALL	_SPI_Write_2Byte
007477   9f74     MOV	R7, #0x74            	TRAPPC1	$+2
007478   5f73     MOV	0x73, R7             	TRAPPC2	$+1
007479   e074     MOVP	#0x74               	PAGESEL	$
00747a   9800     MOV	R0, #0               	MOV	R0,# 0x00
00747b   e100     MOVB	#0x00               	BANKSEL	STK01
00747c   5192     MOV	0x92, R0             	MOV	STK01, R0
00747d   9837     MOV	R0, #0x37            	MOV	R0,# 0x37
                                           	BANKSEL	STK00
00747e   5193     MOV	0x93, R0             	MOV	STK00, R0
00747f   9802     MOV	R0, #0x2             	MOV	R0,# 0x02
007480   9f76     MOV	R7, #0x76            	TRAPPC1	_SPI_Write_2Byte
007481   5f73     MOV	0x73, R7             	TRAPPC2	_SPI_Write_2Byte
007482   e076     MOVP	#0x76               	PAGESEL	_SPI_Write_2Byte
007483   d610     CALL	#0x610              	CALL	_SPI_Write_2Byte
007484   9f74     MOV	R7, #0x74            	TRAPPC1	$+2
007485   5f73     MOV	0x73, R7             	TRAPPC2	$+1
007486   e074     MOVP	#0x74               	PAGESEL	$
007487   e100     MOVB	#0x00               	BANKSEL	r0x1004
007488   07ae     DEC	0xae                 	DEC	r0x1004
007489   c46a     JMP	#0x46a               	JMP	_00099_DS_
                                           _00103_DS_
00748a   0008     CRET                     	CRET	
                                           func._Led_Tail_AllOpen	.code
                                           _Led_Tail_AllOpen	;Function start
00748b   9830     MOV	R0, #0x30            	MOV	R0,# 0x30
00748c   e100     MOVB	#0x00               	BANKSEL	r0x1005
00748d   51ad     MOV	0xad, R0             	MOV	r0x1005, R0
                                           _00077_DS_
00748e   981f     MOV	R0, #0x1f            	MOV	R0,# 0x1f
                                           	BANKSEL	r0x1005
00748f   38ad     SUB	R0, 0xad             	SUB	R0, r0x1005
007490   7803     JB	0x3, 0                	JB	PSW, 0
007491   c4ae     JMP	#0x4ae               	JMP	_00080_DS_
007492   98ff     MOV	R0, #0xff            	MOV	R0,# 0xff
                                           	BANKSEL	STK01
007493   5192     MOV	0x92, R0             	MOV	STK01, R0
                                           	BANKSEL	r0x1005
007494   0ead     MOVZ	R0, 0xad            	MOVZ	R0, r0x1005
                                           	BANKSEL	STK00
007495   5193     MOV	0x93, R0             	MOV	STK00, R0
007496   9801     MOV	R0, #0x1             	MOV	R0,# 0x01
007497   9f76     MOV	R7, #0x76            	TRAPPC1	_SPI_Write_2Byte
007498   5f73     MOV	0x73, R7             	TRAPPC2	_SPI_Write_2Byte
007499   e076     MOVP	#0x76               	PAGESEL	_SPI_Write_2Byte
00749a   d610     CALL	#0x610              	CALL	_SPI_Write_2Byte
00749b   9f74     MOV	R7, #0x74            	TRAPPC1	$+2
00749c   5f73     MOV	0x73, R7             	TRAPPC2	$+1
00749d   e074     MOVP	#0x74               	PAGESEL	$
00749e   9800     MOV	R0, #0               	MOV	R0,# 0x00
00749f   e100     MOVB	#0x00               	BANKSEL	STK01
0074a0   5192     MOV	0x92, R0             	MOV	STK01, R0
0074a1   9837     MOV	R0, #0x37            	MOV	R0,# 0x37
                                           	BANKSEL	STK00
0074a2   5193     MOV	0x93, R0             	MOV	STK00, R0
0074a3   9801     MOV	R0, #0x1             	MOV	R0,# 0x01
0074a4   9f76     MOV	R7, #0x76            	TRAPPC1	_SPI_Write_2Byte
0074a5   5f73     MOV	0x73, R7             	TRAPPC2	_SPI_Write_2Byte
0074a6   e076     MOVP	#0x76               	PAGESEL	_SPI_Write_2Byte
0074a7   d610     CALL	#0x610              	CALL	_SPI_Write_2Byte
0074a8   9f74     MOV	R7, #0x74            	TRAPPC1	$+2
0074a9   5f73     MOV	0x73, R7             	TRAPPC2	$+1
0074aa   e074     MOVP	#0x74               	PAGESEL	$
0074ab   e100     MOVB	#0x00               	BANKSEL	r0x1005
0074ac   07ad     DEC	0xad                 	DEC	r0x1005
0074ad   c48e     JMP	#0x48e               	JMP	_00077_DS_
                                           _00080_DS_
0074ae   9830     MOV	R0, #0x30            	MOV	R0,# 0x30
                                           	BANKSEL	r0x1005
0074af   51ad     MOV	0xad, R0             	MOV	r0x1005, R0
                                           _00081_DS_
0074b0   981f     MOV	R0, #0x1f            	MOV	R0,# 0x1f
                                           	BANKSEL	r0x1005
0074b1   38ad     SUB	R0, 0xad             	SUB	R0, r0x1005
0074b2   7803     JB	0x3, 0                	JB	PSW, 0
0074b3   c4d0     JMP	#0x4d0               	JMP	_00085_DS_
0074b4   98ff     MOV	R0, #0xff            	MOV	R0,# 0xff
                                           	BANKSEL	STK01
0074b5   5192     MOV	0x92, R0             	MOV	STK01, R0
                                           	BANKSEL	r0x1005
0074b6   0ead     MOVZ	R0, 0xad            	MOVZ	R0, r0x1005
                                           	BANKSEL	STK00
0074b7   5193     MOV	0x93, R0             	MOV	STK00, R0
0074b8   9802     MOV	R0, #0x2             	MOV	R0,# 0x02
0074b9   9f76     MOV	R7, #0x76            	TRAPPC1	_SPI_Write_2Byte
0074ba   5f73     MOV	0x73, R7             	TRAPPC2	_SPI_Write_2Byte
0074bb   e076     MOVP	#0x76               	PAGESEL	_SPI_Write_2Byte
0074bc   d610     CALL	#0x610              	CALL	_SPI_Write_2Byte
0074bd   9f74     MOV	R7, #0x74            	TRAPPC1	$+2
0074be   5f73     MOV	0x73, R7             	TRAPPC2	$+1
0074bf   e074     MOVP	#0x74               	PAGESEL	$
0074c0   9800     MOV	R0, #0               	MOV	R0,# 0x00
0074c1   e100     MOVB	#0x00               	BANKSEL	STK01
0074c2   5192     MOV	0x92, R0             	MOV	STK01, R0
0074c3   9837     MOV	R0, #0x37            	MOV	R0,# 0x37
                                           	BANKSEL	STK00
0074c4   5193     MOV	0x93, R0             	MOV	STK00, R0
0074c5   9802     MOV	R0, #0x2             	MOV	R0,# 0x02
0074c6   9f76     MOV	R7, #0x76            	TRAPPC1	_SPI_Write_2Byte
0074c7   5f73     MOV	0x73, R7             	TRAPPC2	_SPI_Write_2Byte
0074c8   e076     MOVP	#0x76               	PAGESEL	_SPI_Write_2Byte
0074c9   d610     CALL	#0x610              	CALL	_SPI_Write_2Byte
0074ca   9f74     MOV	R7, #0x74            	TRAPPC1	$+2
0074cb   5f73     MOV	0x73, R7             	TRAPPC2	$+1
0074cc   e074     MOVP	#0x74               	PAGESEL	$
0074cd   e100     MOVB	#0x00               	BANKSEL	r0x1005
0074ce   07ad     DEC	0xad                 	DEC	r0x1005
0074cf   c4b0     JMP	#0x4b0               	JMP	_00081_DS_
                                           _00085_DS_
0074d0   0008     CRET                     	CRET	
                                           func._Led_RT_AllClose	.code
                                           _Led_RT_AllClose	;Function start
0074d1   9830     MOV	R0, #0x30            	MOV	R0,# 0x30
0074d2   e100     MOVB	#0x00               	BANKSEL	r0x1006
0074d3   51ac     MOV	0xac, R0             	MOV	r0x1006, R0
                                           _00059_DS_
0074d4   981f     MOV	R0, #0x1f            	MOV	R0,# 0x1f
                                           	BANKSEL	r0x1006
0074d5   38ac     SUB	R0, 0xac             	SUB	R0, r0x1006
0074d6   7803     JB	0x3, 0                	JB	PSW, 0
0074d7   c4f4     JMP	#0x4f4               	JMP	_00062_DS_
0074d8   9800     MOV	R0, #0               	MOV	R0,# 0x00
                                           	BANKSEL	STK01
0074d9   5192     MOV	0x92, R0             	MOV	STK01, R0
                                           	BANKSEL	r0x1006
0074da   0eac     MOVZ	R0, 0xac            	MOVZ	R0, r0x1006
                                           	BANKSEL	STK00
0074db   5193     MOV	0x93, R0             	MOV	STK00, R0
0074dc   9803     MOV	R0, #0x3             	MOV	R0,# 0x03
0074dd   9f76     MOV	R7, #0x76            	TRAPPC1	_SPI_Write_2Byte
0074de   5f73     MOV	0x73, R7             	TRAPPC2	_SPI_Write_2Byte
0074df   e076     MOVP	#0x76               	PAGESEL	_SPI_Write_2Byte
0074e0   d610     CALL	#0x610              	CALL	_SPI_Write_2Byte
0074e1   9f74     MOV	R7, #0x74            	TRAPPC1	$+2
0074e2   5f73     MOV	0x73, R7             	TRAPPC2	$+1
0074e3   e074     MOVP	#0x74               	PAGESEL	$
0074e4   9800     MOV	R0, #0               	MOV	R0,# 0x00
0074e5   e100     MOVB	#0x00               	BANKSEL	STK01
0074e6   5192     MOV	0x92, R0             	MOV	STK01, R0
0074e7   9837     MOV	R0, #0x37            	MOV	R0,# 0x37
                                           	BANKSEL	STK00
0074e8   5193     MOV	0x93, R0             	MOV	STK00, R0
0074e9   9803     MOV	R0, #0x3             	MOV	R0,# 0x03
0074ea   9f76     MOV	R7, #0x76            	TRAPPC1	_SPI_Write_2Byte
0074eb   5f73     MOV	0x73, R7             	TRAPPC2	_SPI_Write_2Byte
0074ec   e076     MOVP	#0x76               	PAGESEL	_SPI_Write_2Byte
0074ed   d610     CALL	#0x610              	CALL	_SPI_Write_2Byte
0074ee   9f74     MOV	R7, #0x74            	TRAPPC1	$+2
0074ef   5f73     MOV	0x73, R7             	TRAPPC2	$+1
0074f0   e074     MOVP	#0x74               	PAGESEL	$
0074f1   e100     MOVB	#0x00               	BANKSEL	r0x1006
0074f2   07ac     DEC	0xac                 	DEC	r0x1006
0074f3   c4d4     JMP	#0x4d4               	JMP	_00059_DS_
                                           _00062_DS_
0074f4   9830     MOV	R0, #0x30            	MOV	R0,# 0x30
                                           	BANKSEL	r0x1006
0074f5   51ac     MOV	0xac, R0             	MOV	r0x1006, R0
                                           _00063_DS_
0074f6   981f     MOV	R0, #0x1f            	MOV	R0,# 0x1f
                                           	BANKSEL	r0x1006
0074f7   38ac     SUB	R0, 0xac             	SUB	R0, r0x1006
0074f8   7803     JB	0x3, 0                	JB	PSW, 0
0074f9   c516     JMP	#0x516               	JMP	_00067_DS_
0074fa   9800     MOV	R0, #0               	MOV	R0,# 0x00
                                           	BANKSEL	STK01
0074fb   5192     MOV	0x92, R0             	MOV	STK01, R0
                                           	BANKSEL	r0x1006
0074fc   0eac     MOVZ	R0, 0xac            	MOVZ	R0, r0x1006
                                           	BANKSEL	STK00
0074fd   5193     MOV	0x93, R0             	MOV	STK00, R0
0074fe   9804     MOV	R0, #0x4             	MOV	R0,# 0x04
0074ff   9f76     MOV	R7, #0x76            	TRAPPC1	_SPI_Write_2Byte
007500   5f73     MOV	0x73, R7             	TRAPPC2	_SPI_Write_2Byte
007501   e076     MOVP	#0x76               	PAGESEL	_SPI_Write_2Byte
007502   d610     CALL	#0x610              	CALL	_SPI_Write_2Byte
007503   9f75     MOV	R7, #0x75            	TRAPPC1	$+2
007504   5f73     MOV	0x73, R7             	TRAPPC2	$+1
007505   e075     MOVP	#0x75               	PAGESEL	$
007506   9800     MOV	R0, #0               	MOV	R0,# 0x00
007507   e100     MOVB	#0x00               	BANKSEL	STK01
007508   5192     MOV	0x92, R0             	MOV	STK01, R0
007509   9837     MOV	R0, #0x37            	MOV	R0,# 0x37
                                           	BANKSEL	STK00
00750a   5193     MOV	0x93, R0             	MOV	STK00, R0
00750b   9804     MOV	R0, #0x4             	MOV	R0,# 0x04
00750c   9f76     MOV	R7, #0x76            	TRAPPC1	_SPI_Write_2Byte
00750d   5f73     MOV	0x73, R7             	TRAPPC2	_SPI_Write_2Byte
00750e   e076     MOVP	#0x76               	PAGESEL	_SPI_Write_2Byte
00750f   d610     CALL	#0x610              	CALL	_SPI_Write_2Byte
007510   9f75     MOV	R7, #0x75            	TRAPPC1	$+2
007511   5f73     MOV	0x73, R7             	TRAPPC2	$+1
007512   e075     MOVP	#0x75               	PAGESEL	$
007513   e100     MOVB	#0x00               	BANKSEL	r0x1006
007514   07ac     DEC	0xac                 	DEC	r0x1006
007515   c4f6     JMP	#0x4f6               	JMP	_00063_DS_
                                           _00067_DS_
007516   0008     CRET                     	CRET	
                                           func._Led_RT_WaterOpen	.code
                                           _Led_RT_WaterOpen	;Function start
0070ac   981f     MOV	R0, #0x1f            	MOV	R0,# 0x1f
0070ad   e100     MOVB	#0x00               	BANKSEL	r0x1007
0070ae   51ab     MOV	0xab, R0             	MOV	r0x1007, R0
                                           _00025_DS_
0070af   9831     MOV	R0, #0x31            	MOV	R0,# 0x31
                                           	BANKSEL	r0x1007
0070b0   38ab     SUB	R0, 0xab             	SUB	R0, r0x1007
0070b1   7003     JNB	0x3, 0               	JNB	PSW, 0
0070b2   c0cf     JMP	#0xcf                	JMP	_00028_DS_
0070b3   9800     MOV	R0, #0               	MOV	R0,# 0x00
                                           	BANKSEL	STK01
0070b4   5192     MOV	0x92, R0             	MOV	STK01, R0
                                           	BANKSEL	r0x1007
0070b5   0eab     MOVZ	R0, 0xab            	MOVZ	R0, r0x1007
                                           	BANKSEL	STK00
0070b6   5193     MOV	0x93, R0             	MOV	STK00, R0
0070b7   9803     MOV	R0, #0x3             	MOV	R0,# 0x03
0070b8   9f76     MOV	R7, #0x76            	TRAPPC1	_SPI_Write_2Byte
0070b9   5f73     MOV	0x73, R7             	TRAPPC2	_SPI_Write_2Byte
0070ba   e076     MOVP	#0x76               	PAGESEL	_SPI_Write_2Byte
0070bb   d610     CALL	#0x610              	CALL	_SPI_Write_2Byte
0070bc   9f70     MOV	R7, #0x70            	TRAPPC1	$+2
0070bd   5f73     MOV	0x73, R7             	TRAPPC2	$+1
0070be   e070     MOVP	#0x70               	PAGESEL	$
0070bf   9800     MOV	R0, #0               	MOV	R0,# 0x00
0070c0   e100     MOVB	#0x00               	BANKSEL	STK01
0070c1   5192     MOV	0x92, R0             	MOV	STK01, R0
0070c2   9837     MOV	R0, #0x37            	MOV	R0,# 0x37
                                           	BANKSEL	STK00
0070c3   5193     MOV	0x93, R0             	MOV	STK00, R0
0070c4   9803     MOV	R0, #0x3             	MOV	R0,# 0x03
0070c5   9f76     MOV	R7, #0x76            	TRAPPC1	_SPI_Write_2Byte
0070c6   5f73     MOV	0x73, R7             	TRAPPC2	_SPI_Write_2Byte
0070c7   e076     MOVP	#0x76               	PAGESEL	_SPI_Write_2Byte
0070c8   d610     CALL	#0x610              	CALL	_SPI_Write_2Byte
0070c9   9f70     MOV	R7, #0x70            	TRAPPC1	$+2
0070ca   5f73     MOV	0x73, R7             	TRAPPC2	$+1
0070cb   e070     MOVP	#0x70               	PAGESEL	$
0070cc   e100     MOVB	#0x00               	BANKSEL	r0x1007
0070cd   0bab     INC	0xab                 	INC	r0x1007
0070ce   c0af     JMP	#0xaf                	JMP	_00025_DS_
                                           _00028_DS_
0070cf   981f     MOV	R0, #0x1f            	MOV	R0,# 0x1f
                                           	BANKSEL	r0x1007
0070d0   51ab     MOV	0xab, R0             	MOV	r0x1007, R0
                                           _00029_DS_
0070d1   9831     MOV	R0, #0x31            	MOV	R0,# 0x31
                                           	BANKSEL	r0x1007
0070d2   38ab     SUB	R0, 0xab             	SUB	R0, r0x1007
0070d3   7003     JNB	0x3, 0               	JNB	PSW, 0
0070d4   c0f1     JMP	#0xf1                	JMP	_00032_DS_
0070d5   9800     MOV	R0, #0               	MOV	R0,# 0x00
                                           	BANKSEL	STK01
0070d6   5192     MOV	0x92, R0             	MOV	STK01, R0
                                           	BANKSEL	r0x1007
0070d7   0eab     MOVZ	R0, 0xab            	MOVZ	R0, r0x1007
                                           	BANKSEL	STK00
0070d8   5193     MOV	0x93, R0             	MOV	STK00, R0
0070d9   9804     MOV	R0, #0x4             	MOV	R0,# 0x04
0070da   9f76     MOV	R7, #0x76            	TRAPPC1	_SPI_Write_2Byte
0070db   5f73     MOV	0x73, R7             	TRAPPC2	_SPI_Write_2Byte
0070dc   e076     MOVP	#0x76               	PAGESEL	_SPI_Write_2Byte
0070dd   d610     CALL	#0x610              	CALL	_SPI_Write_2Byte
0070de   9f70     MOV	R7, #0x70            	TRAPPC1	$+2
0070df   5f73     MOV	0x73, R7             	TRAPPC2	$+1
0070e0   e070     MOVP	#0x70               	PAGESEL	$
0070e1   9800     MOV	R0, #0               	MOV	R0,# 0x00
0070e2   e100     MOVB	#0x00               	BANKSEL	STK01
0070e3   5192     MOV	0x92, R0             	MOV	STK01, R0
0070e4   9837     MOV	R0, #0x37            	MOV	R0,# 0x37
                                           	BANKSEL	STK00
0070e5   5193     MOV	0x93, R0             	MOV	STK00, R0
0070e6   9804     MOV	R0, #0x4             	MOV	R0,# 0x04
0070e7   9f76     MOV	R7, #0x76            	TRAPPC1	_SPI_Write_2Byte
0070e8   5f73     MOV	0x73, R7             	TRAPPC2	_SPI_Write_2Byte
0070e9   e076     MOVP	#0x76               	PAGESEL	_SPI_Write_2Byte
0070ea   d610     CALL	#0x610              	CALL	_SPI_Write_2Byte
0070eb   9f70     MOV	R7, #0x70            	TRAPPC1	$+2
0070ec   5f73     MOV	0x73, R7             	TRAPPC2	$+1
0070ed   e070     MOVP	#0x70               	PAGESEL	$
0070ee   e100     MOVB	#0x00               	BANKSEL	r0x1007
0070ef   0bab     INC	0xab                 	INC	r0x1007
0070f0   c0d1     JMP	#0xd1                	JMP	_00029_DS_
                                           _00032_DS_
0070f1   9802     MOV	R0, #0x2             	MOV	R0,# 0x02
                                           	BANKSEL	STK00
0070f2   5193     MOV	0x93, R0             	MOV	STK00, R0
0070f3   9800     MOV	R0, #0               	MOV	R0,# 0x00
0070f4   9f76     MOV	R7, #0x76            	TRAPPC1	_delay_ms
0070f5   5f73     MOV	0x73, R7             	TRAPPC2	_delay_ms
0070f6   e076     MOVP	#0x76               	PAGESEL	_delay_ms
0070f7   d6b6     CALL	#0x6b6              	CALL	_delay_ms
0070f8   9f70     MOV	R7, #0x70            	TRAPPC1	$+2
0070f9   5f73     MOV	0x73, R7             	TRAPPC2	$+1
0070fa   e070     MOVP	#0x70               	PAGESEL	$
0070fb   981f     MOV	R0, #0x1f            	MOV	R0,# 0x1f
0070fc   e100     MOVB	#0x00               	BANKSEL	r0x1007
0070fd   51ab     MOV	0xab, R0             	MOV	r0x1007, R0
                                           _00033_DS_
0070fe   9831     MOV	R0, #0x31            	MOV	R0,# 0x31
                                           	BANKSEL	r0x1007
0070ff   38ab     SUB	R0, 0xab             	SUB	R0, r0x1007
007100   7003     JNB	0x3, 0               	JNB	PSW, 0
007101   c129     JMP	#0x129               	JMP	_00036_DS_
007102   98ff     MOV	R0, #0xff            	MOV	R0,# 0xff
                                           	BANKSEL	STK01
007103   5192     MOV	0x92, R0             	MOV	STK01, R0
                                           	BANKSEL	r0x1007
007104   0eab     MOVZ	R0, 0xab            	MOVZ	R0, r0x1007
                                           	BANKSEL	STK00
007105   5193     MOV	0x93, R0             	MOV	STK00, R0
007106   9803     MOV	R0, #0x3             	MOV	R0,# 0x03
007107   9f76     MOV	R7, #0x76            	TRAPPC1	_SPI_Write_2Byte
007108   5f73     MOV	0x73, R7             	TRAPPC2	_SPI_Write_2Byte
007109   e076     MOVP	#0x76               	PAGESEL	_SPI_Write_2Byte
00710a   d610     CALL	#0x610              	CALL	_SPI_Write_2Byte
00710b   9f71     MOV	R7, #0x71            	TRAPPC1	$+2
00710c   5f73     MOV	0x73, R7             	TRAPPC2	$+1
00710d   e071     MOVP	#0x71               	PAGESEL	$
00710e   9800     MOV	R0, #0               	MOV	R0,# 0x00
00710f   e100     MOVB	#0x00               	BANKSEL	STK01
007110   5192     MOV	0x92, R0             	MOV	STK01, R0
007111   9837     MOV	R0, #0x37            	MOV	R0,# 0x37
                                           	BANKSEL	STK00
007112   5193     MOV	0x93, R0             	MOV	STK00, R0
007113   9803     MOV	R0, #0x3             	MOV	R0,# 0x03
007114   9f76     MOV	R7, #0x76            	TRAPPC1	_SPI_Write_2Byte
007115   5f73     MOV	0x73, R7             	TRAPPC2	_SPI_Write_2Byte
007116   e076     MOVP	#0x76               	PAGESEL	_SPI_Write_2Byte
007117   d610     CALL	#0x610              	CALL	_SPI_Write_2Byte
007118   9f71     MOV	R7, #0x71            	TRAPPC1	$+2
007119   5f73     MOV	0x73, R7             	TRAPPC2	$+1
00711a   e071     MOVP	#0x71               	PAGESEL	$
00711b   9805     MOV	R0, #0x5             	MOV	R0,# 0x05
00711c   e100     MOVB	#0x00               	BANKSEL	STK00
00711d   5193     MOV	0x93, R0             	MOV	STK00, R0
00711e   9800     MOV	R0, #0               	MOV	R0,# 0x00
00711f   9f76     MOV	R7, #0x76            	TRAPPC1	_delay_ms
007120   5f73     MOV	0x73, R7             	TRAPPC2	_delay_ms
007121   e076     MOVP	#0x76               	PAGESEL	_delay_ms
007122   d6b6     CALL	#0x6b6              	CALL	_delay_ms
007123   9f71     MOV	R7, #0x71            	TRAPPC1	$+2
007124   5f73     MOV	0x73, R7             	TRAPPC2	$+1
007125   e071     MOVP	#0x71               	PAGESEL	$
007126   e100     MOVB	#0x00               	BANKSEL	r0x1007
007127   0bab     INC	0xab                 	INC	r0x1007
007128   c0fe     JMP	#0xfe                	JMP	_00033_DS_
                                           _00036_DS_
007129   981f     MOV	R0, #0x1f            	MOV	R0,# 0x1f
                                           	BANKSEL	r0x1007
00712a   51ab     MOV	0xab, R0             	MOV	r0x1007, R0
                                           _00037_DS_
00712b   9831     MOV	R0, #0x31            	MOV	R0,# 0x31
                                           	BANKSEL	r0x1007
00712c   38ab     SUB	R0, 0xab             	SUB	R0, r0x1007
00712d   7003     JNB	0x3, 0               	JNB	PSW, 0
00712e   c156     JMP	#0x156               	JMP	_00041_DS_
00712f   98ff     MOV	R0, #0xff            	MOV	R0,# 0xff
                                           	BANKSEL	STK01
007130   5192     MOV	0x92, R0             	MOV	STK01, R0
                                           	BANKSEL	r0x1007
007131   0eab     MOVZ	R0, 0xab            	MOVZ	R0, r0x1007
                                           	BANKSEL	STK00
007132   5193     MOV	0x93, R0             	MOV	STK00, R0
007133   9804     MOV	R0, #0x4             	MOV	R0,# 0x04
007134   9f76     MOV	R7, #0x76            	TRAPPC1	_SPI_Write_2Byte
007135   5f73     MOV	0x73, R7             	TRAPPC2	_SPI_Write_2Byte
007136   e076     MOVP	#0x76               	PAGESEL	_SPI_Write_2Byte
007137   d610     CALL	#0x610              	CALL	_SPI_Write_2Byte
007138   9f71     MOV	R7, #0x71            	TRAPPC1	$+2
007139   5f73     MOV	0x73, R7             	TRAPPC2	$+1
00713a   e071     MOVP	#0x71               	PAGESEL	$
00713b   9800     MOV	R0, #0               	MOV	R0,# 0x00
00713c   e100     MOVB	#0x00               	BANKSEL	STK01
00713d   5192     MOV	0x92, R0             	MOV	STK01, R0
00713e   9837     MOV	R0, #0x37            	MOV	R0,# 0x37
                                           	BANKSEL	STK00
00713f   5193     MOV	0x93, R0             	MOV	STK00, R0
007140   9804     MOV	R0, #0x4             	MOV	R0,# 0x04
007141   9f76     MOV	R7, #0x76            	TRAPPC1	_SPI_Write_2Byte
007142   5f73     MOV	0x73, R7             	TRAPPC2	_SPI_Write_2Byte
007143   e076     MOVP	#0x76               	PAGESEL	_SPI_Write_2Byte
007144   d610     CALL	#0x610              	CALL	_SPI_Write_2Byte
007145   9f71     MOV	R7, #0x71            	TRAPPC1	$+2
007146   5f73     MOV	0x73, R7             	TRAPPC2	$+1
007147   e071     MOVP	#0x71               	PAGESEL	$
007148   9805     MOV	R0, #0x5             	MOV	R0,# 0x05
007149   e100     MOVB	#0x00               	BANKSEL	STK00
00714a   5193     MOV	0x93, R0             	MOV	STK00, R0
00714b   9800     MOV	R0, #0               	MOV	R0,# 0x00
00714c   9f76     MOV	R7, #0x76            	TRAPPC1	_delay_ms
00714d   5f73     MOV	0x73, R7             	TRAPPC2	_delay_ms
00714e   e076     MOVP	#0x76               	PAGESEL	_delay_ms
00714f   d6b6     CALL	#0x6b6              	CALL	_delay_ms
007150   9f71     MOV	R7, #0x71            	TRAPPC1	$+2
007151   5f73     MOV	0x73, R7             	TRAPPC2	$+1
007152   e071     MOVP	#0x71               	PAGESEL	$
007153   e100     MOVB	#0x00               	BANKSEL	r0x1007
007154   0bab     INC	0xab                 	INC	r0x1007
007155   c12b     JMP	#0x12b               	JMP	_00037_DS_
                                           _00041_DS_
007156   0008     CRET                     	CRET	
                                           func._Led_RT_AllOpen	.code
                                           _Led_RT_AllOpen	;Function start
007517   9830     MOV	R0, #0x30            	MOV	R0,# 0x30
007518   e100     MOVB	#0x00               	BANKSEL	r0x1008
007519   51aa     MOV	0xaa, R0             	MOV	r0x1008, R0
                                           _00007_DS_
00751a   981f     MOV	R0, #0x1f            	MOV	R0,# 0x1f
                                           	BANKSEL	r0x1008
00751b   38aa     SUB	R0, 0xaa             	SUB	R0, r0x1008
00751c   7803     JB	0x3, 0                	JB	PSW, 0
00751d   c53a     JMP	#0x53a               	JMP	_00010_DS_
00751e   98ff     MOV	R0, #0xff            	MOV	R0,# 0xff
                                           	BANKSEL	STK01
00751f   5192     MOV	0x92, R0             	MOV	STK01, R0
                                           	BANKSEL	r0x1008
007520   0eaa     MOVZ	R0, 0xaa            	MOVZ	R0, r0x1008
                                           	BANKSEL	STK00
007521   5193     MOV	0x93, R0             	MOV	STK00, R0
007522   9803     MOV	R0, #0x3             	MOV	R0,# 0x03
007523   9f76     MOV	R7, #0x76            	TRAPPC1	_SPI_Write_2Byte
007524   5f73     MOV	0x73, R7             	TRAPPC2	_SPI_Write_2Byte
007525   e076     MOVP	#0x76               	PAGESEL	_SPI_Write_2Byte
007526   d610     CALL	#0x610              	CALL	_SPI_Write_2Byte
007527   9f75     MOV	R7, #0x75            	TRAPPC1	$+2
007528   5f73     MOV	0x73, R7             	TRAPPC2	$+1
007529   e075     MOVP	#0x75               	PAGESEL	$
00752a   9800     MOV	R0, #0               	MOV	R0,# 0x00
00752b   e100     MOVB	#0x00               	BANKSEL	STK01
00752c   5192     MOV	0x92, R0             	MOV	STK01, R0
00752d   9837     MOV	R0, #0x37            	MOV	R0,# 0x37
                                           	BANKSEL	STK00
00752e   5193     MOV	0x93, R0             	MOV	STK00, R0
00752f   9803     MOV	R0, #0x3             	MOV	R0,# 0x03
007530   9f76     MOV	R7, #0x76            	TRAPPC1	_SPI_Write_2Byte
007531   5f73     MOV	0x73, R7             	TRAPPC2	_SPI_Write_2Byte
007532   e076     MOVP	#0x76               	PAGESEL	_SPI_Write_2Byte
007533   d610     CALL	#0x610              	CALL	_SPI_Write_2Byte
007534   9f75     MOV	R7, #0x75            	TRAPPC1	$+2
007535   5f73     MOV	0x73, R7             	TRAPPC2	$+1
007536   e075     MOVP	#0x75               	PAGESEL	$
007537   e100     MOVB	#0x00               	BANKSEL	r0x1008
007538   07aa     DEC	0xaa                 	DEC	r0x1008
007539   c51a     JMP	#0x51a               	JMP	_00007_DS_
                                           _00010_DS_
00753a   9830     MOV	R0, #0x30            	MOV	R0,# 0x30
                                           	BANKSEL	r0x1008
00753b   51aa     MOV	0xaa, R0             	MOV	r0x1008, R0
                                           _00011_DS_
00753c   981f     MOV	R0, #0x1f            	MOV	R0,# 0x1f
                                           	BANKSEL	r0x1008
00753d   38aa     SUB	R0, 0xaa             	SUB	R0, r0x1008
00753e   7803     JB	0x3, 0                	JB	PSW, 0
00753f   c55c     JMP	#0x55c               	JMP	_00015_DS_
007540   98ff     MOV	R0, #0xff            	MOV	R0,# 0xff
                                           	BANKSEL	STK01
007541   5192     MOV	0x92, R0             	MOV	STK01, R0
                                           	BANKSEL	r0x1008
007542   0eaa     MOVZ	R0, 0xaa            	MOVZ	R0, r0x1008
                                           	BANKSEL	STK00
007543   5193     MOV	0x93, R0             	MOV	STK00, R0
007544   9804     MOV	R0, #0x4             	MOV	R0,# 0x04
007545   9f76     MOV	R7, #0x76            	TRAPPC1	_SPI_Write_2Byte
007546   5f73     MOV	0x73, R7             	TRAPPC2	_SPI_Write_2Byte
007547   e076     MOVP	#0x76               	PAGESEL	_SPI_Write_2Byte
007548   d610     CALL	#0x610              	CALL	_SPI_Write_2Byte
007549   9f75     MOV	R7, #0x75            	TRAPPC1	$+2
00754a   5f73     MOV	0x73, R7             	TRAPPC2	$+1
00754b   e075     MOVP	#0x75               	PAGESEL	$
00754c   9800     MOV	R0, #0               	MOV	R0,# 0x00
00754d   e100     MOVB	#0x00               	BANKSEL	STK01
00754e   5192     MOV	0x92, R0             	MOV	STK01, R0
00754f   9837     MOV	R0, #0x37            	MOV	R0,# 0x37
                                           	BANKSEL	STK00
007550   5193     MOV	0x93, R0             	MOV	STK00, R0
007551   9804     MOV	R0, #0x4             	MOV	R0,# 0x04
007552   9f76     MOV	R7, #0x76            	TRAPPC1	_SPI_Write_2Byte
007553   5f73     MOV	0x73, R7             	TRAPPC2	_SPI_Write_2Byte
007554   e076     MOVP	#0x76               	PAGESEL	_SPI_Write_2Byte
007555   d610     CALL	#0x610              	CALL	_SPI_Write_2Byte
007556   9f75     MOV	R7, #0x75            	TRAPPC1	$+2
007557   5f73     MOV	0x73, R7             	TRAPPC2	$+1
007558   e075     MOVP	#0x75               	PAGESEL	$
007559   e100     MOVB	#0x00               	BANKSEL	r0x1008
00755a   07aa     DEC	0xaa                 	DEC	r0x1008
00755b   c53c     JMP	#0x53c               	JMP	_00011_DS_
                                           _00015_DS_
00755c   0008     CRET                     	CRET	
                                           func._LED_Stop_AllClose	.code
                                           _LED_Stop_AllClose	;Function start
00777d   98ff     MOV	R0, #0xff            	MOV	R0,# 0xff
00777e   e100     MOVB	#0x00               	BANKSEL	_Stop_High_Addr
00777f   51a6     MOV	0xa6, R0             	MOV	_Stop_High_Addr, R0
                                           	BANKSEL	_Stop_High_Addr
007780   51a7     MOV	0xa7, R0             	MOV	(_Stop_High_Addr + 1), R0
                                           	BANKSEL	_Stop_Low_Addr
007781   03a8     CLR	0xa8                 	CLR	_Stop_Low_Addr
                                           	BANKSEL	_Stop_Low_Addr
007782   03a9     CLR	0xa9                 	CLR	(_Stop_Low_Addr + 1)
007783   0008     CRET                     	CRET	
                                           func._LED_Stop_PWMOpen	.code
                                           _LED_Stop_PWMOpen	;Function start
007765   98ff     MOV	R0, #0xff            	MOV	R0,# 0xff
007766   e100     MOVB	#0x00               	BANKSEL	_Stop_High_Addr
007767   51a6     MOV	0xa6, R0             	MOV	_Stop_High_Addr, R0
                                           	BANKSEL	_Stop_High_Addr
007768   51a7     MOV	0xa7, R0             	MOV	(_Stop_High_Addr + 1), R0
007769   98ff     MOV	R0, #0xff            	MOV	R0,# 0xff
                                           	BANKSEL	_Stop_Low_Addr
00776a   51a8     MOV	0xa8, R0             	MOV	_Stop_Low_Addr, R0
                                           	BANKSEL	_Stop_Low_Addr
00776b   51a9     MOV	0xa9, R0             	MOV	(_Stop_Low_Addr + 1), R0
00776c   0008     CRET                     	CRET	
                                           func._LED_Stop_AllOpen	.code
                                           _LED_Stop_AllOpen	;Function start
007784   e100     MOVB	#0x00               	BANKSEL	_Stop_High_Addr
007785   03a6     CLR	0xa6                 	CLR	_Stop_High_Addr
                                           	BANKSEL	_Stop_High_Addr
007786   03a7     CLR	0xa7                 	CLR	(_Stop_High_Addr + 1)
007787   98ff     MOV	R0, #0xff            	MOV	R0,# 0xff
                                           	BANKSEL	_Stop_Low_Addr
007788   51a8     MOV	0xa8, R0             	MOV	_Stop_Low_Addr, R0
                                           	BANKSEL	_Stop_Low_Addr
007789   51a9     MOV	0xa9, R0             	MOV	(_Stop_Low_Addr + 1), R0
00778a   0008     CRET                     	CRET	
                                           	.end
                                           	.radix dec
                                           	.include "KF8A100GQS.inc"
                                           func._PWM_Init	.code
                                           _PWM_Init	;Function start
                                           	TRAPPC1	_PWM67_Init
                                           	TRAPPC2	_PWM67_Init
                                           	PAGESEL	_PWM67_Init
                                           	CALL	_PWM67_Init
                                           	TRAPPC1	$+2
                                           	TRAPPC2	$+1
                                           	PAGESEL	$
                                           	CRET	
                                           func._PWM67_Init	.code
                                           _PWM67_Init	;Function start
                                           	MOV	R0,# 0x64
                                           	BANKSEL	_APFCTL2
                                           	MOV	_APFCTL2, R0
                                           	BANKSEL	_TR2_bits
                                           	SET	_TR2_bits, 0
                                           	BANKSEL	_TR2_bits
                                           	SET	_TR2_bits, 1
                                           	BANKSEL	_TR2_bits
                                           	SET	_TR2_bits, 3
                                           	BANKSEL	_TR6_bits
                                           	SET	_TR6_bits, 1
                                           	BANKSEL	_TR6_bits
                                           	SET	_TR6_bits, 5
                                           	BANKSEL	_TR9_bits
                                           	SET	_TR9_bits, 4
                                           	MOV	R0,# 0x01
                                           	BANKSEL	_PWM6L0
                                           	MOV	_PWM6L0, R0
                                           	MOV	R0,# 0x0a
                                           	BANKSEL	_PWM6H0
                                           	MOV	_PWM6H0, R0
                                           	MOV	R0,# 0x01
                                           	BANKSEL	_PWM6L1
                                           	MOV	_PWM6L1, R0
                                           	MOV	R0,# 0x0a
                                           	BANKSEL	_PWM6H1
                                           	MOV	_PWM6H1, R0
                                           	MOV	R0,# 0x01
                                           	BANKSEL	_PWM6L0
                                           	MOV	_PWM6L0, R0
                                           	MOV	R0,# 0x0a
                                           	BANKSEL	_PWM6H2
                                           	MOV	_PWM6H2, R0
                                           	MOV	R0,# 0x01
                                           	BANKSEL	_PWM6L3
                                           	MOV	_PWM6L3, R0
                                           	MOV	R0,# 0x0a
                                           	BANKSEL	_PWM6H3
                                           	MOV	_PWM6H3, R0
                                           	MOV	R0,# 0x01
                                           	BANKSEL	_PWM7L0
                                           	MOV	_PWM7L0, R0
                                           	MOV	R0,# 0x0a
                                           	BANKSEL	_PWM7H0
                                           	MOV	_PWM7H0, R0
                                           	MOV	R0,# 0x01
                                           	BANKSEL	_PWM7L1
                                           	MOV	_PWM7L1, R0
                                           	MOV	R0,# 0x0a
                                           	BANKSEL	_PWM7H1
                                           	MOV	_PWM7H1, R0
                                           	MOV	R0,# 0x01
                                           	BANKSEL	_PWM7L2
                                           	MOV	_PWM7L2, R0
                                           	MOV	R0,# 0x0a
                                           	BANKSEL	_PWM7H2
                                           	MOV	_PWM7H2, R0
                                           	MOV	R0,# 0x01
                                           	BANKSEL	_PWM7L3
                                           	MOV	_PWM7L3, R0
                                           	MOV	R0,# 0x0a
                                           	BANKSEL	_PWM7H3
                                           	MOV	_PWM7H3, R0
                                           	MOV	R0,# 0x63
                                           	BANKSEL	_PP60H
                                           	MOV	_PP60H, R0
                                           	MOV	R0,# 0x01
                                           	BANKSEL	_PP60L
                                           	MOV	_PP60L, R0
                                           	MOV	R0,# 0x63
                                           	BANKSEL	_PP70H
                                           	MOV	_PP70H, R0
                                           	MOV	R0,# 0x01
                                           	BANKSEL	_PP70L
                                           	MOV	_PP70L, R0
                                           	MOV	R0,# 0x63
                                           	BANKSEL	_PP61H
                                           	MOV	_PP61H, R0
                                           	MOV	R0,# 0x01
                                           	BANKSEL	_PP61L
                                           	MOV	_PP61L, R0
                                           	MOV	R0,# 0x63
                                           	BANKSEL	_PP71H
                                           	MOV	_PP71H, R0
                                           	MOV	R0,# 0x01
                                           	BANKSEL	_PP71L
                                           	MOV	_PP71L, R0
                                           	MOV	R0,# 0x0c
                                           	BANKSEL	_PWM6CTL0
                                           	MOV	_PWM6CTL0, R0
                                           	MOV	R0,# 0x0c
                                           	BANKSEL	_PWM7CTL0
                                           	MOV	_PWM7CTL0, R0
                                           	BANKSEL	_T2CTL0
                                           	CLR	_T2CTL0
                                           	MOV	R0,# 0x04
                                           	BANKSEL	_T2CTL1
                                           	MOV	_T2CTL1, R0
                                           	BANKSEL	_T4CTL0
                                           	CLR	_T4CTL0
                                           	MOV	R0,# 0x04
                                           	BANKSEL	_T4CTL1
                                           	MOV	_T4CTL1, R0
                                           	BANKSEL	_T5CTL0
                                           	CLR	_T5CTL0
                                           	MOV	R0,# 0x04
                                           	BANKSEL	_T5CTL1
                                           	MOV	_T5CTL1, R0
                                           	BANKSEL	_T6CTL0
                                           	CLR	_T6CTL0
                                           	MOV	R0,# 0x04
                                           	BANKSEL	_T6CTL1
                                           	MOV	_T6CTL1, R0
                                           	BANKSEL	_T2H
                                           	CLR	_T2H
                                           	BANKSEL	_T2L
                                           	CLR	_T2L
                                           	BANKSEL	_T5H
                                           	CLR	_T5H
                                           	BANKSEL	_T5L
                                           	CLR	_T5L
                                           	BANKSEL	_T4H
                                           	CLR	_T4H
                                           	BANKSEL	_T4L
                                           	CLR	_T4L
                                           	BANKSEL	_T6H
                                           	CLR	_T6H
                                           	BANKSEL	_T6L
                                           	CLR	_T6L
                                           	BANKSEL	_T2CTL0_bits
                                           	SET	_T2CTL0_bits, 2
                                           	BANKSEL	_T5CTL0_bits
                                           	SET	_T5CTL0_bits, 2
                                           	BANKSEL	_T4CTL0_bits
                                           	SET	_T4CTL0_bits, 2
                                           	BANKSEL	_T6CTL0_bits
                                           	SET	_T6CTL0_bits, 2
                                           	BANKSEL	_TR2_bits
                                           	CLR	_TR2_bits, 0
                                           	BANKSEL	_TR2_bits
                                           	CLR	_TR2_bits, 1
                                           	BANKSEL	_TR2_bits
                                           	CLR	_TR2_bits, 3
                                           	BANKSEL	_TR6_bits
                                           	CLR	_TR6_bits, 1
                                           	BANKSEL	_TR6_bits
                                           	CLR	_TR6_bits, 5
                                           	BANKSEL	_TR9_bits
                                           	CLR	_TR9_bits, 4
                                           	CRET	
                                           func._PWM5_Init	.code
                                           _PWM5_Init	;Function start
                                           	MOV	R0,# 0xe0
                                           	BANKSEL	_APFCTL5
                                           	MOV	_APFCTL5, R0
                                           	BANKSEL	_TR2_bits
                                           	SET	_TR2_bits, 4
                                           	BANKSEL	_TR6_bits
                                           	SET	_TR6_bits, 6
                                           	BANKSEL	_TR4_bits
                                           	SET	_TR4_bits, 5
                                           	MOV	R0,# 0x01
                                           	BANKSEL	_PWM5L0
                                           	MOV	_PWM5L0, R0
                                           	MOV	R0,# 0x01
                                           	BANKSEL	_PWM5H0
                                           	MOV	_PWM5H0, R0
                                           	MOV	R0,# 0x01
                                           	BANKSEL	_PWM5L1
                                           	MOV	_PWM5L1, R0
                                           	MOV	R0,# 0x01
                                           	BANKSEL	_PWM5H1
                                           	MOV	_PWM5H1, R0
                                           	MOV	R0,# 0x01
                                           	BANKSEL	_PWM5L2
                                           	MOV	_PWM5L2, R0
                                           	MOV	R0,# 0x01
                                           	BANKSEL	_PWM5H2
                                           	MOV	_PWM5H2, R0
                                           	MOV	R0,# 0x63
                                           	BANKSEL	_PP5H
                                           	MOV	_PP5H, R0
                                           	MOV	R0,# 0x01
                                           	BANKSEL	_PP5L
                                           	MOV	_PP5L, R0
                                           	MOV	R0,# 0x0c
                                           	BANKSEL	_PWM5CTL0
                                           	MOV	_PWM5CTL0, R0
                                           	BANKSEL	_PWM5CTL2
                                           	CLR	_PWM5CTL2
                                           	MOV	R0,# 0x1f
                                           	BANKSEL	_P5STRCTL0
                                           	MOV	_P5STRCTL0, R0
                                           	MOV	R0,# 0x0f
                                           	BANKSEL	_P5STRCTL1
                                           	MOV	_P5STRCTL1, R0
                                           	BANKSEL	_T10CTL0
                                           	CLR	_T10CTL0
                                           	MOV	R0,# 0x08
                                           	BANKSEL	_T10CTL1
                                           	MOV	_T10CTL1, R0
                                           	BANKSEL	_T10H
                                           	CLR	_T10H
                                           	BANKSEL	_T10L
                                           	CLR	_T10L
                                           	BANKSEL	_T10CTL1_bits
                                           	SET	_T10CTL1_bits, 2
                                           	BANKSEL	_TR2_bits
                                           	CLR	_TR2_bits, 4
                                           	BANKSEL	_TR6_bits
                                           	CLR	_TR6_bits, 6
                                           	BANKSEL	_TR4_bits
                                           	CLR	_TR4_bits, 5
                                           	CRET	
                                           func._PWM34_Init	.code
                                           _PWM34_Init	;Function start
                                           	MOV	R0,# 0xcd
                                           	BANKSEL	_APFCTL4
                                           	MOV	_APFCTL4, R0
                                           	MOV	R0,# 0x08
                                           	BANKSEL	_APFCTL3
                                           	MOV	_APFCTL3, R0
                                           	BANKSEL	_TR4_bits
                                           	SET	_TR4_bits, 3
                                           	BANKSEL	_TR6_bits
                                           	SET	_TR6_bits, 3
                                           	MOV	R0,# 0x01
                                           	BANKSEL	_PWM3L0
                                           	MOV	_PWM3L0, R0
                                           	MOV	R0,# 0x01
                                           	BANKSEL	_PWM3L1
                                           	MOV	_PWM3L1, R0
                                           	MOV	R0,# 0x63
                                           	BANKSEL	_PP3H
                                           	MOV	_PP3H, R0
                                           	MOV	R0,# 0x01
                                           	BANKSEL	_PP3L
                                           	MOV	_PP3L, R0
                                           	MOV	R0,# 0x01
                                           	BANKSEL	_PWM4L0
                                           	MOV	_PWM4L0, R0
                                           	MOV	R0,# 0x01
                                           	BANKSEL	_PWM4L1
                                           	MOV	_PWM4L1, R0
                                           	MOV	R0,# 0x63
                                           	BANKSEL	_PP4H
                                           	MOV	_PP4H, R0
                                           	MOV	R0,# 0x01
                                           	BANKSEL	_PP4L
                                           	MOV	_PP4L, R0
                                           	MOV	R0,# 0x0c
                                           	BANKSEL	_PWM4CTL0
                                           	MOV	_PWM4CTL0, R0
                                           	MOV	R0,# 0x18
                                           	BANKSEL	_P4ATRCTL
                                           	MOV	_P4ATRCTL, R0
                                           	MOV	R0,# 0x0c
                                           	BANKSEL	_PWM3CTL0
                                           	MOV	_PWM3CTL0, R0
                                           	MOV	R0,# 0x12
                                           	BANKSEL	_P3ATRCTL
                                           	MOV	_P3ATRCTL, R0
                                           	BANKSEL	_T8CTL
                                           	CLR	_T8CTL
                                           	MOV	R0,# 0x02
                                           	BANKSEL	_T8CTL1
                                           	MOV	_T8CTL1, R0
                                           	BANKSEL	_T8H
                                           	CLR	_T8H
                                           	BANKSEL	_T8L
                                           	CLR	_T8L
                                           	BANKSEL	_T8CTL_bits
                                           	SET	_T8CTL_bits, 2
                                           	BANKSEL	_T9CTL
                                           	CLR	_T9CTL
                                           	MOV	R0,# 0x02
                                           	BANKSEL	_T9CTL1
                                           	MOV	_T9CTL1, R0
                                           	BANKSEL	_T9H
                                           	CLR	_T9H
                                           	BANKSEL	_T9L
                                           	CLR	_T9L
                                           	BANKSEL	_T9CTL_bits
                                           	SET	_T9CTL_bits, 2
                                           	BANKSEL	_TR4_bits
                                           	CLR	_TR4_bits, 3
                                           	BANKSEL	_TR6_bits
                                           	CLR	_TR6_bits, 3
                                           	CRET	
                                           	.end
                                           	.radix dec
                                           	.include "KF8A100GQS.inc"
                                           func._breathtest	.code
                                           _breathtest	;Function start
                                           	MOV	R0,# 0x01
                                           	BANKSEL	r0x1007
                                           	MOV	r0x1007, R0
                                           	BANKSEL	r0x1008
                                           	CLR	r0x1008
                                           _00193_DS_
                                           	BANKSEL	r0x1008
                                           	MOVZ	R0, r0x1008
                                           	ADD	R0,# 0x80
                                           	ADD	R0,# 0x80
                                           	JB	PSW, 2
                                           	JMP	_00208_DS_
                                           	MOV	R0,# 0x05
                                           	BANKSEL	r0x1007
                                           	SUB	R0, r0x1007
                                           _00208_DS_
                                           	JNB	PSW, 0
                                           	JMP	_00197_DS_
                                           	MOV	R0,# 0x1f
                                           	BANKSEL	r0x1009
                                           	MOV	r0x1009, R0
                                           	BANKSEL	r0x100A
                                           	CLR	r0x100A
                                           _00185_DS_
                                           	BANKSEL	r0x100A
                                           	MOVZ	R0, r0x100A
                                           	ADD	R0,# 0x80
                                           	ADD	R0,# 0x80
                                           	JB	PSW, 2
                                           	JMP	_00209_DS_
                                           	MOV	R0,# 0x31
                                           	BANKSEL	r0x1009
                                           	SUB	R0, r0x1009
                                           _00209_DS_
                                           	JNB	PSW, 0
                                           	JMP	_00188_DS_
                                           	MOV	R0,# 0xff
                                           	BANKSEL	STK01
                                           	MOV	STK01, R0
                                           	BANKSEL	r0x1009
                                           	MOVZ	R0, r0x1009
                                           	BANKSEL	r0x100C
                                           	MOV	r0x100C, R0
                                           	BANKSEL	STK00
                                           	MOV	STK00, R0
                                           	BANKSEL	r0x1007
                                           	MOVZ	R0, r0x1007
                                           	BANKSEL	r0x100B
                                           	MOV	r0x100B, R0
                                           	TRAPPC1	_SPI_Write_2Byte
                                           	TRAPPC2	_SPI_Write_2Byte
                                           	PAGESEL	_SPI_Write_2Byte
                                           	CALL	_SPI_Write_2Byte
                                           	TRAPPC1	$+2
                                           	TRAPPC2	$+1
                                           	PAGESEL	$
                                           	MOV	R0,# 0x00
                                           	BANKSEL	STK01
                                           	MOV	STK01, R0
                                           	MOV	R0,# 0x37
                                           	BANKSEL	STK00
                                           	MOV	STK00, R0
                                           	BANKSEL	r0x1007
                                           	MOVZ	R0, r0x1007
                                           	BANKSEL	r0x100B
                                           	MOV	r0x100B, R0
                                           	TRAPPC1	_SPI_Write_2Byte
                                           	TRAPPC2	_SPI_Write_2Byte
                                           	PAGESEL	_SPI_Write_2Byte
                                           	CALL	_SPI_Write_2Byte
                                           	TRAPPC1	$+2
                                           	TRAPPC2	$+1
                                           	PAGESEL	$
                                           	MOV	R0,# 0x05
                                           	BANKSEL	STK00
                                           	MOV	STK00, R0
                                           	MOV	R0,# 0x00
                                           	TRAPPC1	_delay_ms
                                           	TRAPPC2	_delay_ms
                                           	PAGESEL	_delay_ms
                                           	CALL	_delay_ms
                                           	TRAPPC1	$+2
                                           	TRAPPC2	$+1
                                           	PAGESEL	$
                                           	BANKSEL	r0x1009
                                           	INC	r0x1009
                                           	JB	PSW, 2
                                           	JMP	_00211_DS_
                                           	BANKSEL	r0x100A
                                           	INC	r0x100A
                                           _00211_DS_
                                           	JMP	_00185_DS_
                                           _00188_DS_
                                           	MOV	R0,# 0x1f
                                           	BANKSEL	r0x1009
                                           	MOV	r0x1009, R0
                                           	BANKSEL	r0x100A
                                           	CLR	r0x100A
                                           _00189_DS_
                                           	BANKSEL	r0x100A
                                           	MOVZ	R0, r0x100A
                                           	ADD	R0,# 0x80
                                           	ADD	R0,# 0x80
                                           	JB	PSW, 2
                                           	JMP	_00210_DS_
                                           	MOV	R0,# 0x31
                                           	BANKSEL	r0x1009
                                           	SUB	R0, r0x1009
                                           _00210_DS_
                                           	JNB	PSW, 0
                                           	JMP	_00195_DS_
                                           	MOV	R0,# 0x00
                                           	BANKSEL	STK01
                                           	MOV	STK01, R0
                                           	BANKSEL	r0x1009
                                           	MOVZ	R0, r0x1009
                                           	BANKSEL	r0x100C
                                           	MOV	r0x100C, R0
                                           	BANKSEL	STK00
                                           	MOV	STK00, R0
                                           	BANKSEL	r0x1007
                                           	MOVZ	R0, r0x1007
                                           	BANKSEL	r0x100B
                                           	MOV	r0x100B, R0
                                           	TRAPPC1	_SPI_Write_2Byte
                                           	TRAPPC2	_SPI_Write_2Byte
                                           	PAGESEL	_SPI_Write_2Byte
                                           	CALL	_SPI_Write_2Byte
                                           	TRAPPC1	$+2
                                           	TRAPPC2	$+1
                                           	PAGESEL	$
                                           	MOV	R0,# 0x00
                                           	BANKSEL	STK01
                                           	MOV	STK01, R0
                                           	MOV	R0,# 0x37
                                           	BANKSEL	STK00
                                           	MOV	STK00, R0
                                           	BANKSEL	r0x1007
                                           	MOVZ	R0, r0x1007
                                           	BANKSEL	r0x100B
                                           	MOV	r0x100B, R0
                                           	TRAPPC1	_SPI_Write_2Byte
                                           	TRAPPC2	_SPI_Write_2Byte
                                           	PAGESEL	_SPI_Write_2Byte
                                           	CALL	_SPI_Write_2Byte
                                           	TRAPPC1	$+2
                                           	TRAPPC2	$+1
                                           	PAGESEL	$
                                           	MOV	R0,# 0x05
                                           	BANKSEL	STK00
                                           	MOV	STK00, R0
                                           	MOV	R0,# 0x00
                                           	TRAPPC1	_delay_ms
                                           	TRAPPC2	_delay_ms
                                           	PAGESEL	_delay_ms
                                           	CALL	_delay_ms
                                           	TRAPPC1	$+2
                                           	TRAPPC2	$+1
                                           	PAGESEL	$
                                           	BANKSEL	r0x1009
                                           	INC	r0x1009
                                           	JB	PSW, 2
                                           	JMP	_00212_DS_
                                           	BANKSEL	r0x100A
                                           	INC	r0x100A
                                           _00212_DS_
                                           	JMP	_00189_DS_
                                           _00195_DS_
                                           	BANKSEL	r0x1007
                                           	INC	r0x1007
                                           	JB	PSW, 2
                                           	JMP	_00213_DS_
                                           	BANKSEL	r0x1008
                                           	INC	r0x1008
                                           _00213_DS_
                                           	JMP	_00193_DS_
                                           _00197_DS_
                                           	CRET	
                                           func._Rt_Two_Work	.code
                                           _Rt_Two_Work	;Function start
                                           	MOV	R0,# 0x2f
                                           	BANKSEL	r0x100D
                                           	MOV	r0x100D, R0
                                           _00167_DS_
                                           	MOV	R0,# 0x1f
                                           	BANKSEL	r0x100D
                                           	SUB	R0, r0x100D
                                           	JB	PSW, 0
                                           	JMP	_00170_DS_
                                           	MOV	R0,# 0xff
                                           	BANKSEL	STK01
                                           	MOV	STK01, R0
                                           	BANKSEL	r0x100D
                                           	MOVZ	R0, r0x100D
                                           	BANKSEL	STK00
                                           	MOV	STK00, R0
                                           	MOV	R0,# 0x04
                                           	TRAPPC1	_SPI_Write_2Byte
                                           	TRAPPC2	_SPI_Write_2Byte
                                           	PAGESEL	_SPI_Write_2Byte
                                           	CALL	_SPI_Write_2Byte
                                           	TRAPPC1	$+2
                                           	TRAPPC2	$+1
                                           	PAGESEL	$
                                           	BANKSEL	r0x100D
                                           	DECR	r0x100D
                                           	BANKSEL	r0x100E
                                           	MOV	r0x100E, R0
                                           	MOV	R0,# 0xff
                                           	BANKSEL	STK01
                                           	MOV	STK01, R0
                                           	BANKSEL	r0x100E
                                           	MOVZ	R0, r0x100E
                                           	BANKSEL	STK00
                                           	MOV	STK00, R0
                                           	MOV	R0,# 0x04
                                           	TRAPPC1	_SPI_Write_2Byte
                                           	TRAPPC2	_SPI_Write_2Byte
                                           	PAGESEL	_SPI_Write_2Byte
                                           	CALL	_SPI_Write_2Byte
                                           	TRAPPC1	$+2
                                           	TRAPPC2	$+1
                                           	PAGESEL	$
                                           	MOV	R0,# 0x00
                                           	BANKSEL	STK01
                                           	MOV	STK01, R0
                                           	MOV	R0,# 0x37
                                           	BANKSEL	STK00
                                           	MOV	STK00, R0
                                           	MOV	R0,# 0x04
                                           	TRAPPC1	_SPI_Write_2Byte
                                           	TRAPPC2	_SPI_Write_2Byte
                                           	PAGESEL	_SPI_Write_2Byte
                                           	CALL	_SPI_Write_2Byte
                                           	TRAPPC1	$+2
                                           	TRAPPC2	$+1
                                           	PAGESEL	$
                                           	MOV	R0,# 0xc8
                                           	BANKSEL	STK00
                                           	MOV	STK00, R0
                                           	MOV	R0,# 0x00
                                           	TRAPPC1	_delay_ms
                                           	TRAPPC2	_delay_ms
                                           	PAGESEL	_delay_ms
                                           	CALL	_delay_ms
                                           	TRAPPC1	$+2
                                           	TRAPPC2	$+1
                                           	PAGESEL	$
                                           	MOV	R0,# 0xfd
                                           	BANKSEL	r0x100D
                                           	ADD	r0x100D, R0
                                           	JMP	_00167_DS_
                                           _00170_DS_
                                           	MOV	R0,# 0x1f
                                           	BANKSEL	r0x100D
                                           	MOV	r0x100D, R0
                                           _00171_DS_
                                           	MOV	R0,# 0x31
                                           	BANKSEL	r0x100D
                                           	SUB	R0, r0x100D
                                           	JNB	PSW, 0
                                           	JMP	_00175_DS_
                                           	MOV	R0,# 0x00
                                           	BANKSEL	STK01
                                           	MOV	STK01, R0
                                           	BANKSEL	r0x100D
                                           	MOVZ	R0, r0x100D
                                           	BANKSEL	STK00
                                           	MOV	STK00, R0
                                           	MOV	R0,# 0x04
                                           	TRAPPC1	_SPI_Write_2Byte
                                           	TRAPPC2	_SPI_Write_2Byte
                                           	PAGESEL	_SPI_Write_2Byte
                                           	CALL	_SPI_Write_2Byte
                                           	TRAPPC1	$+2
                                           	TRAPPC2	$+1
                                           	PAGESEL	$
                                           	MOV	R0,# 0x00
                                           	BANKSEL	STK01
                                           	MOV	STK01, R0
                                           	MOV	R0,# 0x37
                                           	BANKSEL	STK00
                                           	MOV	STK00, R0
                                           	MOV	R0,# 0x04
                                           	TRAPPC1	_SPI_Write_2Byte
                                           	TRAPPC2	_SPI_Write_2Byte
                                           	PAGESEL	_SPI_Write_2Byte
                                           	CALL	_SPI_Write_2Byte
                                           	TRAPPC1	$+2
                                           	TRAPPC2	$+1
                                           	PAGESEL	$
                                           	BANKSEL	r0x100D
                                           	INC	r0x100D
                                           	JMP	_00171_DS_
                                           _00175_DS_
                                           	CRET	
                                           func._Rt_One_Work	.code
                                           _Rt_One_Work	;Function start
                                           	MOV	R0,# 0x1f
                                           	BANKSEL	r0x100F
                                           	MOV	r0x100F, R0
                                           _00149_DS_
                                           	MOV	R0,# 0x31
                                           	BANKSEL	r0x100F
                                           	SUB	R0, r0x100F
                                           	JNB	PSW, 0
                                           	JMP	_00152_DS_
                                           	MOV	R0,# 0xff
                                           	BANKSEL	STK01
                                           	MOV	STK01, R0
                                           	BANKSEL	r0x100F
                                           	MOVZ	R0, r0x100F
                                           	BANKSEL	STK00
                                           	MOV	STK00, R0
                                           	MOV	R0,# 0x03
                                           	TRAPPC1	_SPI_Write_2Byte
                                           	TRAPPC2	_SPI_Write_2Byte
                                           	PAGESEL	_SPI_Write_2Byte
                                           	CALL	_SPI_Write_2Byte
                                           	TRAPPC1	$+2
                                           	TRAPPC2	$+1
                                           	PAGESEL	$
                                           	MOV	R0,# 0x00
                                           	BANKSEL	STK01
                                           	MOV	STK01, R0
                                           	MOV	R0,# 0x37
                                           	BANKSEL	STK00
                                           	MOV	STK00, R0
                                           	MOV	R0,# 0x03
                                           	TRAPPC1	_SPI_Write_2Byte
                                           	TRAPPC2	_SPI_Write_2Byte
                                           	PAGESEL	_SPI_Write_2Byte
                                           	CALL	_SPI_Write_2Byte
                                           	TRAPPC1	$+2
                                           	TRAPPC2	$+1
                                           	PAGESEL	$
                                           	MOV	R0,# 0xc8
                                           	BANKSEL	STK00
                                           	MOV	STK00, R0
                                           	MOV	R0,# 0x00
                                           	TRAPPC1	_delay_ms
                                           	TRAPPC2	_delay_ms
                                           	PAGESEL	_delay_ms
                                           	CALL	_delay_ms
                                           	TRAPPC1	$+2
                                           	TRAPPC2	$+1
                                           	PAGESEL	$
                                           	MOV	R0,# 0x03
                                           	BANKSEL	r0x100F
                                           	ADD	r0x100F, R0
                                           	JMP	_00149_DS_
                                           _00152_DS_
                                           	MOV	R0,# 0x1f
                                           	BANKSEL	r0x100F
                                           	MOV	r0x100F, R0
                                           _00153_DS_
                                           	MOV	R0,# 0x31
                                           	BANKSEL	r0x100F
                                           	SUB	R0, r0x100F
                                           	JNB	PSW, 0
                                           	JMP	_00157_DS_
                                           	MOV	R0,# 0x00
                                           	BANKSEL	STK01
                                           	MOV	STK01, R0
                                           	BANKSEL	r0x100F
                                           	MOVZ	R0, r0x100F
                                           	BANKSEL	STK00
                                           	MOV	STK00, R0
                                           	MOV	R0,# 0x03
                                           	TRAPPC1	_SPI_Write_2Byte
                                           	TRAPPC2	_SPI_Write_2Byte
                                           	PAGESEL	_SPI_Write_2Byte
                                           	CALL	_SPI_Write_2Byte
                                           	TRAPPC1	$+2
                                           	TRAPPC2	$+1
                                           	PAGESEL	$
                                           	MOV	R0,# 0x00
                                           	BANKSEL	STK01
                                           	MOV	STK01, R0
                                           	MOV	R0,# 0x37
                                           	BANKSEL	STK00
                                           	MOV	STK00, R0
                                           	MOV	R0,# 0x03
                                           	TRAPPC1	_SPI_Write_2Byte
                                           	TRAPPC2	_SPI_Write_2Byte
                                           	PAGESEL	_SPI_Write_2Byte
                                           	CALL	_SPI_Write_2Byte
                                           	TRAPPC1	$+2
                                           	TRAPPC2	$+1
                                           	PAGESEL	$
                                           	BANKSEL	r0x100F
                                           	INC	r0x100F
                                           	JMP	_00153_DS_
                                           _00157_DS_
                                           	CRET	
                                           func._Tail_Two_Work	.code
                                           _Tail_Two_Work	;Function start
                                           	MOV	R0,# 0x2f
                                           	BANKSEL	r0x1010
                                           	MOV	r0x1010, R0
                                           _00131_DS_
                                           	MOV	R0,# 0x1f
                                           	BANKSEL	r0x1010
                                           	SUB	R0, r0x1010
                                           	JB	PSW, 0
                                           	JMP	_00134_DS_
                                           	MOV	R0,# 0xff
                                           	BANKSEL	STK01
                                           	MOV	STK01, R0
                                           	BANKSEL	r0x1010
                                           	MOVZ	R0, r0x1010
                                           	BANKSEL	STK00
                                           	MOV	STK00, R0
                                           	MOV	R0,# 0x02
                                           	TRAPPC1	_SPI_Write_2Byte
                                           	TRAPPC2	_SPI_Write_2Byte
                                           	PAGESEL	_SPI_Write_2Byte
                                           	CALL	_SPI_Write_2Byte
                                           	TRAPPC1	$+2
                                           	TRAPPC2	$+1
                                           	PAGESEL	$
                                           	BANKSEL	r0x1010
                                           	DECR	r0x1010
                                           	BANKSEL	r0x1011
                                           	MOV	r0x1011, R0
                                           	MOV	R0,# 0xff
                                           	BANKSEL	STK01
                                           	MOV	STK01, R0
                                           	BANKSEL	r0x1011
                                           	MOVZ	R0, r0x1011
                                           	BANKSEL	STK00
                                           	MOV	STK00, R0
                                           	MOV	R0,# 0x02
                                           	TRAPPC1	_SPI_Write_2Byte
                                           	TRAPPC2	_SPI_Write_2Byte
                                           	PAGESEL	_SPI_Write_2Byte
                                           	CALL	_SPI_Write_2Byte
                                           	TRAPPC1	$+2
                                           	TRAPPC2	$+1
                                           	PAGESEL	$
                                           	MOV	R0,# 0x00
                                           	BANKSEL	STK01
                                           	MOV	STK01, R0
                                           	MOV	R0,# 0x37
                                           	BANKSEL	STK00
                                           	MOV	STK00, R0
                                           	MOV	R0,# 0x02
                                           	TRAPPC1	_SPI_Write_2Byte
                                           	TRAPPC2	_SPI_Write_2Byte
                                           	PAGESEL	_SPI_Write_2Byte
                                           	CALL	_SPI_Write_2Byte
                                           	TRAPPC1	$+2
                                           	TRAPPC2	$+1
                                           	PAGESEL	$
                                           	MOV	R0,# 0x32
                                           	BANKSEL	STK00
                                           	MOV	STK00, R0
                                           	MOV	R0,# 0x00
                                           	TRAPPC1	_delay_ms
                                           	TRAPPC2	_delay_ms
                                           	PAGESEL	_delay_ms
                                           	CALL	_delay_ms
                                           	TRAPPC1	$+2
                                           	TRAPPC2	$+1
                                           	PAGESEL	$
                                           	MOV	R0,# 0xfd
                                           	BANKSEL	r0x1010
                                           	ADD	r0x1010, R0
                                           	JMP	_00131_DS_
                                           _00134_DS_
                                           	MOV	R0,# 0x30
                                           	BANKSEL	r0x1010
                                           	MOV	r0x1010, R0
                                           _00135_DS_
                                           	MOV	R0,# 0x1f
                                           	BANKSEL	r0x1010
                                           	SUB	R0, r0x1010
                                           	JB	PSW, 0
                                           	JMP	_00139_DS_
                                           	MOV	R0,# 0x00
                                           	BANKSEL	STK01
                                           	MOV	STK01, R0
                                           	BANKSEL	r0x1010
                                           	MOVZ	R0, r0x1010
                                           	BANKSEL	STK00
                                           	MOV	STK00, R0
                                           	MOV	R0,# 0x02
                                           	TRAPPC1	_SPI_Write_2Byte
                                           	TRAPPC2	_SPI_Write_2Byte
                                           	PAGESEL	_SPI_Write_2Byte
                                           	CALL	_SPI_Write_2Byte
                                           	TRAPPC1	$+2
                                           	TRAPPC2	$+1
                                           	PAGESEL	$
                                           	MOV	R0,# 0x00
                                           	BANKSEL	STK01
                                           	MOV	STK01, R0
                                           	MOV	R0,# 0x37
                                           	BANKSEL	STK00
                                           	MOV	STK00, R0
                                           	MOV	R0,# 0x02
                                           	TRAPPC1	_SPI_Write_2Byte
                                           	TRAPPC2	_SPI_Write_2Byte
                                           	PAGESEL	_SPI_Write_2Byte
                                           	CALL	_SPI_Write_2Byte
                                           	TRAPPC1	$+2
                                           	TRAPPC2	$+1
                                           	PAGESEL	$
                                           	BANKSEL	r0x1010
                                           	DEC	r0x1010
                                           	JMP	_00135_DS_
                                           _00139_DS_
                                           	CRET	
                                           func._Tail_One_Work	.code
                                           _Tail_One_Work	;Function start
                                           	MOV	R0,# 0x2f
                                           	BANKSEL	r0x1012
                                           	MOV	r0x1012, R0
                                           _00113_DS_
                                           	MOV	R0,# 0x1f
                                           	BANKSEL	r0x1012
                                           	SUB	R0, r0x1012
                                           	JB	PSW, 0
                                           	JMP	_00116_DS_
                                           	MOV	R0,# 0xff
                                           	BANKSEL	STK01
                                           	MOV	STK01, R0
                                           	BANKSEL	r0x1012
                                           	MOVZ	R0, r0x1012
                                           	BANKSEL	STK00
                                           	MOV	STK00, R0
                                           	MOV	R0,# 0x01
                                           	TRAPPC1	_SPI_Write_2Byte
                                           	TRAPPC2	_SPI_Write_2Byte
                                           	PAGESEL	_SPI_Write_2Byte
                                           	CALL	_SPI_Write_2Byte
                                           	TRAPPC1	$+2
                                           	TRAPPC2	$+1
                                           	PAGESEL	$
                                           	BANKSEL	r0x1012
                                           	DECR	r0x1012
                                           	BANKSEL	r0x1013
                                           	MOV	r0x1013, R0
                                           	MOV	R0,# 0xff
                                           	BANKSEL	STK01
                                           	MOV	STK01, R0
                                           	BANKSEL	r0x1013
                                           	MOVZ	R0, r0x1013
                                           	BANKSEL	STK00
                                           	MOV	STK00, R0
                                           	MOV	R0,# 0x01
                                           	TRAPPC1	_SPI_Write_2Byte
                                           	TRAPPC2	_SPI_Write_2Byte
                                           	PAGESEL	_SPI_Write_2Byte
                                           	CALL	_SPI_Write_2Byte
                                           	TRAPPC1	$+2
                                           	TRAPPC2	$+1
                                           	PAGESEL	$
                                           	MOV	R0,# 0x00
                                           	BANKSEL	STK01
                                           	MOV	STK01, R0
                                           	MOV	R0,# 0x37
                                           	BANKSEL	STK00
                                           	MOV	STK00, R0
                                           	MOV	R0,# 0x01
                                           	TRAPPC1	_SPI_Write_2Byte
                                           	TRAPPC2	_SPI_Write_2Byte
                                           	PAGESEL	_SPI_Write_2Byte
                                           	CALL	_SPI_Write_2Byte
                                           	TRAPPC1	$+2
                                           	TRAPPC2	$+1
                                           	PAGESEL	$
                                           	MOV	R0,# 0x32
                                           	BANKSEL	STK00
                                           	MOV	STK00, R0
                                           	MOV	R0,# 0x00
                                           	TRAPPC1	_delay_ms
                                           	TRAPPC2	_delay_ms
                                           	PAGESEL	_delay_ms
                                           	CALL	_delay_ms
                                           	TRAPPC1	$+2
                                           	TRAPPC2	$+1
                                           	PAGESEL	$
                                           	MOV	R0,# 0xfd
                                           	BANKSEL	r0x1012
                                           	ADD	r0x1012, R0
                                           	JMP	_00113_DS_
                                           _00116_DS_
                                           	MOV	R0,# 0x30
                                           	BANKSEL	r0x1012
                                           	MOV	r0x1012, R0
                                           _00117_DS_
                                           	MOV	R0,# 0x1f
                                           	BANKSEL	r0x1012
                                           	SUB	R0, r0x1012
                                           	JB	PSW, 0
                                           	JMP	_00121_DS_
                                           	MOV	R0,# 0x00
                                           	BANKSEL	STK01
                                           	MOV	STK01, R0
                                           	BANKSEL	r0x1012
                                           	MOVZ	R0, r0x1012
                                           	BANKSEL	STK00
                                           	MOV	STK00, R0
                                           	MOV	R0,# 0x01
                                           	TRAPPC1	_SPI_Write_2Byte
                                           	TRAPPC2	_SPI_Write_2Byte
                                           	PAGESEL	_SPI_Write_2Byte
                                           	CALL	_SPI_Write_2Byte
                                           	TRAPPC1	$+2
                                           	TRAPPC2	$+1
                                           	PAGESEL	$
                                           	MOV	R0,# 0x00
                                           	BANKSEL	STK01
                                           	MOV	STK01, R0
                                           	MOV	R0,# 0x37
                                           	BANKSEL	STK00
                                           	MOV	STK00, R0
                                           	MOV	R0,# 0x01
                                           	TRAPPC1	_SPI_Write_2Byte
                                           	TRAPPC2	_SPI_Write_2Byte
                                           	PAGESEL	_SPI_Write_2Byte
                                           	CALL	_SPI_Write_2Byte
                                           	TRAPPC1	$+2
                                           	TRAPPC2	$+1
                                           	PAGESEL	$
                                           	BANKSEL	r0x1012
                                           	DEC	r0x1012
                                           	JMP	_00117_DS_
                                           _00121_DS_
                                           	CRET	
                                           func._Rt_Two_Init	.code
                                           _Rt_Two_Init	;Function start
007257   9801     MOV	R0, #0x1             	MOV	R0,# 0x01
007258   e100     MOVB	#0x00               	BANKSEL	STK01
007259   5192     MOV	0x92, R0             	MOV	STK01, R0
00725a   9800     MOV	R0, #0               	MOV	R0,# 0x00
                                           	BANKSEL	STK00
00725b   5193     MOV	0x93, R0             	MOV	STK00, R0
00725c   9804     MOV	R0, #0x4             	MOV	R0,# 0x04
00725d   9f76     MOV	R7, #0x76            	TRAPPC1	_SPI_Write_2Byte
00725e   5f73     MOV	0x73, R7             	TRAPPC2	_SPI_Write_2Byte
00725f   e076     MOVP	#0x76               	PAGESEL	_SPI_Write_2Byte
007260   d610     CALL	#0x610              	CALL	_SPI_Write_2Byte
007261   9f72     MOV	R7, #0x72            	TRAPPC1	$+2
007262   5f73     MOV	0x73, R7             	TRAPPC2	$+1
007263   e072     MOVP	#0x72               	PAGESEL	$
007264   9802     MOV	R0, #0x2             	MOV	R0,# 0x02
007265   e100     MOVB	#0x00               	BANKSEL	r0x1014
007266   51b8     MOV	0xb8, R0             	MOV	r0x1014, R0
                                           _00095_DS_
                                           	BANKSEL	r0x1014
007267   0eb8     MOVZ	R0, 0xb8            	MOVZ	R0, r0x1014
007268   8080     ADD	R0, #0x80            	ADD	R0,# 0x80
007269   806c     ADD	R0, #0x6c            	ADD	R0,# 0x6c
00726a   7003     JNB	0x3, 0               	JNB	PSW, 0
00726b   c27c     JMP	#0x27c               	JMP	_00098_DS_
00726c   98ff     MOV	R0, #0xff            	MOV	R0,# 0xff
                                           	BANKSEL	STK01
00726d   5192     MOV	0x92, R0             	MOV	STK01, R0
                                           	BANKSEL	r0x1014
00726e   0eb8     MOVZ	R0, 0xb8            	MOVZ	R0, r0x1014
                                           	BANKSEL	r0x1015
00726f   51b9     MOV	0xb9, R0             	MOV	r0x1015, R0
                                           	BANKSEL	STK00
007270   5193     MOV	0x93, R0             	MOV	STK00, R0
007271   9804     MOV	R0, #0x4             	MOV	R0,# 0x04
007272   9f76     MOV	R7, #0x76            	TRAPPC1	_SPI_Write_2Byte
007273   5f73     MOV	0x73, R7             	TRAPPC2	_SPI_Write_2Byte
007274   e076     MOVP	#0x76               	PAGESEL	_SPI_Write_2Byte
007275   d610     CALL	#0x610              	CALL	_SPI_Write_2Byte
007276   9f72     MOV	R7, #0x72            	TRAPPC1	$+2
007277   5f73     MOV	0x73, R7             	TRAPPC2	$+1
007278   e072     MOVP	#0x72               	PAGESEL	$
007279   e100     MOVB	#0x00               	BANKSEL	r0x1014
00727a   0bb8     INC	0xb8                 	INC	r0x1014
00727b   c267     JMP	#0x267               	JMP	_00095_DS_
                                           _00098_DS_
00727c   981f     MOV	R0, #0x1f            	MOV	R0,# 0x1f
                                           	BANKSEL	r0x1014
00727d   51b8     MOV	0xb8, R0             	MOV	r0x1014, R0
                                           _00099_DS_
                                           	BANKSEL	r0x1014
00727e   0eb8     MOVZ	R0, 0xb8            	MOVZ	R0, r0x1014
00727f   8080     ADD	R0, #0x80            	ADD	R0,# 0x80
007280   804f     ADD	R0, #0x4f            	ADD	R0,# 0x4f
007281   7003     JNB	0x3, 0               	JNB	PSW, 0
007282   c293     JMP	#0x293               	JMP	_00102_DS_
007283   9800     MOV	R0, #0               	MOV	R0,# 0x00
                                           	BANKSEL	STK01
007284   5192     MOV	0x92, R0             	MOV	STK01, R0
                                           	BANKSEL	r0x1014
007285   0eb8     MOVZ	R0, 0xb8            	MOVZ	R0, r0x1014
                                           	BANKSEL	r0x1015
007286   51b9     MOV	0xb9, R0             	MOV	r0x1015, R0
                                           	BANKSEL	STK00
007287   5193     MOV	0x93, R0             	MOV	STK00, R0
007288   9804     MOV	R0, #0x4             	MOV	R0,# 0x04
007289   9f76     MOV	R7, #0x76            	TRAPPC1	_SPI_Write_2Byte
00728a   5f73     MOV	0x73, R7             	TRAPPC2	_SPI_Write_2Byte
00728b   e076     MOVP	#0x76               	PAGESEL	_SPI_Write_2Byte
00728c   d610     CALL	#0x610              	CALL	_SPI_Write_2Byte
00728d   9f72     MOV	R7, #0x72            	TRAPPC1	$+2
00728e   5f73     MOV	0x73, R7             	TRAPPC2	$+1
00728f   e072     MOVP	#0x72               	PAGESEL	$
007290   e100     MOVB	#0x00               	BANKSEL	r0x1014
007291   0bb8     INC	0xb8                 	INC	r0x1014
007292   c27e     JMP	#0x27e               	JMP	_00099_DS_
                                           _00102_DS_
007293   9800     MOV	R0, #0               	MOV	R0,# 0x00
                                           	BANKSEL	STK01
007294   5192     MOV	0x92, R0             	MOV	STK01, R0
007295   9836     MOV	R0, #0x36            	MOV	R0,# 0x36
                                           	BANKSEL	STK00
007296   5193     MOV	0x93, R0             	MOV	STK00, R0
007297   9804     MOV	R0, #0x4             	MOV	R0,# 0x04
007298   9f76     MOV	R7, #0x76            	TRAPPC1	_SPI_Write_2Byte
007299   5f73     MOV	0x73, R7             	TRAPPC2	_SPI_Write_2Byte
00729a   e076     MOVP	#0x76               	PAGESEL	_SPI_Write_2Byte
00729b   d610     CALL	#0x610              	CALL	_SPI_Write_2Byte
00729c   9f72     MOV	R7, #0x72            	TRAPPC1	$+2
00729d   5f73     MOV	0x73, R7             	TRAPPC2	$+1
00729e   e072     MOVP	#0x72               	PAGESEL	$
00729f   9800     MOV	R0, #0               	MOV	R0,# 0x00
0072a0   e100     MOVB	#0x00               	BANKSEL	STK01
0072a1   5192     MOV	0x92, R0             	MOV	STK01, R0
0072a2   9837     MOV	R0, #0x37            	MOV	R0,# 0x37
                                           	BANKSEL	STK00
0072a3   5193     MOV	0x93, R0             	MOV	STK00, R0
0072a4   9804     MOV	R0, #0x4             	MOV	R0,# 0x04
0072a5   9f76     MOV	R7, #0x76            	TRAPPC1	_SPI_Write_2Byte
0072a6   5f73     MOV	0x73, R7             	TRAPPC2	_SPI_Write_2Byte
0072a7   e076     MOVP	#0x76               	PAGESEL	_SPI_Write_2Byte
0072a8   d610     CALL	#0x610              	CALL	_SPI_Write_2Byte
0072a9   9f72     MOV	R7, #0x72            	TRAPPC1	$+2
0072aa   5f73     MOV	0x73, R7             	TRAPPC2	$+1
0072ab   e072     MOVP	#0x72               	PAGESEL	$
0072ac   9820     MOV	R0, #0x20            	MOV	R0,# 0x20
0072ad   e100     MOVB	#0x00               	BANKSEL	STK01
0072ae   5192     MOV	0x92, R0             	MOV	STK01, R0
0072af   9801     MOV	R0, #0x1             	MOV	R0,# 0x01
                                           	BANKSEL	STK00
0072b0   5193     MOV	0x93, R0             	MOV	STK00, R0
0072b1   9804     MOV	R0, #0x4             	MOV	R0,# 0x04
0072b2   9f76     MOV	R7, #0x76            	TRAPPC1	_SPI_Write_2Byte
0072b3   5f73     MOV	0x73, R7             	TRAPPC2	_SPI_Write_2Byte
0072b4   e076     MOVP	#0x76               	PAGESEL	_SPI_Write_2Byte
0072b5   d610     CALL	#0x610              	CALL	_SPI_Write_2Byte
0072b6   9f72     MOV	R7, #0x72            	TRAPPC1	$+2
0072b7   5f73     MOV	0x73, R7             	TRAPPC2	$+1
0072b8   e072     MOVP	#0x72               	PAGESEL	$
0072b9   0008     CRET                     	CRET	
                                           func._Rt_One_Init	.code
                                           _Rt_One_Init	;Function start
0072ba   9801     MOV	R0, #0x1             	MOV	R0,# 0x01
0072bb   e100     MOVB	#0x00               	BANKSEL	STK01
0072bc   5192     MOV	0x92, R0             	MOV	STK01, R0
0072bd   9800     MOV	R0, #0               	MOV	R0,# 0x00
                                           	BANKSEL	STK00
0072be   5193     MOV	0x93, R0             	MOV	STK00, R0
0072bf   9803     MOV	R0, #0x3             	MOV	R0,# 0x03
0072c0   9f76     MOV	R7, #0x76            	TRAPPC1	_SPI_Write_2Byte
0072c1   5f73     MOV	0x73, R7             	TRAPPC2	_SPI_Write_2Byte
0072c2   e076     MOVP	#0x76               	PAGESEL	_SPI_Write_2Byte
0072c3   d610     CALL	#0x610              	CALL	_SPI_Write_2Byte
0072c4   9f72     MOV	R7, #0x72            	TRAPPC1	$+2
0072c5   5f73     MOV	0x73, R7             	TRAPPC2	$+1
0072c6   e072     MOVP	#0x72               	PAGESEL	$
0072c7   9802     MOV	R0, #0x2             	MOV	R0,# 0x02
0072c8   e100     MOVB	#0x00               	BANKSEL	r0x1016
0072c9   51b6     MOV	0xb6, R0             	MOV	r0x1016, R0
                                           _00077_DS_
                                           	BANKSEL	r0x1016
0072ca   0eb6     MOVZ	R0, 0xb6            	MOVZ	R0, r0x1016
0072cb   8080     ADD	R0, #0x80            	ADD	R0,# 0x80
0072cc   806c     ADD	R0, #0x6c            	ADD	R0,# 0x6c
0072cd   7003     JNB	0x3, 0               	JNB	PSW, 0
0072ce   c2df     JMP	#0x2df               	JMP	_00080_DS_
0072cf   98ff     MOV	R0, #0xff            	MOV	R0,# 0xff
                                           	BANKSEL	STK01
0072d0   5192     MOV	0x92, R0             	MOV	STK01, R0
                                           	BANKSEL	r0x1016
0072d1   0eb6     MOVZ	R0, 0xb6            	MOVZ	R0, r0x1016
                                           	BANKSEL	r0x1017
0072d2   51b7     MOV	0xb7, R0             	MOV	r0x1017, R0
                                           	BANKSEL	STK00
0072d3   5193     MOV	0x93, R0             	MOV	STK00, R0
0072d4   9803     MOV	R0, #0x3             	MOV	R0,# 0x03
0072d5   9f76     MOV	R7, #0x76            	TRAPPC1	_SPI_Write_2Byte
0072d6   5f73     MOV	0x73, R7             	TRAPPC2	_SPI_Write_2Byte
0072d7   e076     MOVP	#0x76               	PAGESEL	_SPI_Write_2Byte
0072d8   d610     CALL	#0x610              	CALL	_SPI_Write_2Byte
0072d9   9f72     MOV	R7, #0x72            	TRAPPC1	$+2
0072da   5f73     MOV	0x73, R7             	TRAPPC2	$+1
0072db   e072     MOVP	#0x72               	PAGESEL	$
0072dc   e100     MOVB	#0x00               	BANKSEL	r0x1016
0072dd   0bb6     INC	0xb6                 	INC	r0x1016
0072de   c2ca     JMP	#0x2ca               	JMP	_00077_DS_
                                           _00080_DS_
0072df   981f     MOV	R0, #0x1f            	MOV	R0,# 0x1f
                                           	BANKSEL	r0x1016
0072e0   51b6     MOV	0xb6, R0             	MOV	r0x1016, R0
                                           _00081_DS_
                                           	BANKSEL	r0x1016
0072e1   0eb6     MOVZ	R0, 0xb6            	MOVZ	R0, r0x1016
0072e2   8080     ADD	R0, #0x80            	ADD	R0,# 0x80
0072e3   804f     ADD	R0, #0x4f            	ADD	R0,# 0x4f
0072e4   7003     JNB	0x3, 0               	JNB	PSW, 0
0072e5   c2f6     JMP	#0x2f6               	JMP	_00084_DS_
0072e6   9800     MOV	R0, #0               	MOV	R0,# 0x00
                                           	BANKSEL	STK01
0072e7   5192     MOV	0x92, R0             	MOV	STK01, R0
                                           	BANKSEL	r0x1016
0072e8   0eb6     MOVZ	R0, 0xb6            	MOVZ	R0, r0x1016
                                           	BANKSEL	r0x1017
0072e9   51b7     MOV	0xb7, R0             	MOV	r0x1017, R0
                                           	BANKSEL	STK00
0072ea   5193     MOV	0x93, R0             	MOV	STK00, R0
0072eb   9803     MOV	R0, #0x3             	MOV	R0,# 0x03
0072ec   9f76     MOV	R7, #0x76            	TRAPPC1	_SPI_Write_2Byte
0072ed   5f73     MOV	0x73, R7             	TRAPPC2	_SPI_Write_2Byte
0072ee   e076     MOVP	#0x76               	PAGESEL	_SPI_Write_2Byte
0072ef   d610     CALL	#0x610              	CALL	_SPI_Write_2Byte
0072f0   9f72     MOV	R7, #0x72            	TRAPPC1	$+2
0072f1   5f73     MOV	0x73, R7             	TRAPPC2	$+1
0072f2   e072     MOVP	#0x72               	PAGESEL	$
0072f3   e100     MOVB	#0x00               	BANKSEL	r0x1016
0072f4   0bb6     INC	0xb6                 	INC	r0x1016
0072f5   c2e1     JMP	#0x2e1               	JMP	_00081_DS_
                                           _00084_DS_
0072f6   9800     MOV	R0, #0               	MOV	R0,# 0x00
                                           	BANKSEL	STK01
0072f7   5192     MOV	0x92, R0             	MOV	STK01, R0
0072f8   9836     MOV	R0, #0x36            	MOV	R0,# 0x36
                                           	BANKSEL	STK00
0072f9   5193     MOV	0x93, R0             	MOV	STK00, R0
0072fa   9803     MOV	R0, #0x3             	MOV	R0,# 0x03
0072fb   9f76     MOV	R7, #0x76            	TRAPPC1	_SPI_Write_2Byte
0072fc   5f73     MOV	0x73, R7             	TRAPPC2	_SPI_Write_2Byte
0072fd   e076     MOVP	#0x76               	PAGESEL	_SPI_Write_2Byte
0072fe   d610     CALL	#0x610              	CALL	_SPI_Write_2Byte
0072ff   9f73     MOV	R7, #0x73            	TRAPPC1	$+2
007300   5f73     MOV	0x73, R7             	TRAPPC2	$+1
007301   e073     MOVP	#0x73               	PAGESEL	$
007302   9800     MOV	R0, #0               	MOV	R0,# 0x00
007303   e100     MOVB	#0x00               	BANKSEL	STK01
007304   5192     MOV	0x92, R0             	MOV	STK01, R0
007305   9837     MOV	R0, #0x37            	MOV	R0,# 0x37
                                           	BANKSEL	STK00
007306   5193     MOV	0x93, R0             	MOV	STK00, R0
007307   9803     MOV	R0, #0x3             	MOV	R0,# 0x03
007308   9f76     MOV	R7, #0x76            	TRAPPC1	_SPI_Write_2Byte
007309   5f73     MOV	0x73, R7             	TRAPPC2	_SPI_Write_2Byte
00730a   e076     MOVP	#0x76               	PAGESEL	_SPI_Write_2Byte
00730b   d610     CALL	#0x610              	CALL	_SPI_Write_2Byte
00730c   9f73     MOV	R7, #0x73            	TRAPPC1	$+2
00730d   5f73     MOV	0x73, R7             	TRAPPC2	$+1
00730e   e073     MOVP	#0x73               	PAGESEL	$
00730f   9820     MOV	R0, #0x20            	MOV	R0,# 0x20
007310   e100     MOVB	#0x00               	BANKSEL	STK01
007311   5192     MOV	0x92, R0             	MOV	STK01, R0
007312   9801     MOV	R0, #0x1             	MOV	R0,# 0x01
                                           	BANKSEL	STK00
007313   5193     MOV	0x93, R0             	MOV	STK00, R0
007314   9803     MOV	R0, #0x3             	MOV	R0,# 0x03
007315   9f76     MOV	R7, #0x76            	TRAPPC1	_SPI_Write_2Byte
007316   5f73     MOV	0x73, R7             	TRAPPC2	_SPI_Write_2Byte
007317   e076     MOVP	#0x76               	PAGESEL	_SPI_Write_2Byte
007318   d610     CALL	#0x610              	CALL	_SPI_Write_2Byte
007319   9f73     MOV	R7, #0x73            	TRAPPC1	$+2
00731a   5f73     MOV	0x73, R7             	TRAPPC2	$+1
00731b   e073     MOVP	#0x73               	PAGESEL	$
00731c   0008     CRET                     	CRET	
                                           func._Tail_Two_Init	.code
                                           _Tail_Two_Init	;Function start
00731d   9801     MOV	R0, #0x1             	MOV	R0,# 0x01
00731e   e100     MOVB	#0x00               	BANKSEL	STK01
00731f   5192     MOV	0x92, R0             	MOV	STK01, R0
007320   9800     MOV	R0, #0               	MOV	R0,# 0x00
                                           	BANKSEL	STK00
007321   5193     MOV	0x93, R0             	MOV	STK00, R0
007322   9802     MOV	R0, #0x2             	MOV	R0,# 0x02
007323   9f76     MOV	R7, #0x76            	TRAPPC1	_SPI_Write_2Byte
007324   5f73     MOV	0x73, R7             	TRAPPC2	_SPI_Write_2Byte
007325   e076     MOVP	#0x76               	PAGESEL	_SPI_Write_2Byte
007326   d610     CALL	#0x610              	CALL	_SPI_Write_2Byte
007327   9f73     MOV	R7, #0x73            	TRAPPC1	$+2
007328   5f73     MOV	0x73, R7             	TRAPPC2	$+1
007329   e073     MOVP	#0x73               	PAGESEL	$
00732a   9802     MOV	R0, #0x2             	MOV	R0,# 0x02
00732b   e100     MOVB	#0x00               	BANKSEL	r0x1018
00732c   51b4     MOV	0xb4, R0             	MOV	r0x1018, R0
                                           _00059_DS_
                                           	BANKSEL	r0x1018
00732d   0eb4     MOVZ	R0, 0xb4            	MOVZ	R0, r0x1018
00732e   8080     ADD	R0, #0x80            	ADD	R0,# 0x80
00732f   806c     ADD	R0, #0x6c            	ADD	R0,# 0x6c
007330   7003     JNB	0x3, 0               	JNB	PSW, 0
007331   c342     JMP	#0x342               	JMP	_00062_DS_
007332   98ff     MOV	R0, #0xff            	MOV	R0,# 0xff
                                           	BANKSEL	STK01
007333   5192     MOV	0x92, R0             	MOV	STK01, R0
                                           	BANKSEL	r0x1018
007334   0eb4     MOVZ	R0, 0xb4            	MOVZ	R0, r0x1018
                                           	BANKSEL	r0x1019
007335   51b5     MOV	0xb5, R0             	MOV	r0x1019, R0
                                           	BANKSEL	STK00
007336   5193     MOV	0x93, R0             	MOV	STK00, R0
007337   9802     MOV	R0, #0x2             	MOV	R0,# 0x02
007338   9f76     MOV	R7, #0x76            	TRAPPC1	_SPI_Write_2Byte
007339   5f73     MOV	0x73, R7             	TRAPPC2	_SPI_Write_2Byte
00733a   e076     MOVP	#0x76               	PAGESEL	_SPI_Write_2Byte
00733b   d610     CALL	#0x610              	CALL	_SPI_Write_2Byte
00733c   9f73     MOV	R7, #0x73            	TRAPPC1	$+2
00733d   5f73     MOV	0x73, R7             	TRAPPC2	$+1
00733e   e073     MOVP	#0x73               	PAGESEL	$
00733f   e100     MOVB	#0x00               	BANKSEL	r0x1018
007340   0bb4     INC	0xb4                 	INC	r0x1018
007341   c32d     JMP	#0x32d               	JMP	_00059_DS_
                                           _00062_DS_
007342   981f     MOV	R0, #0x1f            	MOV	R0,# 0x1f
                                           	BANKSEL	r0x1018
007343   51b4     MOV	0xb4, R0             	MOV	r0x1018, R0
                                           _00063_DS_
                                           	BANKSEL	r0x1018
007344   0eb4     MOVZ	R0, 0xb4            	MOVZ	R0, r0x1018
007345   8080     ADD	R0, #0x80            	ADD	R0,# 0x80
007346   804f     ADD	R0, #0x4f            	ADD	R0,# 0x4f
007347   7003     JNB	0x3, 0               	JNB	PSW, 0
007348   c359     JMP	#0x359               	JMP	_00066_DS_
007349   9800     MOV	R0, #0               	MOV	R0,# 0x00
                                           	BANKSEL	STK01
00734a   5192     MOV	0x92, R0             	MOV	STK01, R0
                                           	BANKSEL	r0x1018
00734b   0eb4     MOVZ	R0, 0xb4            	MOVZ	R0, r0x1018
                                           	BANKSEL	r0x1019
00734c   51b5     MOV	0xb5, R0             	MOV	r0x1019, R0
                                           	BANKSEL	STK00
00734d   5193     MOV	0x93, R0             	MOV	STK00, R0
00734e   9802     MOV	R0, #0x2             	MOV	R0,# 0x02
00734f   9f76     MOV	R7, #0x76            	TRAPPC1	_SPI_Write_2Byte
007350   5f73     MOV	0x73, R7             	TRAPPC2	_SPI_Write_2Byte
007351   e076     MOVP	#0x76               	PAGESEL	_SPI_Write_2Byte
007352   d610     CALL	#0x610              	CALL	_SPI_Write_2Byte
007353   9f73     MOV	R7, #0x73            	TRAPPC1	$+2
007354   5f73     MOV	0x73, R7             	TRAPPC2	$+1
007355   e073     MOVP	#0x73               	PAGESEL	$
007356   e100     MOVB	#0x00               	BANKSEL	r0x1018
007357   0bb4     INC	0xb4                 	INC	r0x1018
007358   c344     JMP	#0x344               	JMP	_00063_DS_
                                           _00066_DS_
007359   9800     MOV	R0, #0               	MOV	R0,# 0x00
                                           	BANKSEL	STK01
00735a   5192     MOV	0x92, R0             	MOV	STK01, R0
00735b   9836     MOV	R0, #0x36            	MOV	R0,# 0x36
                                           	BANKSEL	STK00
00735c   5193     MOV	0x93, R0             	MOV	STK00, R0
00735d   9802     MOV	R0, #0x2             	MOV	R0,# 0x02
00735e   9f76     MOV	R7, #0x76            	TRAPPC1	_SPI_Write_2Byte
00735f   5f73     MOV	0x73, R7             	TRAPPC2	_SPI_Write_2Byte
007360   e076     MOVP	#0x76               	PAGESEL	_SPI_Write_2Byte
007361   d610     CALL	#0x610              	CALL	_SPI_Write_2Byte
007362   9f73     MOV	R7, #0x73            	TRAPPC1	$+2
007363   5f73     MOV	0x73, R7             	TRAPPC2	$+1
007364   e073     MOVP	#0x73               	PAGESEL	$
007365   9800     MOV	R0, #0               	MOV	R0,# 0x00
007366   e100     MOVB	#0x00               	BANKSEL	STK01
007367   5192     MOV	0x92, R0             	MOV	STK01, R0
007368   9837     MOV	R0, #0x37            	MOV	R0,# 0x37
                                           	BANKSEL	STK00
007369   5193     MOV	0x93, R0             	MOV	STK00, R0
00736a   9802     MOV	R0, #0x2             	MOV	R0,# 0x02
00736b   9f76     MOV	R7, #0x76            	TRAPPC1	_SPI_Write_2Byte
00736c   5f73     MOV	0x73, R7             	TRAPPC2	_SPI_Write_2Byte
00736d   e076     MOVP	#0x76               	PAGESEL	_SPI_Write_2Byte
00736e   d610     CALL	#0x610              	CALL	_SPI_Write_2Byte
00736f   9f73     MOV	R7, #0x73            	TRAPPC1	$+2
007370   5f73     MOV	0x73, R7             	TRAPPC2	$+1
007371   e073     MOVP	#0x73               	PAGESEL	$
007372   9820     MOV	R0, #0x20            	MOV	R0,# 0x20
007373   e100     MOVB	#0x00               	BANKSEL	STK01
007374   5192     MOV	0x92, R0             	MOV	STK01, R0
007375   9801     MOV	R0, #0x1             	MOV	R0,# 0x01
                                           	BANKSEL	STK00
007376   5193     MOV	0x93, R0             	MOV	STK00, R0
007377   9802     MOV	R0, #0x2             	MOV	R0,# 0x02
007378   9f76     MOV	R7, #0x76            	TRAPPC1	_SPI_Write_2Byte
007379   5f73     MOV	0x73, R7             	TRAPPC2	_SPI_Write_2Byte
00737a   e076     MOVP	#0x76               	PAGESEL	_SPI_Write_2Byte
00737b   d610     CALL	#0x610              	CALL	_SPI_Write_2Byte
00737c   9f73     MOV	R7, #0x73            	TRAPPC1	$+2
00737d   5f73     MOV	0x73, R7             	TRAPPC2	$+1
00737e   e073     MOVP	#0x73               	PAGESEL	$
00737f   0008     CRET                     	CRET	
                                           func._Tail_One_Init	.code
                                           _Tail_One_Init	;Function start
007380   9801     MOV	R0, #0x1             	MOV	R0,# 0x01
007381   e100     MOVB	#0x00               	BANKSEL	STK01
007382   5192     MOV	0x92, R0             	MOV	STK01, R0
007383   9800     MOV	R0, #0               	MOV	R0,# 0x00
                                           	BANKSEL	STK00
007384   5193     MOV	0x93, R0             	MOV	STK00, R0
007385   9801     MOV	R0, #0x1             	MOV	R0,# 0x01
007386   9f76     MOV	R7, #0x76            	TRAPPC1	_SPI_Write_2Byte
007387   5f73     MOV	0x73, R7             	TRAPPC2	_SPI_Write_2Byte
007388   e076     MOVP	#0x76               	PAGESEL	_SPI_Write_2Byte
007389   d610     CALL	#0x610              	CALL	_SPI_Write_2Byte
00738a   9f73     MOV	R7, #0x73            	TRAPPC1	$+2
00738b   5f73     MOV	0x73, R7             	TRAPPC2	$+1
00738c   e073     MOVP	#0x73               	PAGESEL	$
00738d   9802     MOV	R0, #0x2             	MOV	R0,# 0x02
00738e   e100     MOVB	#0x00               	BANKSEL	r0x101A
00738f   51b2     MOV	0xb2, R0             	MOV	r0x101A, R0
                                           _00041_DS_
                                           	BANKSEL	r0x101A
007390   0eb2     MOVZ	R0, 0xb2            	MOVZ	R0, r0x101A
007391   8080     ADD	R0, #0x80            	ADD	R0,# 0x80
007392   806c     ADD	R0, #0x6c            	ADD	R0,# 0x6c
007393   7003     JNB	0x3, 0               	JNB	PSW, 0
007394   c3a5     JMP	#0x3a5               	JMP	_00044_DS_
007395   98ff     MOV	R0, #0xff            	MOV	R0,# 0xff
                                           	BANKSEL	STK01
007396   5192     MOV	0x92, R0             	MOV	STK01, R0
                                           	BANKSEL	r0x101A
007397   0eb2     MOVZ	R0, 0xb2            	MOVZ	R0, r0x101A
                                           	BANKSEL	r0x101B
007398   51b3     MOV	0xb3, R0             	MOV	r0x101B, R0
                                           	BANKSEL	STK00
007399   5193     MOV	0x93, R0             	MOV	STK00, R0
00739a   9801     MOV	R0, #0x1             	MOV	R0,# 0x01
00739b   9f76     MOV	R7, #0x76            	TRAPPC1	_SPI_Write_2Byte
00739c   5f73     MOV	0x73, R7             	TRAPPC2	_SPI_Write_2Byte
00739d   e076     MOVP	#0x76               	PAGESEL	_SPI_Write_2Byte
00739e   d610     CALL	#0x610              	CALL	_SPI_Write_2Byte
00739f   9f73     MOV	R7, #0x73            	TRAPPC1	$+2
0073a0   5f73     MOV	0x73, R7             	TRAPPC2	$+1
0073a1   e073     MOVP	#0x73               	PAGESEL	$
0073a2   e100     MOVB	#0x00               	BANKSEL	r0x101A
0073a3   0bb2     INC	0xb2                 	INC	r0x101A
0073a4   c390     JMP	#0x390               	JMP	_00041_DS_
                                           _00044_DS_
0073a5   981f     MOV	R0, #0x1f            	MOV	R0,# 0x1f
                                           	BANKSEL	r0x101A
0073a6   51b2     MOV	0xb2, R0             	MOV	r0x101A, R0
                                           _00045_DS_
                                           	BANKSEL	r0x101A
0073a7   0eb2     MOVZ	R0, 0xb2            	MOVZ	R0, r0x101A
0073a8   8080     ADD	R0, #0x80            	ADD	R0,# 0x80
0073a9   804f     ADD	R0, #0x4f            	ADD	R0,# 0x4f
0073aa   7003     JNB	0x3, 0               	JNB	PSW, 0
0073ab   c3bc     JMP	#0x3bc               	JMP	_00048_DS_
0073ac   9800     MOV	R0, #0               	MOV	R0,# 0x00
                                           	BANKSEL	STK01
0073ad   5192     MOV	0x92, R0             	MOV	STK01, R0
                                           	BANKSEL	r0x101A
0073ae   0eb2     MOVZ	R0, 0xb2            	MOVZ	R0, r0x101A
                                           	BANKSEL	r0x101B
0073af   51b3     MOV	0xb3, R0             	MOV	r0x101B, R0
                                           	BANKSEL	STK00
0073b0   5193     MOV	0x93, R0             	MOV	STK00, R0
0073b1   9801     MOV	R0, #0x1             	MOV	R0,# 0x01
0073b2   9f76     MOV	R7, #0x76            	TRAPPC1	_SPI_Write_2Byte
0073b3   5f73     MOV	0x73, R7             	TRAPPC2	_SPI_Write_2Byte
0073b4   e076     MOVP	#0x76               	PAGESEL	_SPI_Write_2Byte
0073b5   d610     CALL	#0x610              	CALL	_SPI_Write_2Byte
0073b6   9f73     MOV	R7, #0x73            	TRAPPC1	$+2
0073b7   5f73     MOV	0x73, R7             	TRAPPC2	$+1
0073b8   e073     MOVP	#0x73               	PAGESEL	$
0073b9   e100     MOVB	#0x00               	BANKSEL	r0x101A
0073ba   0bb2     INC	0xb2                 	INC	r0x101A
0073bb   c3a7     JMP	#0x3a7               	JMP	_00045_DS_
                                           _00048_DS_
0073bc   9800     MOV	R0, #0               	MOV	R0,# 0x00
                                           	BANKSEL	STK01
0073bd   5192     MOV	0x92, R0             	MOV	STK01, R0
0073be   9836     MOV	R0, #0x36            	MOV	R0,# 0x36
                                           	BANKSEL	STK00
0073bf   5193     MOV	0x93, R0             	MOV	STK00, R0
0073c0   9801     MOV	R0, #0x1             	MOV	R0,# 0x01
0073c1   9f76     MOV	R7, #0x76            	TRAPPC1	_SPI_Write_2Byte
0073c2   5f73     MOV	0x73, R7             	TRAPPC2	_SPI_Write_2Byte
0073c3   e076     MOVP	#0x76               	PAGESEL	_SPI_Write_2Byte
0073c4   d610     CALL	#0x610              	CALL	_SPI_Write_2Byte
0073c5   9f73     MOV	R7, #0x73            	TRAPPC1	$+2
0073c6   5f73     MOV	0x73, R7             	TRAPPC2	$+1
0073c7   e073     MOVP	#0x73               	PAGESEL	$
0073c8   9800     MOV	R0, #0               	MOV	R0,# 0x00
0073c9   e100     MOVB	#0x00               	BANKSEL	STK01
0073ca   5192     MOV	0x92, R0             	MOV	STK01, R0
0073cb   9837     MOV	R0, #0x37            	MOV	R0,# 0x37
                                           	BANKSEL	STK00
0073cc   5193     MOV	0x93, R0             	MOV	STK00, R0
0073cd   9801     MOV	R0, #0x1             	MOV	R0,# 0x01
0073ce   9f76     MOV	R7, #0x76            	TRAPPC1	_SPI_Write_2Byte
0073cf   5f73     MOV	0x73, R7             	TRAPPC2	_SPI_Write_2Byte
0073d0   e076     MOVP	#0x76               	PAGESEL	_SPI_Write_2Byte
0073d1   d610     CALL	#0x610              	CALL	_SPI_Write_2Byte
0073d2   9f73     MOV	R7, #0x73            	TRAPPC1	$+2
0073d3   5f73     MOV	0x73, R7             	TRAPPC2	$+1
0073d4   e073     MOVP	#0x73               	PAGESEL	$
0073d5   9820     MOV	R0, #0x20            	MOV	R0,# 0x20
0073d6   e100     MOVB	#0x00               	BANKSEL	STK01
0073d7   5192     MOV	0x92, R0             	MOV	STK01, R0
0073d8   9801     MOV	R0, #0x1             	MOV	R0,# 0x01
                                           	BANKSEL	STK00
0073d9   5193     MOV	0x93, R0             	MOV	STK00, R0
0073da   9801     MOV	R0, #0x1             	MOV	R0,# 0x01
0073db   9f76     MOV	R7, #0x76            	TRAPPC1	_SPI_Write_2Byte
0073dc   5f73     MOV	0x73, R7             	TRAPPC2	_SPI_Write_2Byte
0073dd   e076     MOVP	#0x76               	PAGESEL	_SPI_Write_2Byte
0073de   d610     CALL	#0x610              	CALL	_SPI_Write_2Byte
0073df   9f73     MOV	R7, #0x73            	TRAPPC1	$+2
0073e0   5f73     MOV	0x73, R7             	TRAPPC2	$+1
0073e1   e073     MOVP	#0x73               	PAGESEL	$
0073e2   0008     CRET                     	CRET	
                                           func._IS31FL3265B_Init	.code
                                           _IS31FL3265B_Init	;Function start
007692   9f77     MOV	R7, #0x77            	TRAPPC1	_spi_init
007693   5f73     MOV	0x73, R7             	TRAPPC2	_spi_init
007694   e077     MOVP	#0x77               	PAGESEL	_spi_init
007695   d720     CALL	#0x720              	CALL	_spi_init
007696   9f76     MOV	R7, #0x76            	TRAPPC1	$+2
007697   5f73     MOV	0x73, R7             	TRAPPC2	$+1
007698   e076     MOVP	#0x76               	PAGESEL	$
007699   9f73     MOV	R7, #0x73            	TRAPPC1	_Tail_One_Init
00769a   5f73     MOV	0x73, R7             	TRAPPC2	_Tail_One_Init
00769b   e073     MOVP	#0x73               	PAGESEL	_Tail_One_Init
00769c   d380     CALL	#0x380              	CALL	_Tail_One_Init
00769d   9f76     MOV	R7, #0x76            	TRAPPC1	$+2
00769e   5f73     MOV	0x73, R7             	TRAPPC2	$+1
00769f   e076     MOVP	#0x76               	PAGESEL	$
0076a0   9f73     MOV	R7, #0x73            	TRAPPC1	_Tail_Two_Init
0076a1   5f73     MOV	0x73, R7             	TRAPPC2	_Tail_Two_Init
0076a2   e073     MOVP	#0x73               	PAGESEL	_Tail_Two_Init
0076a3   d31d     CALL	#0x31d              	CALL	_Tail_Two_Init
0076a4   9f76     MOV	R7, #0x76            	TRAPPC1	$+2
0076a5   5f73     MOV	0x73, R7             	TRAPPC2	$+1
0076a6   e076     MOVP	#0x76               	PAGESEL	$
0076a7   9f72     MOV	R7, #0x72            	TRAPPC1	_Rt_One_Init
0076a8   5f73     MOV	0x73, R7             	TRAPPC2	_Rt_One_Init
0076a9   e072     MOVP	#0x72               	PAGESEL	_Rt_One_Init
0076aa   d2ba     CALL	#0x2ba              	CALL	_Rt_One_Init
0076ab   9f76     MOV	R7, #0x76            	TRAPPC1	$+2
0076ac   5f73     MOV	0x73, R7             	TRAPPC2	$+1
0076ad   e076     MOVP	#0x76               	PAGESEL	$
0076ae   9f72     MOV	R7, #0x72            	TRAPPC1	_Rt_Two_Init
0076af   5f73     MOV	0x73, R7             	TRAPPC2	_Rt_Two_Init
0076b0   e072     MOVP	#0x72               	PAGESEL	_Rt_Two_Init
0076b1   d257     CALL	#0x257              	CALL	_Rt_Two_Init
0076b2   9f76     MOV	R7, #0x76            	TRAPPC1	$+2
0076b3   5f73     MOV	0x73, R7             	TRAPPC2	$+1
0076b4   e076     MOVP	#0x76               	PAGESEL	$
0076b5   0008     CRET                     	CRET	
                                           func._SPI_Write_2Byte	.code
                                           _SPI_Write_2Byte	;Function start
007610   e100     MOVB	#0x00               	BANKSEL	r0x1005
007611   51b0     MOV	0xb0, R0             	MOV	r0x1005, R0
                                           	BANKSEL	r0x1006
007612   51b1     MOV	0xb1, R0             	MOV	r0x1006, R0
                                           	BANKSEL	STK00
007613   0e93     MOVZ	R0, 0x93            	MOVZ	R0, STK00
                                           	BANKSEL	_SPI_Write_2Byte_SPI_adr_1_1
007614   51ba     MOV	0xba, R0             	MOV	_SPI_Write_2Byte_SPI_adr_1_1, R0
                                           	BANKSEL	STK01
007615   0e92     MOVZ	R0, 0x92            	MOVZ	R0, STK01
                                           	BANKSEL	_SPI_Write_2Byte_SPI_data_1_1
007616   51bb     MOV	0xbb, R0             	MOV	_SPI_Write_2Byte_SPI_data_1_1, R0
                                           	BANKSEL	r0x1006
007617   0eb1     MOVZ	R0, 0xb1            	MOVZ	R0, r0x1006
007618   9f76     MOV	R7, #0x76            	TRAPPC1	_Spi_CS_Low
007619   5f73     MOV	0x73, R7             	TRAPPC2	_Spi_CS_Low
00761a   e076     MOVP	#0x76               	PAGESEL	_Spi_CS_Low
00761b   d6da     CALL	#0x6da              	CALL	_Spi_CS_Low
00761c   9f76     MOV	R7, #0x76            	TRAPPC1	$+2
00761d   5f73     MOV	0x73, R7             	TRAPPC2	$+1
00761e   e076     MOVP	#0x76               	PAGESEL	$
00761f   e100     MOVB	#0x00               	BANKSEL	_SPI_Write_2Byte_SPI_adr_1_1
007620   0eba     MOVZ	R0, 0xba            	MOVZ	R0, _SPI_Write_2Byte_SPI_adr_1_1
007621   e102     MOVB	#0x02               	BANKSEL	_SSCI2BUFR
007622   5107     MOV	0x7, R0              	MOV	_SSCI2BUFR, R0
                                           _00027_DS_
007623   e105     MOVB	#0x05               	BANKSEL	_EIF6_bits
007624   7c1c     JB	0x1c, 4               	JB	_EIF6_bits, 4
007625   c623     JMP	#0x623               	JMP	_00027_DS_
                                           	BANKSEL	_EIF6_bits
007626   641c     CLR	0x1c, 4              	CLR	_EIF6_bits, 4
007627   e102     MOVB	#0x02               	BANKSEL	_SSCI2BUFR
007628   0e07     MOVZ	R0, 0x7             	MOVZ	R0, _SSCI2BUFR
007629   e100     MOVB	#0x00               	BANKSEL	_SPI_Write_2Byte_buf_1_1
00762a   5194     MOV	0x94, R0             	MOV	_SPI_Write_2Byte_buf_1_1, R0
                                           	BANKSEL	_SPI_Write_2Byte_buf_1_1
00762b   0395     CLR	0x95                 	CLR	(_SPI_Write_2Byte_buf_1_1 + 1)
                                           	BANKSEL	_SPI_Write_2Byte_SPI_data_1_1
00762c   0ebb     MOVZ	R0, 0xbb            	MOVZ	R0, _SPI_Write_2Byte_SPI_data_1_1
00762d   e102     MOVB	#0x02               	BANKSEL	_SSCI2BUFR
00762e   5107     MOV	0x7, R0              	MOV	_SSCI2BUFR, R0
                                           _00030_DS_
00762f   e105     MOVB	#0x05               	BANKSEL	_EIF6_bits
007630   7c1c     JB	0x1c, 4               	JB	_EIF6_bits, 4
007631   c62f     JMP	#0x62f               	JMP	_00030_DS_
                                           	BANKSEL	_EIF6_bits
007632   641c     CLR	0x1c, 4              	CLR	_EIF6_bits, 4
007633   e102     MOVB	#0x02               	BANKSEL	_SSCI2BUFR
007634   0e07     MOVZ	R0, 0x7             	MOVZ	R0, _SSCI2BUFR
007635   e100     MOVB	#0x00               	BANKSEL	_SPI_Write_2Byte_buf_1_1
007636   5194     MOV	0x94, R0             	MOV	_SPI_Write_2Byte_buf_1_1, R0
                                           	BANKSEL	_SPI_Write_2Byte_buf_1_1
007637   0395     CLR	0x95                 	CLR	(_SPI_Write_2Byte_buf_1_1 + 1)
                                           	BANKSEL	r0x1005
007638   0eb0     MOVZ	R0, 0xb0            	MOVZ	R0, r0x1005
                                           	BANKSEL	r0x1006
007639   51b1     MOV	0xb1, R0             	MOV	r0x1006, R0
00763a   9f76     MOV	R7, #0x76            	TRAPPC1	_Spi_CS_High
00763b   5f73     MOV	0x73, R7             	TRAPPC2	_Spi_CS_High
00763c   e076     MOVP	#0x76               	PAGESEL	_Spi_CS_High
00763d   d6fd     CALL	#0x6fd              	CALL	_Spi_CS_High
00763e   9f76     MOV	R7, #0x76            	TRAPPC1	$+2
00763f   5f73     MOV	0x73, R7             	TRAPPC2	$+1
007640   e076     MOVP	#0x76               	PAGESEL	$
007641   0008     CRET                     	CRET	
                                           func._Spi_CS_Low	.code
                                           _Spi_CS_Low	;Function start
0076da   e100     MOVB	#0x00               	BANKSEL	r0x1004
0076db   51af     MOV	0xaf, R0             	MOV	r0x1004, R0
                                           	BANKSEL	r0x1004
0076dc   0eaf     MOVZ	R0, 0xaf            	MOVZ	R0, r0x1004
0076dd   8080     ADD	R0, #0x80            	ADD	R0,# 0x80
0076de   807f     ADD	R0, #0x7f            	ADD	R0,# 0x7f
0076df   7803     JB	0x3, 0                	JB	PSW, 0
0076e0   c6fc     JMP	#0x6fc               	JMP	_00020_DS_
                                           	BANKSEL	r0x1004
0076e1   0eaf     MOVZ	R0, 0xaf            	MOVZ	R0, r0x1004
0076e2   8080     ADD	R0, #0x80            	ADD	R0,# 0x80
0076e3   807b     ADD	R0, #0x7b            	ADD	R0,# 0x7b
0076e4   7003     JNB	0x3, 0               	JNB	PSW, 0
0076e5   c6fc     JMP	#0x6fc               	JMP	_00020_DS_
                                           	BANKSEL	r0x1004
0076e6   07af     DEC	0xaf                 	DEC	r0x1004
0076e7   9976     MOV	R1, #0x76            	MOV	R1,#high _00026_DS_
0076e8   98ef     MOV	R0, #0xef            	MOV	R0,#_00026_DS_
                                           	BANKSEL	r0x1004
0076e9   20af     ADD	R0, 0xaf             	ADD	R0, r0x1004
0076ea   7003     JNB	0x3, 0               	JNB	PSW, 0
0076eb   ff11     INC	R1                   	INC	R1
0076ec   5373     MOV	0x73, R1             	TRAPPC3	$
0076ed   530a     MOV	0xa, R1              	MOV	PCH, R1
0076ee   5102     MOV	0x2, R0              	MOV	PCL, R0
                                           _00026_DS_
0076ef   c6f3     JMP	#0x6f3               	JMP	_00015_DS_
0076f0   c6f5     JMP	#0x6f5               	JMP	_00016_DS_
0076f1   c6f8     JMP	#0x6f8               	JMP	_00017_DS_
0076f2   c6fb     JMP	#0x6fb               	JMP	_00018_DS_
                                           _00015_DS_
                                           	BANKSEL	_P0LR_bits
0076f3   6445     CLR	0x45, 4              	CLR	_P0LR_bits, 4
0076f4   c6fc     JMP	#0x6fc               	JMP	_00020_DS_
                                           _00016_DS_
0076f5   e101     MOVB	#0x01               	BANKSEL	_P6LR_bits
0076f6   6246     CLR	0x46, 2              	CLR	_P6LR_bits, 2
0076f7   c6fc     JMP	#0x6fc               	JMP	_00020_DS_
                                           _00017_DS_
0076f8   e104     MOVB	#0x04               	BANKSEL	_PALR_bits
0076f9   6125     CLR	0x25, 1              	CLR	_PALR_bits, 1
0076fa   c6fc     JMP	#0x6fc               	JMP	_00020_DS_
                                           _00018_DS_
                                           	BANKSEL	_P1LR_bits
0076fb   6047     CLR	0x47, 0              	CLR	_P1LR_bits, 0
                                           _00020_DS_
0076fc   0008     CRET                     	CRET	
                                           func._Spi_CS_High	.code
                                           _Spi_CS_High	;Function start
0076fd   e100     MOVB	#0x00               	BANKSEL	r0x1004
0076fe   51af     MOV	0xaf, R0             	MOV	r0x1004, R0
                                           	BANKSEL	r0x1004
0076ff   0eaf     MOVZ	R0, 0xaf            	MOVZ	R0, r0x1004
007700   8080     ADD	R0, #0x80            	ADD	R0,# 0x80
007701   807f     ADD	R0, #0x7f            	ADD	R0,# 0x7f
007702   7803     JB	0x3, 0                	JB	PSW, 0
007703   c71f     JMP	#0x71f               	JMP	_00008_DS_
                                           	BANKSEL	r0x1004
007704   0eaf     MOVZ	R0, 0xaf            	MOVZ	R0, r0x1004
007705   8080     ADD	R0, #0x80            	ADD	R0,# 0x80
007706   807b     ADD	R0, #0x7b            	ADD	R0,# 0x7b
007707   7003     JNB	0x3, 0               	JNB	PSW, 0
007708   c71f     JMP	#0x71f               	JMP	_00008_DS_
                                           	BANKSEL	r0x1004
007709   07af     DEC	0xaf                 	DEC	r0x1004
00770a   9977     MOV	R1, #0x77            	MOV	R1,#high _00014_DS_
00770b   9812     MOV	R0, #0x12            	MOV	R0,#_00014_DS_
                                           	BANKSEL	r0x1004
00770c   20af     ADD	R0, 0xaf             	ADD	R0, r0x1004
00770d   7003     JNB	0x3, 0               	JNB	PSW, 0
00770e   ff11     INC	R1                   	INC	R1
00770f   5373     MOV	0x73, R1             	TRAPPC3	$
007710   530a     MOV	0xa, R1              	MOV	PCH, R1
007711   5102     MOV	0x2, R0              	MOV	PCL, R0
                                           _00014_DS_
007712   c716     JMP	#0x716               	JMP	_00003_DS_
007713   c718     JMP	#0x718               	JMP	_00004_DS_
007714   c71b     JMP	#0x71b               	JMP	_00005_DS_
007715   c71e     JMP	#0x71e               	JMP	_00006_DS_
                                           _00003_DS_
                                           	BANKSEL	_P0LR_bits
007716   6c45     SET	0x45, 4              	SET	_P0LR_bits, 4
007717   c71f     JMP	#0x71f               	JMP	_00008_DS_
                                           _00004_DS_
007718   e101     MOVB	#0x01               	BANKSEL	_P6LR_bits
007719   6a46     SET	0x46, 2              	SET	_P6LR_bits, 2
00771a   c71f     JMP	#0x71f               	JMP	_00008_DS_
                                           _00005_DS_
00771b   e104     MOVB	#0x04               	BANKSEL	_PALR_bits
00771c   6925     SET	0x25, 1              	SET	_PALR_bits, 1
00771d   c71f     JMP	#0x71f               	JMP	_00008_DS_
                                           _00006_DS_
                                           	BANKSEL	_P1LR_bits
00771e   6847     SET	0x47, 0              	SET	_P1LR_bits, 0
                                           _00008_DS_
00771f   0008     CRET                     	CRET	
                                           func._spi_init	.code
                                           _spi_init	;Function start
007720   e101     MOVB	#0x01               	BANKSEL	_TR9_bits
007721   6a29     SET	0x29, 2              	SET	_TR9_bits, 2
                                           	BANKSEL	_TR9_bits
007722   6129     CLR	0x29, 1              	CLR	_TR9_bits, 1
007723   e100     MOVB	#0x00               	BANKSEL	_TR0_bits
007724   6325     CLR	0x25, 3              	CLR	_TR0_bits, 3
                                           	BANKSEL	_TR0_bits
007725   6425     CLR	0x25, 4              	CLR	_TR0_bits, 4
007726   e101     MOVB	#0x01               	BANKSEL	_TR6_bits
007727   6226     CLR	0x26, 2              	CLR	_TR6_bits, 2
007728   986e     MOV	R0, #0x6e            	MOV	R0,# 0x6e
007729   e104     MOVB	#0x04               	BANKSEL	_APFCTL9
00772a   5165     MOV	0x65, R0             	MOV	_APFCTL9, R0
00772b   e102     MOVB	#0x02               	BANKSEL	_SSCI2CTL0_bits
00772c   6506     CLR	0x6, 5               	CLR	_SSCI2CTL0_bits, 5
00772d   9801     MOV	R0, #0x1             	MOV	R0,# 0x01
                                           	BANKSEL	_SSCI2CTL0
00772e   5106     MOV	0x6, R0              	MOV	_SSCI2CTL0, R0
                                           	BANKSEL	_SSCI2CTL1
00772f   031f     CLR	0x1f                 	CLR	_SSCI2CTL1
                                           	BANKSEL	_SSCI2CTL2
007730   0309     CLR	0x9                  	CLR	_SSCI2CTL2
007731   9840     MOV	R0, #0x40            	MOV	R0,# 0x40
                                           	BANKSEL	_SSCI2STA
007732   5105     MOV	0x5, R0              	MOV	_SSCI2STA, R0
                                           	BANKSEL	_SSCI2CTL0_bits
007733   6d06     SET	0x6, 5               	SET	_SSCI2CTL0_bits, 5
007734   e100     MOVB	#0x00               	BANKSEL	_P1LR_bits
007735   6a47     SET	0x47, 2              	SET	_P1LR_bits, 2
007736   e101     MOVB	#0x01               	BANKSEL	_P5LR_bits
007737   6d45     SET	0x45, 5              	SET	_P5LR_bits, 5
007738   e100     MOVB	#0x00               	BANKSEL	_P0LR_bits
007739   6c45     SET	0x45, 4              	SET	_P0LR_bits, 4
00773a   e101     MOVB	#0x01               	BANKSEL	_P6LR_bits
00773b   6a46     SET	0x46, 2              	SET	_P6LR_bits, 2
00773c   e100     MOVB	#0x00               	BANKSEL	_P1LR_bits
00773d   6847     SET	0x47, 0              	SET	_P1LR_bits, 0
00773e   e104     MOVB	#0x04               	BANKSEL	_PALR_bits
00773f   6925     SET	0x25, 1              	SET	_PALR_bits, 1
007740   0008     CRET                     	CRET	
                                           	.end
                                           	.radix dec
                                           	.include "KF8A100GQS.inc"
                                           func._Timer10_Init	.code
                                           _Timer10_Init	;Function start
                                           	MOV	R0,# 0x96
                                           	BANKSEL	_T10CTL0
                                           	MOV	_T10CTL0, R0
                                           	BANKSEL	_T10CTL1
                                           	CLR	_T10CTL1
                                           	BANKSEL	_T10H
                                           	CLR	_T10H
                                           	BANKSEL	_T10L
                                           	CLR	_T10L
                                           	MOV	R0,# 0x01
                                           	BANKSEL	_PP5H
                                           	MOV	_PP5H, R0
                                           	MOV	R0,# 0x8f
                                           	BANKSEL	_PP5L
                                           	MOV	_PP5L, R0
                                           	BANKSEL	_T10CTL1_bits
                                           	SET	_T10CTL1_bits, 2
                                           	BANKSEL	_EIF8_bits
                                           	CLR	_EIF8_bits, 5
                                           	BANKSEL	_EIE8_bits
                                           	SET	_EIE8_bits, 5
                                           	CRET	
                                           func._Timer8_Init	.code
                                           _Timer8_Init	;Function start
                                           	MOV	R0,# 0x4a
                                           	BANKSEL	_T8CTL
                                           	MOV	_T8CTL, R0
                                           	MOV	R0,# 0x01
                                           	BANKSEL	_T8CTL1
                                           	MOV	_T8CTL1, R0
                                           	BANKSEL	_T8H
                                           	CLR	_T8H
                                           	BANKSEL	_T8L
                                           	CLR	_T8L
                                           	MOV	R0,# 0x01
                                           	BANKSEL	_PP3H
                                           	MOV	_PP3H, R0
                                           	MOV	R0,# 0x8f
                                           	BANKSEL	_PP3L
                                           	MOV	_PP3L, R0
                                           	BANKSEL	_EIF8_bits
                                           	CLR	_EIF8_bits, 3
                                           	BANKSEL	_EIE8_bits
                                           	SET	_EIE8_bits, 3
                                           	BANKSEL	_T8CTL_bits
                                           	SET	_T8CTL_bits, 2
                                           	CRET	
                                           func._Timer5_Init	.code
                                           _Timer5_Init	;Function start
                                           	MOV	R0,# 0x4a
                                           	BANKSEL	_T5CTL0
                                           	MOV	_T5CTL0, R0
                                           	MOV	R0,# 0x02
                                           	BANKSEL	_T5CTL1
                                           	MOV	_T5CTL1, R0
                                           	BANKSEL	_T5H
                                           	CLR	_T5H
                                           	BANKSEL	_T5L
                                           	CLR	_T5L
                                           	MOV	R0,# 0x01
                                           	BANKSEL	_PP70H
                                           	MOV	_PP70H, R0
                                           	MOV	R0,# 0x8f
                                           	BANKSEL	_PP70L
                                           	MOV	_PP70L, R0
                                           	BANKSEL	_T5CTL0_bits
                                           	SET	_T5CTL0_bits, 2
                                           	BANKSEL	_EIF5_bits
                                           	CLR	_EIF5_bits, 5
                                           	BANKSEL	_EIE5_bits
                                           	SET	_EIE5_bits, 5
                                           	CRET	
                                           func._Timer3_Init	.code
                                           _Timer3_Init	;Function start
                                           	MOV	R0,# 0xb0
                                           	BANKSEL	_T3CTL
                                           	MOV	_T3CTL, R0
                                           	BANKSEL	_T3H
                                           	CLR	_T3H
                                           	BANKSEL	_T3L
                                           	CLR	_T3L
                                           	MOV	R0,# 0x07
                                           	BANKSEL	_T3REH
                                           	MOV	_T3REH, R0
                                           	MOV	R0,# 0xcf
                                           	BANKSEL	_T3REL
                                           	MOV	_T3REL, R0
                                           	BANKSEL	_T3CTL_bits
                                           	SET	_T3CTL_bits, 0
                                           	BANKSEL	_EIF1_bits
                                           	CLR	_EIF1_bits, 7
                                           	BANKSEL	_EIE1_bits
                                           	SET	_EIE1_bits, 7
                                           	CRET	
                                           func._Timer2_Init	.code
                                           _Timer2_Init	;Function start
007741   9803     MOV	R0, #0x3             	MOV	R0,# 0x03
007742   e100     MOVB	#0x00               	BANKSEL	_T2CTL0
007743   5112     MOV	0x12, R0             	MOV	_T2CTL0, R0
007744   9802     MOV	R0, #0x2             	MOV	R0,# 0x02
                                           	BANKSEL	_T2CTL1
007745   5151     MOV	0x51, R0             	MOV	_T2CTL1, R0
                                           	BANKSEL	_T2H
007746   0341     CLR	0x41                 	CLR	_T2H
                                           	BANKSEL	_T2L
007747   0311     CLR	0x11                 	CLR	_T2L
007748   9803     MOV	R0, #0x3             	MOV	R0,# 0x03
                                           	BANKSEL	_PP60H
007749   5142     MOV	0x42, R0             	MOV	_PP60H, R0
00774a   98e8     MOV	R0, #0xe8            	MOV	R0,# 0xe8
                                           	BANKSEL	_PP60L
00774b   5152     MOV	0x52, R0             	MOV	_PP60L, R0
                                           	BANKSEL	_T2CTL0_bits
00774c   6a12     SET	0x12, 2              	SET	_T2CTL0_bits, 2
                                           	BANKSEL	_EIF1_bits
00774d   610c     CLR	0xc, 1               	CLR	_EIF1_bits, 1
                                           	BANKSEL	_EIE1_bits
00774e   692c     SET	0x2c, 1              	SET	_EIE1_bits, 1
00774f   0008     CRET                     	CRET	
                                           func._Timer1_Init	.code
                                           _Timer1_Init	;Function start
007750   e101     MOVB	#0x01               	BANKSEL	_T1CTL2
007751   0318     CLR	0x18                 	CLR	_T1CTL2
007752   98f1     MOV	R0, #0xf1            	MOV	R0,# 0xf1
007753   e100     MOVB	#0x00               	BANKSEL	_T1H
007754   510f     MOV	0xf, R0              	MOV	_T1H, R0
007755   98a9     MOV	R0, #0xa9            	MOV	R0,# 0xa9
                                           	BANKSEL	_T1L
007756   510e     MOV	0xe, R0              	MOV	_T1L, R0
007757   9801     MOV	R0, #0x1             	MOV	R0,# 0x01
                                           	BANKSEL	_T1CTL
007758   5110     MOV	0x10, R0             	MOV	_T1CTL, R0
                                           	BANKSEL	_EIF1_bits
007759   600c     CLR	0xc, 0               	CLR	_EIF1_bits, 0
                                           	BANKSEL	_EIE1_bits
00775a   682c     SET	0x2c, 0              	SET	_EIE1_bits, 0
00775b   0008     CRET                     	CRET	
                                           func._Timer0_Init	.code
                                           _Timer0_Init	;Function start
00775c   0064     CWDT                     	CWDT 
00775d   9803     MOV	R0, #0x3             	MOV	R0,# 0x03
00775e   e100     MOVB	#0x00               	BANKSEL	_OPTR
00775f   5121     MOV	0x21, R0             	MOV	_OPTR, R0
                                           	BANKSEL	_T0CTL
007760   034f     CLR	0x4f                 	CLR	_T0CTL
                                           	BANKSEL	_T0
007761   0301     CLR	0x1                  	CLR	_T0
                                           	BANKSEL	_INTCTL_bits
007762   620b     CLR	0xb, 2               	CLR	_INTCTL_bits, 2
                                           	BANKSEL	_INTCTL_bits
007763   6d0b     SET	0xb, 5               	SET	_INTCTL_bits, 5
007764   0008     CRET                     	CRET	
                                           	.end
                                           	.radix dec
                                           	.include "KF8A100GQS.inc"
                                           ID_Work_0	.idata
                                           _PastMode
                                           	.db	0x00, 0x00
                                           ID_Work_1	.idata
                                           _NowMode
                                           	.db	0x00, 0x00
                                           ID_Work_2	.idata
                                           _ActMode
                                           	.db	0x00, 0x00
                                           ID_Work_3	.idata
                                           _RT_PastMode
                                           	.db	0x00, 0x00
                                           ID_Work_4	.idata
                                           _RT_NowMode
                                           	.db	0x00, 0x00
                                           ID_Work_5	.idata
                                           _RT_ActMode
                                           	.db	0x00, 0x00
                                           func._Mode_Act	.code
                                           _Mode_Act	;Function start
0073e3   e100     MOVB	#0x00               	BANKSEL	_ActMode
0073e4   0e9e     MOVZ	R0, 0x9e            	MOVZ	R0, _ActMode
0073e5   a801     XOR	R0, #0x1             	XOR	R0,# 0x01
0073e6   7a03     JB	0x3, 2                	JB	PSW, 2
0073e7   c3ed     JMP	#0x3ed               	JMP	_00118_DS_
                                           	BANKSEL	_ActMode
0073e8   0e9f     MOVZ	R0, 0x9f            	MOVZ	R0, (_ActMode + 1)
0073e9   a800     XOR	R0, #0               	XOR	R0,# 0x00
0073ea   7a03     JB	0x3, 2                	JB	PSW, 2
0073eb   c3ed     JMP	#0x3ed               	JMP	_00118_DS_
0073ec   c409     JMP	#0x409               	JMP	_00106_DS_
                                           _00118_DS_
                                           	BANKSEL	_ActMode
0073ed   0e9e     MOVZ	R0, 0x9e            	MOVZ	R0, _ActMode
0073ee   a802     XOR	R0, #0x2             	XOR	R0,# 0x02
0073ef   7a03     JB	0x3, 2                	JB	PSW, 2
0073f0   c3f6     JMP	#0x3f6               	JMP	_00119_DS_
                                           	BANKSEL	_ActMode
0073f1   0e9f     MOVZ	R0, 0x9f            	MOVZ	R0, (_ActMode + 1)
0073f2   a800     XOR	R0, #0               	XOR	R0,# 0x00
0073f3   7a03     JB	0x3, 2                	JB	PSW, 2
0073f4   c3f6     JMP	#0x3f6               	JMP	_00119_DS_
0073f5   c418     JMP	#0x418               	JMP	_00107_DS_
                                           _00119_DS_
                                           	BANKSEL	_ActMode
0073f6   0e9e     MOVZ	R0, 0x9e            	MOVZ	R0, _ActMode
0073f7   a804     XOR	R0, #0x4             	XOR	R0,# 0x04
0073f8   7a03     JB	0x3, 2                	JB	PSW, 2
0073f9   c3ff     JMP	#0x3ff               	JMP	_00120_DS_
                                           	BANKSEL	_ActMode
0073fa   0e9f     MOVZ	R0, 0x9f            	MOVZ	R0, (_ActMode + 1)
0073fb   a800     XOR	R0, #0               	XOR	R0,# 0x00
0073fc   7a03     JB	0x3, 2                	JB	PSW, 2
0073fd   c3ff     JMP	#0x3ff               	JMP	_00120_DS_
0073fe   c427     JMP	#0x427               	JMP	_00108_DS_
                                           _00120_DS_
                                           	BANKSEL	_ActMode
0073ff   0e9e     MOVZ	R0, 0x9e            	MOVZ	R0, _ActMode
007400   a808     XOR	R0, #0x8             	XOR	R0,# 0x08
007401   7a03     JB	0x3, 2                	JB	PSW, 2
007402   c408     JMP	#0x408               	JMP	_00121_DS_
                                           	BANKSEL	_ActMode
007403   0e9f     MOVZ	R0, 0x9f            	MOVZ	R0, (_ActMode + 1)
007404   a800     XOR	R0, #0               	XOR	R0,# 0x00
007405   7a03     JB	0x3, 2                	JB	PSW, 2
007406   c408     JMP	#0x408               	JMP	_00121_DS_
007407   c436     JMP	#0x436               	JMP	_00109_DS_
                                           _00121_DS_
007408   c444     JMP	#0x444               	JMP	_00112_DS_
                                           _00106_DS_
007409   9f74     MOV	R7, #0x74            	TRAPPC1	_Led_Tail_AllClose
00740a   5f73     MOV	0x73, R7             	TRAPPC2	_Led_Tail_AllClose
00740b   e074     MOVP	#0x74               	PAGESEL	_Led_Tail_AllClose
00740c   d445     CALL	#0x445              	CALL	_Led_Tail_AllClose
00740d   9f74     MOV	R7, #0x74            	TRAPPC1	$+2
00740e   5f73     MOV	0x73, R7             	TRAPPC2	$+1
00740f   e074     MOVP	#0x74               	PAGESEL	$
007410   9f77     MOV	R7, #0x77            	TRAPPC1	_LED_Stop_AllClose
007411   5f73     MOV	0x73, R7             	TRAPPC2	_LED_Stop_AllClose
007412   e077     MOVP	#0x77               	PAGESEL	_LED_Stop_AllClose
007413   d77d     CALL	#0x77d              	CALL	_LED_Stop_AllClose
007414   9f74     MOV	R7, #0x74            	TRAPPC1	$+2
007415   5f73     MOV	0x73, R7             	TRAPPC2	$+1
007416   e074     MOVP	#0x74               	PAGESEL	$
007417   c444     JMP	#0x444               	JMP	_00112_DS_
                                           _00107_DS_
007418   9f74     MOV	R7, #0x74            	TRAPPC1	_Led_Tail_AllOpen
007419   5f73     MOV	0x73, R7             	TRAPPC2	_Led_Tail_AllOpen
00741a   e074     MOVP	#0x74               	PAGESEL	_Led_Tail_AllOpen
00741b   d48b     CALL	#0x48b              	CALL	_Led_Tail_AllOpen
00741c   9f74     MOV	R7, #0x74            	TRAPPC1	$+2
00741d   5f73     MOV	0x73, R7             	TRAPPC2	$+1
00741e   e074     MOVP	#0x74               	PAGESEL	$
00741f   9f77     MOV	R7, #0x77            	TRAPPC1	_LED_Stop_PWMOpen
007420   5f73     MOV	0x73, R7             	TRAPPC2	_LED_Stop_PWMOpen
007421   e077     MOVP	#0x77               	PAGESEL	_LED_Stop_PWMOpen
007422   d765     CALL	#0x765              	CALL	_LED_Stop_PWMOpen
007423   9f74     MOV	R7, #0x74            	TRAPPC1	$+2
007424   5f73     MOV	0x73, R7             	TRAPPC2	$+1
007425   e074     MOVP	#0x74               	PAGESEL	$
007426   c444     JMP	#0x444               	JMP	_00112_DS_
                                           _00108_DS_
007427   9f74     MOV	R7, #0x74            	TRAPPC1	_Led_Tail_AllClose
007428   5f73     MOV	0x73, R7             	TRAPPC2	_Led_Tail_AllClose
007429   e074     MOVP	#0x74               	PAGESEL	_Led_Tail_AllClose
00742a   d445     CALL	#0x445              	CALL	_Led_Tail_AllClose
00742b   9f74     MOV	R7, #0x74            	TRAPPC1	$+2
00742c   5f73     MOV	0x73, R7             	TRAPPC2	$+1
00742d   e074     MOVP	#0x74               	PAGESEL	$
00742e   9f77     MOV	R7, #0x77            	TRAPPC1	_LED_Stop_AllOpen
00742f   5f73     MOV	0x73, R7             	TRAPPC2	_LED_Stop_AllOpen
007430   e077     MOVP	#0x77               	PAGESEL	_LED_Stop_AllOpen
007431   d784     CALL	#0x784              	CALL	_LED_Stop_AllOpen
007432   9f74     MOV	R7, #0x74            	TRAPPC1	$+2
007433   5f73     MOV	0x73, R7             	TRAPPC2	$+1
007434   e074     MOVP	#0x74               	PAGESEL	$
007435   c444     JMP	#0x444               	JMP	_00112_DS_
                                           _00109_DS_
007436   9f74     MOV	R7, #0x74            	TRAPPC1	_Led_Tail_AllOpen
007437   5f73     MOV	0x73, R7             	TRAPPC2	_Led_Tail_AllOpen
007438   e074     MOVP	#0x74               	PAGESEL	_Led_Tail_AllOpen
007439   d48b     CALL	#0x48b              	CALL	_Led_Tail_AllOpen
00743a   9f74     MOV	R7, #0x74            	TRAPPC1	$+2
00743b   5f73     MOV	0x73, R7             	TRAPPC2	$+1
00743c   e074     MOVP	#0x74               	PAGESEL	$
00743d   9f77     MOV	R7, #0x77            	TRAPPC1	_LED_Stop_AllOpen
00743e   5f73     MOV	0x73, R7             	TRAPPC2	_LED_Stop_AllOpen
00743f   e077     MOVP	#0x77               	PAGESEL	_LED_Stop_AllOpen
007440   d784     CALL	#0x784              	CALL	_LED_Stop_AllOpen
007441   9f74     MOV	R7, #0x74            	TRAPPC1	$+2
007442   5f73     MOV	0x73, R7             	TRAPPC2	$+1
007443   e074     MOVP	#0x74               	PAGESEL	$
                                           _00112_DS_
007444   0008     CRET                     	CRET	
                                           func._Tail_Stop_Check_Input	.code
                                           _Tail_Stop_Check_Input	;Function start
007157   9806     MOV	R0, #0x6             	MOV	R0,# 0x06
007158   e101     MOVB	#0x01               	BANKSEL	_TR7
007159   5127     MOV	0x27, R0             	MOV	_TR7, R0
                                           	BANKSEL	_ANS7
00715a   034c     CLR	0x4c                 	CLR	_ANS7
                                           	BANKSEL	_P7LR
00715b   0347     CLR	0x47                 	CLR	_P7LR
00715c   e102     MOVB	#0x02               	BANKSEL	_PUR7
00715d   0347     CLR	0x47                 	CLR	_PUR7
00715e   e100     MOVB	#0x00               	BANKSEL	r0x1012
00715f   03c2     CLR	0xc2                 	CLR	r0x1012
007160   e101     MOVB	#0x01               	BANKSEL	_P7_bits
007161   7907     JB	0x7, 1                	JB	_P7_bits, 1
007162   c165     JMP	#0x165               	JMP	_00122_DS_
007163   e100     MOVB	#0x00               	BANKSEL	r0x1012
007164   0bc2     INC	0xc2                 	INC	r0x1012
                                           _00122_DS_
007165   e100     MOVB	#0x00               	BANKSEL	r0x1013
007166   03c3     CLR	0xc3                 	CLR	r0x1013
007167   e101     MOVB	#0x01               	BANKSEL	_P7_bits
007168   7a07     JB	0x7, 2                	JB	_P7_bits, 2
007169   c16c     JMP	#0x16c               	JMP	_00123_DS_
00716a   e100     MOVB	#0x00               	BANKSEL	r0x1013
00716b   0bc3     INC	0xc3                 	INC	r0x1013
                                           _00123_DS_
00716c   9800     MOV	R0, #0               	MOV	R0,# 0x00
00716d   e100     MOVB	#0x00               	BANKSEL	r0x1012
00716e   30c2     ORL	R0, 0xc2             	ORL	R0, r0x1012
00716f   7a03     JB	0x3, 2                	JB	PSW, 2
007170   c18a     JMP	#0x18a               	JMP	_00072_DS_
007171   9800     MOV	R0, #0               	MOV	R0,# 0x00
                                           	BANKSEL	r0x1013
007172   30c3     ORL	R0, 0xc3             	ORL	R0, r0x1013
007173   7a03     JB	0x3, 2                	JB	PSW, 2
007174   c18a     JMP	#0x18a               	JMP	_00072_DS_
                                           	BANKSEL	_NowMode
007175   0e9c     MOVZ	R0, 0x9c            	MOVZ	R0, _NowMode
                                           	BANKSEL	_PastMode
007176   519a     MOV	0x9a, R0             	MOV	_PastMode, R0
                                           	BANKSEL	_NowMode
007177   0e9d     MOVZ	R0, 0x9d            	MOVZ	R0, (_NowMode + 1)
                                           	BANKSEL	_PastMode
007178   519b     MOV	0x9b, R0             	MOV	(_PastMode + 1), R0
007179   9801     MOV	R0, #0x1             	MOV	R0,# 0x01
                                           	BANKSEL	_NowMode
00717a   519c     MOV	0x9c, R0             	MOV	_NowMode, R0
                                           	BANKSEL	_NowMode
00717b   039d     CLR	0x9d                 	CLR	(_NowMode + 1)
                                           	BANKSEL	_PastMode
00717c   0e9a     MOVZ	R0, 0x9a            	MOVZ	R0, _PastMode
00717d   a801     XOR	R0, #0x1             	XOR	R0,# 0x01
00717e   7a03     JB	0x3, 2                	JB	PSW, 2
00717f   c187     JMP	#0x187               	JMP	_00069_DS_
                                           	BANKSEL	_PastMode
007180   0e9b     MOVZ	R0, 0x9b            	MOVZ	R0, (_PastMode + 1)
007181   a800     XOR	R0, #0               	XOR	R0,# 0x00
007182   7a03     JB	0x3, 2                	JB	PSW, 2
007183   c187     JMP	#0x187               	JMP	_00069_DS_
                                           	BANKSEL	_ActMode
007184   039e     CLR	0x9e                 	CLR	_ActMode
                                           	BANKSEL	_ActMode
007185   039f     CLR	0x9f                 	CLR	(_ActMode + 1)
007186   c18a     JMP	#0x18a               	JMP	_00072_DS_
                                           _00069_DS_
007187   9801     MOV	R0, #0x1             	MOV	R0,# 0x01
                                           	BANKSEL	_ActMode
007188   519e     MOV	0x9e, R0             	MOV	_ActMode, R0
                                           	BANKSEL	_ActMode
007189   039f     CLR	0x9f                 	CLR	(_ActMode + 1)
                                           _00072_DS_
                                           	BANKSEL	r0x1012
00718a   0ec2     MOVZ	R0, 0xc2            	MOVZ	R0, r0x1012
00718b   a801     XOR	R0, #0x1             	XOR	R0,# 0x01
00718c   7a03     JB	0x3, 2                	JB	PSW, 2
00718d   c1a7     JMP	#0x1a7               	JMP	_00078_DS_
00718e   9800     MOV	R0, #0               	MOV	R0,# 0x00
                                           	BANKSEL	r0x1013
00718f   30c3     ORL	R0, 0xc3             	ORL	R0, r0x1013
007190   7a03     JB	0x3, 2                	JB	PSW, 2
007191   c1a7     JMP	#0x1a7               	JMP	_00078_DS_
                                           	BANKSEL	_NowMode
007192   0e9c     MOVZ	R0, 0x9c            	MOVZ	R0, _NowMode
                                           	BANKSEL	_PastMode
007193   519a     MOV	0x9a, R0             	MOV	_PastMode, R0
                                           	BANKSEL	_NowMode
007194   0e9d     MOVZ	R0, 0x9d            	MOVZ	R0, (_NowMode + 1)
                                           	BANKSEL	_PastMode
007195   519b     MOV	0x9b, R0             	MOV	(_PastMode + 1), R0
007196   9802     MOV	R0, #0x2             	MOV	R0,# 0x02
                                           	BANKSEL	_NowMode
007197   519c     MOV	0x9c, R0             	MOV	_NowMode, R0
                                           	BANKSEL	_NowMode
007198   039d     CLR	0x9d                 	CLR	(_NowMode + 1)
                                           	BANKSEL	_PastMode
007199   0e9a     MOVZ	R0, 0x9a            	MOVZ	R0, _PastMode
00719a   a802     XOR	R0, #0x2             	XOR	R0,# 0x02
00719b   7a03     JB	0x3, 2                	JB	PSW, 2
00719c   c1a4     JMP	#0x1a4               	JMP	_00075_DS_
                                           	BANKSEL	_PastMode
00719d   0e9b     MOVZ	R0, 0x9b            	MOVZ	R0, (_PastMode + 1)
00719e   a800     XOR	R0, #0               	XOR	R0,# 0x00
00719f   7a03     JB	0x3, 2                	JB	PSW, 2
0071a0   c1a4     JMP	#0x1a4               	JMP	_00075_DS_
                                           	BANKSEL	_ActMode
0071a1   039e     CLR	0x9e                 	CLR	_ActMode
                                           	BANKSEL	_ActMode
0071a2   039f     CLR	0x9f                 	CLR	(_ActMode + 1)
0071a3   c1a7     JMP	#0x1a7               	JMP	_00078_DS_
                                           _00075_DS_
0071a4   9802     MOV	R0, #0x2             	MOV	R0,# 0x02
                                           	BANKSEL	_ActMode
0071a5   519e     MOV	0x9e, R0             	MOV	_ActMode, R0
                                           	BANKSEL	_ActMode
0071a6   039f     CLR	0x9f                 	CLR	(_ActMode + 1)
                                           _00078_DS_
0071a7   9800     MOV	R0, #0               	MOV	R0,# 0x00
                                           	BANKSEL	r0x1012
0071a8   30c2     ORL	R0, 0xc2             	ORL	R0, r0x1012
0071a9   7a03     JB	0x3, 2                	JB	PSW, 2
0071aa   c1c4     JMP	#0x1c4               	JMP	_00084_DS_
                                           	BANKSEL	r0x1013
0071ab   0ec3     MOVZ	R0, 0xc3            	MOVZ	R0, r0x1013
0071ac   a801     XOR	R0, #0x1             	XOR	R0,# 0x01
0071ad   7a03     JB	0x3, 2                	JB	PSW, 2
0071ae   c1c4     JMP	#0x1c4               	JMP	_00084_DS_
                                           	BANKSEL	_NowMode
0071af   0e9c     MOVZ	R0, 0x9c            	MOVZ	R0, _NowMode
                                           	BANKSEL	_PastMode
0071b0   519a     MOV	0x9a, R0             	MOV	_PastMode, R0
                                           	BANKSEL	_NowMode
0071b1   0e9d     MOVZ	R0, 0x9d            	MOVZ	R0, (_NowMode + 1)
                                           	BANKSEL	_PastMode
0071b2   519b     MOV	0x9b, R0             	MOV	(_PastMode + 1), R0
0071b3   9804     MOV	R0, #0x4             	MOV	R0,# 0x04
                                           	BANKSEL	_NowMode
0071b4   519c     MOV	0x9c, R0             	MOV	_NowMode, R0
                                           	BANKSEL	_NowMode
0071b5   039d     CLR	0x9d                 	CLR	(_NowMode + 1)
                                           	BANKSEL	_PastMode
0071b6   0e9a     MOVZ	R0, 0x9a            	MOVZ	R0, _PastMode
0071b7   a804     XOR	R0, #0x4             	XOR	R0,# 0x04
0071b8   7a03     JB	0x3, 2                	JB	PSW, 2
0071b9   c1c1     JMP	#0x1c1               	JMP	_00081_DS_
                                           	BANKSEL	_PastMode
0071ba   0e9b     MOVZ	R0, 0x9b            	MOVZ	R0, (_PastMode + 1)
0071bb   a800     XOR	R0, #0               	XOR	R0,# 0x00
0071bc   7a03     JB	0x3, 2                	JB	PSW, 2
0071bd   c1c1     JMP	#0x1c1               	JMP	_00081_DS_
                                           	BANKSEL	_ActMode
0071be   039e     CLR	0x9e                 	CLR	_ActMode
                                           	BANKSEL	_ActMode
0071bf   039f     CLR	0x9f                 	CLR	(_ActMode + 1)
0071c0   c1c4     JMP	#0x1c4               	JMP	_00084_DS_
                                           _00081_DS_
0071c1   9804     MOV	R0, #0x4             	MOV	R0,# 0x04
                                           	BANKSEL	_ActMode
0071c2   519e     MOV	0x9e, R0             	MOV	_ActMode, R0
                                           	BANKSEL	_ActMode
0071c3   039f     CLR	0x9f                 	CLR	(_ActMode + 1)
                                           _00084_DS_
                                           	BANKSEL	r0x1012
0071c4   0ec2     MOVZ	R0, 0xc2            	MOVZ	R0, r0x1012
0071c5   a801     XOR	R0, #0x1             	XOR	R0,# 0x01
0071c6   7a03     JB	0x3, 2                	JB	PSW, 2
0071c7   c1e1     JMP	#0x1e1               	JMP	_00090_DS_
                                           	BANKSEL	r0x1013
0071c8   0ec3     MOVZ	R0, 0xc3            	MOVZ	R0, r0x1013
0071c9   a801     XOR	R0, #0x1             	XOR	R0,# 0x01
0071ca   7a03     JB	0x3, 2                	JB	PSW, 2
0071cb   c1e1     JMP	#0x1e1               	JMP	_00090_DS_
                                           	BANKSEL	_NowMode
0071cc   0e9c     MOVZ	R0, 0x9c            	MOVZ	R0, _NowMode
                                           	BANKSEL	_PastMode
0071cd   519a     MOV	0x9a, R0             	MOV	_PastMode, R0
                                           	BANKSEL	_NowMode
0071ce   0e9d     MOVZ	R0, 0x9d            	MOVZ	R0, (_NowMode + 1)
                                           	BANKSEL	_PastMode
0071cf   519b     MOV	0x9b, R0             	MOV	(_PastMode + 1), R0
0071d0   9808     MOV	R0, #0x8             	MOV	R0,# 0x08
                                           	BANKSEL	_NowMode
0071d1   519c     MOV	0x9c, R0             	MOV	_NowMode, R0
                                           	BANKSEL	_NowMode
0071d2   039d     CLR	0x9d                 	CLR	(_NowMode + 1)
                                           	BANKSEL	_PastMode
0071d3   0e9a     MOVZ	R0, 0x9a            	MOVZ	R0, _PastMode
0071d4   a808     XOR	R0, #0x8             	XOR	R0,# 0x08
0071d5   7a03     JB	0x3, 2                	JB	PSW, 2
0071d6   c1de     JMP	#0x1de               	JMP	_00087_DS_
                                           	BANKSEL	_PastMode
0071d7   0e9b     MOVZ	R0, 0x9b            	MOVZ	R0, (_PastMode + 1)
0071d8   a800     XOR	R0, #0               	XOR	R0,# 0x00
0071d9   7a03     JB	0x3, 2                	JB	PSW, 2
0071da   c1de     JMP	#0x1de               	JMP	_00087_DS_
                                           	BANKSEL	_ActMode
0071db   039e     CLR	0x9e                 	CLR	_ActMode
                                           	BANKSEL	_ActMode
0071dc   039f     CLR	0x9f                 	CLR	(_ActMode + 1)
0071dd   c1e1     JMP	#0x1e1               	JMP	_00090_DS_
                                           _00087_DS_
0071de   9808     MOV	R0, #0x8             	MOV	R0,# 0x08
                                           	BANKSEL	_ActMode
0071df   519e     MOV	0x9e, R0             	MOV	_ActMode, R0
                                           	BANKSEL	_ActMode
0071e0   039f     CLR	0x9f                 	CLR	(_ActMode + 1)
                                           _00090_DS_
0071e1   9f73     MOV	R7, #0x73            	TRAPPC1	_Mode_Act
0071e2   5f73     MOV	0x73, R7             	TRAPPC2	_Mode_Act
0071e3   e073     MOVP	#0x73               	PAGESEL	_Mode_Act
0071e4   d3e3     CALL	#0x3e3              	CALL	_Mode_Act
0071e5   9f71     MOV	R7, #0x71            	TRAPPC1	$+2
0071e6   5f73     MOV	0x73, R7             	TRAPPC2	$+1
0071e7   e071     MOVP	#0x71               	PAGESEL	$
0071e8   0008     CRET                     	CRET	
                                           func._RT_Mode_Act	.code
                                           _RT_Mode_Act	;Function start
0075db   e100     MOVB	#0x00               	BANKSEL	_RT_ActMode
0075dc   0ea4     MOVZ	R0, 0xa4            	MOVZ	R0, _RT_ActMode
0075dd   a801     XOR	R0, #0x1             	XOR	R0,# 0x01
0075de   7a03     JB	0x3, 2                	JB	PSW, 2
0075df   c5e5     JMP	#0x5e5               	JMP	_00065_DS_
                                           	BANKSEL	_RT_ActMode
0075e0   0ea5     MOVZ	R0, 0xa5            	MOVZ	R0, (_RT_ActMode + 1)
0075e1   a800     XOR	R0, #0               	XOR	R0,# 0x00
0075e2   7a03     JB	0x3, 2                	JB	PSW, 2
0075e3   c5e5     JMP	#0x5e5               	JMP	_00065_DS_
0075e4   c5f8     JMP	#0x5f8               	JMP	_00055_DS_
                                           _00065_DS_
                                           	BANKSEL	_RT_ActMode
0075e5   0ea4     MOVZ	R0, 0xa4            	MOVZ	R0, _RT_ActMode
0075e6   a802     XOR	R0, #0x2             	XOR	R0,# 0x02
0075e7   7a03     JB	0x3, 2                	JB	PSW, 2
0075e8   c5ee     JMP	#0x5ee               	JMP	_00066_DS_
                                           	BANKSEL	_RT_ActMode
0075e9   0ea5     MOVZ	R0, 0xa5            	MOVZ	R0, (_RT_ActMode + 1)
0075ea   a800     XOR	R0, #0               	XOR	R0,# 0x00
0075eb   7a03     JB	0x3, 2                	JB	PSW, 2
0075ec   c5ee     JMP	#0x5ee               	JMP	_00066_DS_
0075ed   c600     JMP	#0x600               	JMP	_00056_DS_
                                           _00066_DS_
                                           	BANKSEL	_RT_ActMode
0075ee   0ea4     MOVZ	R0, 0xa4            	MOVZ	R0, _RT_ActMode
0075ef   a804     XOR	R0, #0x4             	XOR	R0,# 0x04
0075f0   7a03     JB	0x3, 2                	JB	PSW, 2
0075f1   c5f7     JMP	#0x5f7               	JMP	_00067_DS_
                                           	BANKSEL	_RT_ActMode
0075f2   0ea5     MOVZ	R0, 0xa5            	MOVZ	R0, (_RT_ActMode + 1)
0075f3   a800     XOR	R0, #0               	XOR	R0,# 0x00
0075f4   7a03     JB	0x3, 2                	JB	PSW, 2
0075f5   c5f7     JMP	#0x5f7               	JMP	_00067_DS_
0075f6   c608     JMP	#0x608               	JMP	_00057_DS_
                                           _00067_DS_
0075f7   c60f     JMP	#0x60f               	JMP	_00060_DS_
                                           _00055_DS_
0075f8   9f74     MOV	R7, #0x74            	TRAPPC1	_Led_RT_AllClose
0075f9   5f73     MOV	0x73, R7             	TRAPPC2	_Led_RT_AllClose
0075fa   e074     MOVP	#0x74               	PAGESEL	_Led_RT_AllClose
0075fb   d4d1     CALL	#0x4d1              	CALL	_Led_RT_AllClose
0075fc   9f75     MOV	R7, #0x75            	TRAPPC1	$+2
0075fd   5f73     MOV	0x73, R7             	TRAPPC2	$+1
0075fe   e075     MOVP	#0x75               	PAGESEL	$
0075ff   c60f     JMP	#0x60f               	JMP	_00060_DS_
                                           _00056_DS_
007600   9f75     MOV	R7, #0x75            	TRAPPC1	_Led_RT_AllOpen
007601   5f73     MOV	0x73, R7             	TRAPPC2	_Led_RT_AllOpen
007602   e075     MOVP	#0x75               	PAGESEL	_Led_RT_AllOpen
007603   d517     CALL	#0x517              	CALL	_Led_RT_AllOpen
007604   9f76     MOV	R7, #0x76            	TRAPPC1	$+2
007605   5f73     MOV	0x73, R7             	TRAPPC2	$+1
007606   e076     MOVP	#0x76               	PAGESEL	$
007607   c60f     JMP	#0x60f               	JMP	_00060_DS_
                                           _00057_DS_
007608   9f70     MOV	R7, #0x70            	TRAPPC1	_Led_RT_WaterOpen
007609   5f73     MOV	0x73, R7             	TRAPPC2	_Led_RT_WaterOpen
00760a   e070     MOVP	#0x70               	PAGESEL	_Led_RT_WaterOpen
00760b   d0ac     CALL	#0xac               	CALL	_Led_RT_WaterOpen
00760c   9f76     MOV	R7, #0x76            	TRAPPC1	$+2
00760d   5f73     MOV	0x73, R7             	TRAPPC2	$+1
00760e   e076     MOVP	#0x76               	PAGESEL	$
                                           _00060_DS_
00760f   0008     CRET                     	CRET	
                                           func._RT_Check_Input	.code
                                           _RT_Check_Input	;Function start
0071e9   e100     MOVB	#0x00               	BANKSEL	r0x1014
0071ea   03c0     CLR	0xc0                 	CLR	r0x1014
0071eb   e104     MOVB	#0x04               	BANKSEL	_PA_bits
0071ec   7824     JB	0x24, 0               	JB	_PA_bits, 0
0071ed   c1f0     JMP	#0x1f0               	JMP	_00124_DS_
0071ee   e100     MOVB	#0x00               	BANKSEL	r0x1014
0071ef   0bc0     INC	0xc0                 	INC	r0x1014
                                           _00124_DS_
0071f0   e100     MOVB	#0x00               	BANKSEL	r0x1015
0071f1   03c1     CLR	0xc1                 	CLR	r0x1015
0071f2   e101     MOVB	#0x01               	BANKSEL	_P5_bits
0071f3   7905     JB	0x5, 1                	JB	_P5_bits, 1
0071f4   c1f7     JMP	#0x1f7               	JMP	_00125_DS_
0071f5   e100     MOVB	#0x00               	BANKSEL	r0x1015
0071f6   0bc1     INC	0xc1                 	INC	r0x1015
                                           _00125_DS_
0071f7   9800     MOV	R0, #0               	MOV	R0,# 0x00
0071f8   e100     MOVB	#0x00               	BANKSEL	r0x1014
0071f9   30c0     ORL	R0, 0xc0             	ORL	R0, r0x1014
0071fa   7a03     JB	0x3, 2                	JB	PSW, 2
0071fb   c215     JMP	#0x215               	JMP	_00030_DS_
0071fc   9800     MOV	R0, #0               	MOV	R0,# 0x00
                                           	BANKSEL	r0x1015
0071fd   30c1     ORL	R0, 0xc1             	ORL	R0, r0x1015
0071fe   7a03     JB	0x3, 2                	JB	PSW, 2
0071ff   c215     JMP	#0x215               	JMP	_00030_DS_
                                           	BANKSEL	_RT_NowMode
007200   0ea2     MOVZ	R0, 0xa2            	MOVZ	R0, _RT_NowMode
                                           	BANKSEL	_RT_PastMode
007201   51a0     MOV	0xa0, R0             	MOV	_RT_PastMode, R0
                                           	BANKSEL	_RT_NowMode
007202   0ea3     MOVZ	R0, 0xa3            	MOVZ	R0, (_RT_NowMode + 1)
                                           	BANKSEL	_RT_PastMode
007203   51a1     MOV	0xa1, R0             	MOV	(_RT_PastMode + 1), R0
007204   9801     MOV	R0, #0x1             	MOV	R0,# 0x01
                                           	BANKSEL	_RT_NowMode
007205   51a2     MOV	0xa2, R0             	MOV	_RT_NowMode, R0
                                           	BANKSEL	_RT_NowMode
007206   03a3     CLR	0xa3                 	CLR	(_RT_NowMode + 1)
                                           	BANKSEL	_RT_PastMode
007207   0ea0     MOVZ	R0, 0xa0            	MOVZ	R0, _RT_PastMode
007208   a801     XOR	R0, #0x1             	XOR	R0,# 0x01
007209   7a03     JB	0x3, 2                	JB	PSW, 2
00720a   c212     JMP	#0x212               	JMP	_00027_DS_
                                           	BANKSEL	_RT_PastMode
00720b   0ea1     MOVZ	R0, 0xa1            	MOVZ	R0, (_RT_PastMode + 1)
00720c   a800     XOR	R0, #0               	XOR	R0,# 0x00
00720d   7a03     JB	0x3, 2                	JB	PSW, 2
00720e   c212     JMP	#0x212               	JMP	_00027_DS_
                                           	BANKSEL	_RT_ActMode
00720f   03a4     CLR	0xa4                 	CLR	_RT_ActMode
                                           	BANKSEL	_RT_ActMode
007210   03a5     CLR	0xa5                 	CLR	(_RT_ActMode + 1)
007211   c215     JMP	#0x215               	JMP	_00030_DS_
                                           _00027_DS_
007212   9801     MOV	R0, #0x1             	MOV	R0,# 0x01
                                           	BANKSEL	_RT_ActMode
007213   51a4     MOV	0xa4, R0             	MOV	_RT_ActMode, R0
                                           	BANKSEL	_RT_ActMode
007214   03a5     CLR	0xa5                 	CLR	(_RT_ActMode + 1)
                                           _00030_DS_
                                           	BANKSEL	r0x1014
007215   0ec0     MOVZ	R0, 0xc0            	MOVZ	R0, r0x1014
007216   a801     XOR	R0, #0x1             	XOR	R0,# 0x01
007217   7a03     JB	0x3, 2                	JB	PSW, 2
007218   c232     JMP	#0x232               	JMP	_00036_DS_
                                           	BANKSEL	r0x1015
007219   0ec1     MOVZ	R0, 0xc1            	MOVZ	R0, r0x1015
00721a   a801     XOR	R0, #0x1             	XOR	R0,# 0x01
00721b   7a03     JB	0x3, 2                	JB	PSW, 2
00721c   c232     JMP	#0x232               	JMP	_00036_DS_
                                           	BANKSEL	_RT_NowMode
00721d   0ea2     MOVZ	R0, 0xa2            	MOVZ	R0, _RT_NowMode
                                           	BANKSEL	_RT_PastMode
00721e   51a0     MOV	0xa0, R0             	MOV	_RT_PastMode, R0
                                           	BANKSEL	_RT_NowMode
00721f   0ea3     MOVZ	R0, 0xa3            	MOVZ	R0, (_RT_NowMode + 1)
                                           	BANKSEL	_RT_PastMode
007220   51a1     MOV	0xa1, R0             	MOV	(_RT_PastMode + 1), R0
007221   9802     MOV	R0, #0x2             	MOV	R0,# 0x02
                                           	BANKSEL	_RT_NowMode
007222   51a2     MOV	0xa2, R0             	MOV	_RT_NowMode, R0
                                           	BANKSEL	_RT_NowMode
007223   03a3     CLR	0xa3                 	CLR	(_RT_NowMode + 1)
                                           	BANKSEL	_RT_PastMode
007224   0ea0     MOVZ	R0, 0xa0            	MOVZ	R0, _RT_PastMode
007225   a802     XOR	R0, #0x2             	XOR	R0,# 0x02
007226   7a03     JB	0x3, 2                	JB	PSW, 2
007227   c22f     JMP	#0x22f               	JMP	_00033_DS_
                                           	BANKSEL	_RT_PastMode
007228   0ea1     MOVZ	R0, 0xa1            	MOVZ	R0, (_RT_PastMode + 1)
007229   a800     XOR	R0, #0               	XOR	R0,# 0x00
00722a   7a03     JB	0x3, 2                	JB	PSW, 2
00722b   c22f     JMP	#0x22f               	JMP	_00033_DS_
                                           	BANKSEL	_RT_ActMode
00722c   03a4     CLR	0xa4                 	CLR	_RT_ActMode
                                           	BANKSEL	_RT_ActMode
00722d   03a5     CLR	0xa5                 	CLR	(_RT_ActMode + 1)
00722e   c232     JMP	#0x232               	JMP	_00036_DS_
                                           _00033_DS_
00722f   9802     MOV	R0, #0x2             	MOV	R0,# 0x02
                                           	BANKSEL	_RT_ActMode
007230   51a4     MOV	0xa4, R0             	MOV	_RT_ActMode, R0
                                           	BANKSEL	_RT_ActMode
007231   03a5     CLR	0xa5                 	CLR	(_RT_ActMode + 1)
                                           _00036_DS_
                                           	BANKSEL	r0x1014
007232   0ec0     MOVZ	R0, 0xc0            	MOVZ	R0, r0x1014
007233   a801     XOR	R0, #0x1             	XOR	R0,# 0x01
007234   7a03     JB	0x3, 2                	JB	PSW, 2
007235   c24f     JMP	#0x24f               	JMP	_00042_DS_
007236   9800     MOV	R0, #0               	MOV	R0,# 0x00
                                           	BANKSEL	r0x1015
007237   30c1     ORL	R0, 0xc1             	ORL	R0, r0x1015
007238   7a03     JB	0x3, 2                	JB	PSW, 2
007239   c24f     JMP	#0x24f               	JMP	_00042_DS_
                                           	BANKSEL	_RT_NowMode
00723a   0ea2     MOVZ	R0, 0xa2            	MOVZ	R0, _RT_NowMode
                                           	BANKSEL	_RT_PastMode
00723b   51a0     MOV	0xa0, R0             	MOV	_RT_PastMode, R0
                                           	BANKSEL	_RT_NowMode
00723c   0ea3     MOVZ	R0, 0xa3            	MOVZ	R0, (_RT_NowMode + 1)
                                           	BANKSEL	_RT_PastMode
00723d   51a1     MOV	0xa1, R0             	MOV	(_RT_PastMode + 1), R0
00723e   9804     MOV	R0, #0x4             	MOV	R0,# 0x04
                                           	BANKSEL	_RT_NowMode
00723f   51a2     MOV	0xa2, R0             	MOV	_RT_NowMode, R0
                                           	BANKSEL	_RT_NowMode
007240   03a3     CLR	0xa3                 	CLR	(_RT_NowMode + 1)
                                           	BANKSEL	_RT_PastMode
007241   0ea0     MOVZ	R0, 0xa0            	MOVZ	R0, _RT_PastMode
007242   a804     XOR	R0, #0x4             	XOR	R0,# 0x04
007243   7a03     JB	0x3, 2                	JB	PSW, 2
007244   c24c     JMP	#0x24c               	JMP	_00039_DS_
                                           	BANKSEL	_RT_PastMode
007245   0ea1     MOVZ	R0, 0xa1            	MOVZ	R0, (_RT_PastMode + 1)
007246   a800     XOR	R0, #0               	XOR	R0,# 0x00
007247   7a03     JB	0x3, 2                	JB	PSW, 2
007248   c24c     JMP	#0x24c               	JMP	_00039_DS_
                                           	BANKSEL	_RT_ActMode
007249   03a4     CLR	0xa4                 	CLR	_RT_ActMode
                                           	BANKSEL	_RT_ActMode
00724a   03a5     CLR	0xa5                 	CLR	(_RT_ActMode + 1)
00724b   c24f     JMP	#0x24f               	JMP	_00042_DS_
                                           _00039_DS_
00724c   9804     MOV	R0, #0x4             	MOV	R0,# 0x04
                                           	BANKSEL	_RT_ActMode
00724d   51a4     MOV	0xa4, R0             	MOV	_RT_ActMode, R0
                                           	BANKSEL	_RT_ActMode
00724e   03a5     CLR	0xa5                 	CLR	(_RT_ActMode + 1)
                                           _00042_DS_
00724f   9f75     MOV	R7, #0x75            	TRAPPC1	_RT_Mode_Act
007250   5f73     MOV	0x73, R7             	TRAPPC2	_RT_Mode_Act
007251   e075     MOVP	#0x75               	PAGESEL	_RT_Mode_Act
007252   d5db     CALL	#0x5db              	CALL	_RT_Mode_Act
007253   9f72     MOV	R7, #0x72            	TRAPPC1	$+2
007254   5f73     MOV	0x73, R7             	TRAPPC2	$+1
007255   e072     MOVP	#0x72               	PAGESEL	$
007256   0008     CRET                     	CRET	
                                           func._delay_us	.code
                                           _delay_us	;Function start
                                           	BANKSEL	r0x1016
                                           	MOV	r0x1016, R0
                                           	BANKSEL	STK00
                                           	MOVZ	R0, STK00
                                           	BANKSEL	r0x1017
                                           	MOV	r0x1017, R0
                                           	BANKSEL	_delay_us_i_1_1
                                           	CLR	_delay_us_i_1_1
                                           	BANKSEL	_delay_us_i_1_1
                                           	CLR	(_delay_us_i_1_1 + 1)
                                           _00017_DS_
                                           	BANKSEL	r0x1016
                                           	MOVZ	R0, r0x1016
                                           	BANKSEL	_delay_us_i_1_1
                                           	SUB	R0, (_delay_us_i_1_1 + 1)
                                           	JB	PSW, 2
                                           	JMP	_00025_DS_
                                           	BANKSEL	r0x1017
                                           	MOVZ	R0, r0x1017
                                           	BANKSEL	_delay_us_i_1_1
                                           	SUB	R0, _delay_us_i_1_1
                                           _00025_DS_
                                           	JNB	PSW, 0
                                           	JMP	_00021_DS_
                                           	BANKSEL	_delay_us_i_1_1
                                           	INC	_delay_us_i_1_1
                                           	JB	PSW, 2
                                           	JMP	_00126_DS_
                                           	BANKSEL	_delay_us_i_1_1
                                           	INC	(_delay_us_i_1_1 + 1)
                                           _00126_DS_
                                           	JMP	_00017_DS_
                                           _00021_DS_
                                           	CRET	
                                           func._delay_ms	.code
                                           _delay_ms	;Function start
0076b6   e100     MOVB	#0x00               	BANKSEL	r0x1018
0076b7   51bd     MOV	0xbd, R0             	MOV	r0x1018, R0
                                           	BANKSEL	STK00
0076b8   0e93     MOVZ	R0, 0x93            	MOVZ	R0, STK00
                                           	BANKSEL	r0x1019
0076b9   51bc     MOV	0xbc, R0             	MOV	r0x1019, R0
                                           	BANKSEL	_delay_ms_i_1_1
0076ba   0396     CLR	0x96                 	CLR	_delay_ms_i_1_1
                                           	BANKSEL	_delay_ms_i_1_1
0076bb   0397     CLR	0x97                 	CLR	(_delay_ms_i_1_1 + 1)
                                           _00006_DS_
                                           	BANKSEL	r0x1018
0076bc   0ebd     MOVZ	R0, 0xbd            	MOVZ	R0, r0x1018
                                           	BANKSEL	_delay_ms_i_1_1
0076bd   3897     SUB	R0, 0x97             	SUB	R0, (_delay_ms_i_1_1 + 1)
0076be   7a03     JB	0x3, 2                	JB	PSW, 2
0076bf   c6c2     JMP	#0x6c2               	JMP	_00016_DS_
                                           	BANKSEL	r0x1019
0076c0   0ebc     MOVZ	R0, 0xbc            	MOVZ	R0, r0x1019
                                           	BANKSEL	_delay_ms_i_1_1
0076c1   3896     SUB	R0, 0x96             	SUB	R0, _delay_ms_i_1_1
                                           _00016_DS_
0076c2   7003     JNB	0x3, 0               	JNB	PSW, 0
0076c3   c6d9     JMP	#0x6d9               	JMP	_00010_DS_
0076c4   98fa     MOV	R0, #0xfa            	MOV	R0,# 0xfa
                                           	BANKSEL	_delay_ms_j_1_1
0076c5   5198     MOV	0x98, R0             	MOV	_delay_ms_j_1_1, R0
                                           	BANKSEL	_delay_ms_j_1_1
0076c6   0399     CLR	0x99                 	CLR	(_delay_ms_j_1_1 + 1)
                                           _00003_DS_
                                           	BANKSEL	_delay_ms_j_1_1
0076c7   0e98     MOVZ	R0, 0x98            	MOVZ	R0, _delay_ms_j_1_1
                                           	BANKSEL	r0x101A
0076c8   51be     MOV	0xbe, R0             	MOV	r0x101A, R0
                                           	BANKSEL	_delay_ms_j_1_1
0076c9   0e99     MOVZ	R0, 0x99            	MOVZ	R0, (_delay_ms_j_1_1 + 1)
                                           	BANKSEL	r0x101B
0076ca   51bf     MOV	0xbf, R0             	MOV	r0x101B, R0
0076cb   98ff     MOV	R0, #0xff            	MOV	R0,# 0xff
                                           	BANKSEL	_delay_ms_j_1_1
0076cc   2198     ADD	0x98, R0             	ADD	_delay_ms_j_1_1, R0
0076cd   7003     JNB	0x3, 0               	JNB	PSW, 0
0076ce   c6d0     JMP	#0x6d0               	JMP	_00127_DS_
                                           	BANKSEL	_delay_ms_j_1_1
0076cf   0799     DEC	0x99                 	DEC	(_delay_ms_j_1_1 + 1)
                                           _00127_DS_
                                           	BANKSEL	r0x101A
0076d0   0ebe     MOVZ	R0, 0xbe            	MOVZ	R0, r0x101A
                                           	BANKSEL	r0x101B
0076d1   30bf     ORL	R0, 0xbf             	ORL	R0, r0x101B
0076d2   7a03     JB	0x3, 2                	JB	PSW, 2
0076d3   c6c7     JMP	#0x6c7               	JMP	_00003_DS_
                                           	BANKSEL	_delay_ms_i_1_1
0076d4   0b96     INC	0x96                 	INC	_delay_ms_i_1_1
0076d5   7a03     JB	0x3, 2                	JB	PSW, 2
0076d6   c6d8     JMP	#0x6d8               	JMP	_00128_DS_
                                           	BANKSEL	_delay_ms_i_1_1
0076d7   0b97     INC	0x97                 	INC	(_delay_ms_i_1_1 + 1)
                                           _00128_DS_
0076d8   c6bc     JMP	#0x6bc               	JMP	_00006_DS_
                                           _00010_DS_
0076d9   0008     CRET                     	CRET	
                                           func._Init_IO	.code
                                           _Init_IO	;Function start
007642   98ff     MOV	R0, #0xff            	MOV	R0,# 0xff
007643   e100     MOVB	#0x00               	BANKSEL	_TR0
007644   5125     MOV	0x25, R0             	MOV	_TR0, R0
                                           	BANKSEL	_ANS0
007645   034a     CLR	0x4a                 	CLR	_ANS0
007646   9802     MOV	R0, #0x2             	MOV	R0,# 0x02
                                           	BANKSEL	_TR1
007647   5127     MOV	0x27, R0             	MOV	_TR1, R0
                                           	BANKSEL	_ANS1
007648   034b     CLR	0x4b                 	CLR	_ANS1
                                           	BANKSEL	_P1LR
007649   0347     CLR	0x47                 	CLR	_P1LR
                                           	BANKSEL	_TR2
00764a   0326     CLR	0x26                 	CLR	_TR2
                                           	BANKSEL	_ANS2
00764b   034c     CLR	0x4c                 	CLR	_ANS2
                                           	BANKSEL	_P2LR
00764c   0346     CLR	0x46                 	CLR	_P2LR
                                           	BANKSEL	_TR3
00764d   0328     CLR	0x28                 	CLR	_TR3
                                           	BANKSEL	_ANS3
00764e   034d     CLR	0x4d                 	CLR	_ANS3
                                           	BANKSEL	_P3LR
00764f   0348     CLR	0x48                 	CLR	_P3LR
007650   9810     MOV	R0, #0x10            	MOV	R0,# 0x10
                                           	BANKSEL	_TR4
007651   5129     MOV	0x29, R0             	MOV	_TR4, R0
                                           	BANKSEL	_ANS4
007652   034e     CLR	0x4e                 	CLR	_ANS4
                                           	BANKSEL	_P4LR
007653   0349     CLR	0x49                 	CLR	_P4LR
007654   9802     MOV	R0, #0x2             	MOV	R0,# 0x02
007655   e101     MOVB	#0x01               	BANKSEL	_TR5
007656   5125     MOV	0x25, R0             	MOV	_TR5, R0
                                           	BANKSEL	_ANS5
007657   034a     CLR	0x4a                 	CLR	_ANS5
                                           	BANKSEL	_P5LR
007658   0345     CLR	0x45                 	CLR	_P5LR
                                           	BANKSEL	_TR6
007659   0326     CLR	0x26                 	CLR	_TR6
                                           	BANKSEL	_ANS6
00765a   034b     CLR	0x4b                 	CLR	_ANS6
                                           	BANKSEL	_P6LR
00765b   0346     CLR	0x46                 	CLR	_P6LR
00765c   9806     MOV	R0, #0x6             	MOV	R0,# 0x06
                                           	BANKSEL	_TR7
00765d   5127     MOV	0x27, R0             	MOV	_TR7, R0
                                           	BANKSEL	_ANS7
00765e   034c     CLR	0x4c                 	CLR	_ANS7
                                           	BANKSEL	_P7LR
00765f   0347     CLR	0x47                 	CLR	_P7LR
007660   980e     MOV	R0, #0xe             	MOV	R0,# 0x0e
                                           	BANKSEL	_TR9
007661   5129     MOV	0x29, R0             	MOV	_TR9, R0
                                           	BANKSEL	_ANS9
007662   034e     CLR	0x4e                 	CLR	_ANS9
                                           	BANKSEL	_P9LR
007663   0349     CLR	0x49                 	CLR	_P9LR
007664   9801     MOV	R0, #0x1             	MOV	R0,# 0x01
007665   e104     MOVB	#0x04               	BANKSEL	_TRA
007666   5126     MOV	0x26, R0             	MOV	_TRA, R0
                                           	BANKSEL	_ANSA
007667   0328     CLR	0x28                 	CLR	_ANSA
                                           	BANKSEL	_PALR
007668   0325     CLR	0x25                 	CLR	_PALR
                                           	BANKSEL	_TRB
007669   032b     CLR	0x2b                 	CLR	_TRB
                                           	BANKSEL	_ANSB
00766a   032d     CLR	0x2d                 	CLR	_ANSB
                                           	BANKSEL	_PBLR
00766b   032a     CLR	0x2a                 	CLR	_PBLR
00766c   0008     CRET                     	CRET	
                                           	.end
                                           	.radix dec
                                           	.include "KF8A100GQS.inc"
                                           	__config 0x8007, 0x6d4
                                           	.end
                                           	.radix dec
                                           	.include "KF8A100GQS.inc"
                                           	.type STK11, 108
                                           	.type STK10, 108
                                           	.type STK09, 108
                                           	.type STK08, 108
                                           	.type STK07, 108
                                           	.type STK06, 108
                                           	.type STK05, 108
                                           	.type STK04, 108
                                           	.type STK03, 108
                                           	.type STK02, 108
                                           	.type STK01, 108
                                           	.type STK00, 108
                                           sharebankTRAP .idata 0x73
                                           TRAPRx73
                                             .db 0x00
                                           TRAPRx74
                                             .db 0x00
                                           TRAPRx75
                                             .db 0x00
                                           TRAPRx76
                                             .db 0x00
                                           TRAPRx77
                                             .db 0x00
                                           ID_main_0	.idata
                                           _PWM_Timer_Flag
                                           	.db	0x00
                                           ID_main_1	.idata
                                           _Stop_Low_Addr
                                           	.db	0x00, 0x00
                                           STARTUP	.code 0x0000
000000   0376     CLR	0x76                 	CLR 0x76
000001   0373     CLR	0x73                 	CLR 0x73
000002   e077     MOVP	#0x77               	PAGESEL	init_imp
000003   c76d     JMP	#0x76d               	JMP		init_imp
                                           INIT_IMP	.code
                                           init_imp
00776d   e076     MOVP	#0x76               	PAGESEL	_startup
00776e   d66d     CALL	#0x66d              	CALL	_startup
00776f   e077     MOVP	#0x77               	PAGESEL	__gsinit_startup
007770   d775     CALL	#0x775              	CALL	__gsinit_startup
007771   9f75     MOV	R7, #0x75            	TRAPPC1	_main
007772   5f73     MOV	0x73, R7             	TRAPPC2	_main
007773   e075     MOVP	#0x75               	PAGESEL	_main
007774   c55d     JMP	#0x55d               	JMP		_main
                                           interrupt_0x04	.code	0x4
000004   f8c2     MOV	R2, R0               	MOV		R2,R0
000005   5617     MOV	R3, 0x17             	MOV		R3,BANK
000006   5003     MOV	R0, 0x3              	MOV		R0,PSW
000007   e100     MOVB	#0x00               	BANKSEL	I0PSW
000008   5182     MOV	0x82, R0             	MOV		I0PSW,R0
000009   5380     MOV	0x80, R1             	MOV		I0R1,R1
00000a   5f81     MOV	0x81, R7             	MOV		I0R7,R7
00000b   6a76     SET	0x76, 2              	SET		TRAPRx76,2
00000c   9f70     MOV	R7, #0x70            	TRAPPC1	interrupt_service_routine_0x04
00000d   5f75     MOV	0x75, R7             	TRAPPC2	interrupt_service_routine_0x04
00000e   e070     MOVP	#0x70               	PAGESEL	interrupt_service_routine_0x04
00000f   c000     JMP	#0                   	JMP		interrupt_service_routine_0x04
                                           func._int_fun0	.code
                                           _int_fun0	;Function start
                                           interrupt_service_routine_0x04
007000   e100     MOVB	#0x00               	BANKSEL	r0x1005
007001   03c5     CLR	0xc5                 	CLR	r0x1005
                                           	BANKSEL	_INTCTL_bits
007002   7a0b     JB	0xb, 2                	JB	_INTCTL_bits, 2
007003   c005     JMP	#0x5                 	JMP	_00096_DS_
                                           	BANKSEL	r0x1005
007004   0bc5     INC	0xc5                 	INC	r0x1005
                                           _00096_DS_
007005   9800     MOV	R0, #0               	MOV	R0,# 0x00
                                           	BANKSEL	_INTCTL_bits
007006   750b     JNB	0xb, 5               	JNB	_INTCTL_bits, 5
007007   9801     MOV	R0, #0x1             	MOV	R0,# 0x01
                                           	BANKSEL	r0x1006
007008   51c6     MOV	0xc6, R0             	MOV	r0x1006, R0
                                           	BANKSEL	r0x1006
007009   0ec6     MOVZ	R0, 0xc6            	MOVZ	R0, r0x1006
                                           	BANKSEL	r0x1005
00700a   29c5     AND	0xc5, R0             	AND	r0x1005, R0
00700b   9800     MOV	R0, #0               	MOV	R0,# 0x00
                                           	BANKSEL	r0x1005
00700c   30c5     ORL	R0, 0xc5             	ORL	R0, r0x1005
00700d   7203     JNB	0x3, 2               	JNB	PSW, 2
00700e   c012     JMP	#0x12                	JMP	_00008_DS_
                                           	BANKSEL	_INTCTL_bits
00700f   620b     CLR	0xb, 2               	CLR	_INTCTL_bits, 2
007010   9808     MOV	R0, #0x8             	MOV	R0,# 0x08
                                           	BANKSEL	_T0
007011   5101     MOV	0x1, R0              	MOV	_T0, R0
                                           _00008_DS_
                                           	BANKSEL	r0x1005
007012   03c5     CLR	0xc5                 	CLR	r0x1005
                                           	BANKSEL	_EIF1_bits
007013   790c     JB	0xc, 1                	JB	_EIF1_bits, 1
007014   c016     JMP	#0x16                	JMP	_00097_DS_
                                           	BANKSEL	r0x1005
007015   0bc5     INC	0xc5                 	INC	r0x1005
                                           _00097_DS_
                                           	BANKSEL	r0x1007
007016   03c7     CLR	0xc7                 	CLR	r0x1007
                                           	BANKSEL	_EIE1_bits
007017   792c     JB	0x2c, 1               	JB	_EIE1_bits, 1
007018   c01a     JMP	#0x1a                	JMP	_00098_DS_
                                           	BANKSEL	r0x1007
007019   0bc7     INC	0xc7                 	INC	r0x1007
                                           _00098_DS_
                                           	BANKSEL	r0x1007
00701a   0ec7     MOVZ	R0, 0xc7            	MOVZ	R0, r0x1007
                                           	BANKSEL	r0x1005
00701b   29c5     AND	0xc5, R0             	AND	r0x1005, R0
00701c   9800     MOV	R0, #0               	MOV	R0,# 0x00
                                           	BANKSEL	r0x1005
00701d   30c5     ORL	R0, 0xc5             	ORL	R0, r0x1005
00701e   7203     JNB	0x3, 2               	JNB	PSW, 2
00701f   c021     JMP	#0x21                	JMP	_00010_DS_
                                           	BANKSEL	_EIF1_bits
007020   610c     CLR	0xc, 1               	CLR	_EIF1_bits, 1
                                           _00010_DS_
                                           	BANKSEL	r0x1005
007021   03c5     CLR	0xc5                 	CLR	r0x1005
                                           	BANKSEL	_EIF1_bits
007022   780c     JB	0xc, 0                	JB	_EIF1_bits, 0
007023   c025     JMP	#0x25                	JMP	_00099_DS_
                                           	BANKSEL	r0x1005
007024   0bc5     INC	0xc5                 	INC	r0x1005
                                           _00099_DS_
                                           	BANKSEL	r0x1007
007025   03c7     CLR	0xc7                 	CLR	r0x1007
                                           	BANKSEL	_EIE1_bits
007026   782c     JB	0x2c, 0               	JB	_EIE1_bits, 0
007027   c029     JMP	#0x29                	JMP	_00100_DS_
                                           	BANKSEL	r0x1007
007028   0bc7     INC	0xc7                 	INC	r0x1007
                                           _00100_DS_
                                           	BANKSEL	r0x1007
007029   0ec7     MOVZ	R0, 0xc7            	MOVZ	R0, r0x1007
                                           	BANKSEL	r0x1005
00702a   29c5     AND	0xc5, R0             	AND	r0x1005, R0
00702b   9800     MOV	R0, #0               	MOV	R0,# 0x00
                                           	BANKSEL	r0x1005
00702c   30c5     ORL	R0, 0xc5             	ORL	R0, r0x1005
00702d   7203     JNB	0x3, 2               	JNB	PSW, 2
00702e   c0a0     JMP	#0xa0                	JMP	_00064_DS_
                                           	BANKSEL	_EIF1_bits
00702f   600c     CLR	0xc, 0               	CLR	_EIF1_bits, 0
007030   9800     MOV	R0, #0               	MOV	R0,# 0x00
                                           	BANKSEL	_PWM_Timer_Flag
007031   30c4     ORL	R0, 0xc4             	ORL	R0, _PWM_Timer_Flag
007032   7203     JNB	0x3, 2               	JNB	PSW, 2
007033   c06a     JMP	#0x6a                	JMP	_00060_DS_
                                           	BANKSEL	_PWM_Timer_Flag
007034   03c4     CLR	0xc4                 	CLR	_PWM_Timer_Flag
007035   98f1     MOV	R0, #0xf1            	MOV	R0,# 0xf1
                                           	BANKSEL	_T1H
007036   510f     MOV	0xf, R0              	MOV	_T1H, R0
007037   9860     MOV	R0, #0x60            	MOV	R0,# 0x60
                                           	BANKSEL	_T1L
007038   510e     MOV	0xe, R0              	MOV	_T1L, R0
                                           	BANKSEL	_Stop_High_Addr
007039   78a6     JB	0xa6, 0               	JB	_Stop_High_Addr, 0
00703a   c03c     JMP	#0x3c                	JMP	_00012_DS_
                                           	BANKSEL	_P2LR_bits
00703b   6346     CLR	0x46, 3              	CLR	_P2LR_bits, 3
                                           _00012_DS_
                                           	BANKSEL	_Stop_High_Addr
00703c   79a6     JB	0xa6, 1               	JB	_Stop_High_Addr, 1
00703d   c03f     JMP	#0x3f                	JMP	_00014_DS_
                                           	BANKSEL	_P2LR_bits
00703e   6446     CLR	0x46, 4              	CLR	_P2LR_bits, 4
                                           _00014_DS_
                                           	BANKSEL	_Stop_High_Addr
00703f   7aa6     JB	0xa6, 2               	JB	_Stop_High_Addr, 2
007040   c042     JMP	#0x42                	JMP	_00016_DS_
                                           	BANKSEL	_P2LR_bits
007041   6046     CLR	0x46, 0              	CLR	_P2LR_bits, 0
                                           _00016_DS_
                                           	BANKSEL	_Stop_High_Addr
007042   7ba6     JB	0xa6, 3               	JB	_Stop_High_Addr, 3
007043   c045     JMP	#0x45                	JMP	_00018_DS_
                                           	BANKSEL	_P2LR_bits
007044   6146     CLR	0x46, 1              	CLR	_P2LR_bits, 1
                                           _00018_DS_
                                           	BANKSEL	_Stop_High_Addr
007045   7ca6     JB	0xa6, 4               	JB	_Stop_High_Addr, 4
007046   c049     JMP	#0x49                	JMP	_00020_DS_
007047   e101     MOVB	#0x01               	BANKSEL	_P6LR_bits
007048   6146     CLR	0x46, 1              	CLR	_P6LR_bits, 1
                                           _00020_DS_
007049   e100     MOVB	#0x00               	BANKSEL	_Stop_High_Addr
00704a   7da6     JB	0xa6, 5               	JB	_Stop_High_Addr, 5
00704b   c04e     JMP	#0x4e                	JMP	_00022_DS_
00704c   e101     MOVB	#0x01               	BANKSEL	_P6LR_bits
00704d   6346     CLR	0x46, 3              	CLR	_P6LR_bits, 3
                                           _00022_DS_
00704e   e100     MOVB	#0x00               	BANKSEL	_Stop_High_Addr
00704f   7ea6     JB	0xa6, 6               	JB	_Stop_High_Addr, 6
007050   c053     JMP	#0x53                	JMP	_00024_DS_
007051   e101     MOVB	#0x01               	BANKSEL	_P6LR_bits
007052   6546     CLR	0x46, 5              	CLR	_P6LR_bits, 5
                                           _00024_DS_
007053   e100     MOVB	#0x00               	BANKSEL	_Stop_High_Addr
007054   7fa6     JB	0xa6, 7               	JB	_Stop_High_Addr, 7
007055   c058     JMP	#0x58                	JMP	_00026_DS_
007056   e101     MOVB	#0x01               	BANKSEL	_P6LR_bits
007057   6646     CLR	0x46, 6              	CLR	_P6LR_bits, 6
                                           _00026_DS_
007058   e100     MOVB	#0x00               	BANKSEL	(_Stop_High_Addr + 1)
007059   78a7     JB	0xa7, 0               	JB	(_Stop_High_Addr + 1), 0
00705a   c05d     JMP	#0x5d                	JMP	_00028_DS_
00705b   e101     MOVB	#0x01               	BANKSEL	_P9LR_bits
00705c   6549     CLR	0x49, 5              	CLR	_P9LR_bits, 5
                                           _00028_DS_
00705d   e100     MOVB	#0x00               	BANKSEL	(_Stop_High_Addr + 1)
00705e   79a7     JB	0xa7, 1               	JB	(_Stop_High_Addr + 1), 1
00705f   c062     JMP	#0x62                	JMP	_00030_DS_
007060   e101     MOVB	#0x01               	BANKSEL	_P9LR_bits
007061   6449     CLR	0x49, 4              	CLR	_P9LR_bits, 4
                                           _00030_DS_
007062   e100     MOVB	#0x00               	BANKSEL	(_Stop_High_Addr + 1)
007063   7aa7     JB	0xa7, 2               	JB	(_Stop_High_Addr + 1), 2
007064   c066     JMP	#0x66                	JMP	_00032_DS_
                                           	BANKSEL	_P4LR_bits
007065   6349     CLR	0x49, 3              	CLR	_P4LR_bits, 3
                                           _00032_DS_
                                           	BANKSEL	(_Stop_High_Addr + 1)
007066   7ba7     JB	0xa7, 3               	JB	(_Stop_High_Addr + 1), 3
007067   c0a0     JMP	#0xa0                	JMP	_00064_DS_
                                           	BANKSEL	_P4LR_bits
007068   6549     CLR	0x49, 5              	CLR	_P4LR_bits, 5
007069   c0a0     JMP	#0xa0                	JMP	_00064_DS_
                                           _00060_DS_
00706a   9801     MOV	R0, #0x1             	MOV	R0,# 0x01
                                           	BANKSEL	_PWM_Timer_Flag
00706b   51c4     MOV	0xc4, R0             	MOV	_PWM_Timer_Flag, R0
00706c   98ff     MOV	R0, #0xff            	MOV	R0,# 0xff
                                           	BANKSEL	_T1H
00706d   510f     MOV	0xf, R0              	MOV	_T1H, R0
00706e   9862     MOV	R0, #0x62            	MOV	R0,# 0x62
                                           	BANKSEL	_T1L
00706f   510e     MOV	0xe, R0              	MOV	_T1L, R0
                                           	BANKSEL	_Stop_Low_Addr
007070   78a8     JB	0xa8, 0               	JB	_Stop_Low_Addr, 0
007071   c073     JMP	#0x73                	JMP	_00036_DS_
                                           	BANKSEL	_P2LR_bits
007072   6b46     SET	0x46, 3              	SET	_P2LR_bits, 3
                                           _00036_DS_
                                           	BANKSEL	_Stop_Low_Addr
007073   79a8     JB	0xa8, 1               	JB	_Stop_Low_Addr, 1
007074   c076     JMP	#0x76                	JMP	_00038_DS_
                                           	BANKSEL	_P2LR_bits
007075   6c46     SET	0x46, 4              	SET	_P2LR_bits, 4
                                           _00038_DS_
                                           	BANKSEL	_Stop_Low_Addr
007076   7aa8     JB	0xa8, 2               	JB	_Stop_Low_Addr, 2
007077   c079     JMP	#0x79                	JMP	_00040_DS_
                                           	BANKSEL	_P2LR_bits
007078   6846     SET	0x46, 0              	SET	_P2LR_bits, 0
                                           _00040_DS_
                                           	BANKSEL	_Stop_Low_Addr
007079   7ba8     JB	0xa8, 3               	JB	_Stop_Low_Addr, 3
00707a   c07c     JMP	#0x7c                	JMP	_00042_DS_
                                           	BANKSEL	_P2LR_bits
00707b   6946     SET	0x46, 1              	SET	_P2LR_bits, 1
                                           _00042_DS_
                                           	BANKSEL	_Stop_Low_Addr
00707c   7ca8     JB	0xa8, 4               	JB	_Stop_Low_Addr, 4
00707d   c080     JMP	#0x80                	JMP	_00044_DS_
00707e   e101     MOVB	#0x01               	BANKSEL	_P6LR_bits
00707f   6946     SET	0x46, 1              	SET	_P6LR_bits, 1
                                           _00044_DS_
007080   e100     MOVB	#0x00               	BANKSEL	_Stop_Low_Addr
007081   7da8     JB	0xa8, 5               	JB	_Stop_Low_Addr, 5
007082   c085     JMP	#0x85                	JMP	_00046_DS_
007083   e101     MOVB	#0x01               	BANKSEL	_P6LR_bits
007084   6b46     SET	0x46, 3              	SET	_P6LR_bits, 3
                                           _00046_DS_
007085   e100     MOVB	#0x00               	BANKSEL	_Stop_Low_Addr
007086   7ea8     JB	0xa8, 6               	JB	_Stop_Low_Addr, 6
007087   c08a     JMP	#0x8a                	JMP	_00048_DS_
007088   e101     MOVB	#0x01               	BANKSEL	_P6LR_bits
007089   6d46     SET	0x46, 5              	SET	_P6LR_bits, 5
                                           _00048_DS_
00708a   e100     MOVB	#0x00               	BANKSEL	_Stop_Low_Addr
00708b   7fa8     JB	0xa8, 7               	JB	_Stop_Low_Addr, 7
00708c   c08f     JMP	#0x8f                	JMP	_00050_DS_
00708d   e101     MOVB	#0x01               	BANKSEL	_P6LR_bits
00708e   6e46     SET	0x46, 6              	SET	_P6LR_bits, 6
                                           _00050_DS_
00708f   e100     MOVB	#0x00               	BANKSEL	(_Stop_Low_Addr + 1)
007090   78a9     JB	0xa9, 0               	JB	(_Stop_Low_Addr + 1), 0
007091   c094     JMP	#0x94                	JMP	_00052_DS_
007092   e101     MOVB	#0x01               	BANKSEL	_P9LR_bits
007093   6d49     SET	0x49, 5              	SET	_P9LR_bits, 5
                                           _00052_DS_
007094   e100     MOVB	#0x00               	BANKSEL	(_Stop_Low_Addr + 1)
007095   79a9     JB	0xa9, 1               	JB	(_Stop_Low_Addr + 1), 1
007096   c099     JMP	#0x99                	JMP	_00054_DS_
007097   e101     MOVB	#0x01               	BANKSEL	_P9LR_bits
007098   6c49     SET	0x49, 4              	SET	_P9LR_bits, 4
                                           _00054_DS_
007099   e100     MOVB	#0x00               	BANKSEL	(_Stop_Low_Addr + 1)
00709a   7aa9     JB	0xa9, 2               	JB	(_Stop_Low_Addr + 1), 2
00709b   c09d     JMP	#0x9d                	JMP	_00056_DS_
                                           	BANKSEL	_P4LR_bits
00709c   6b49     SET	0x49, 3              	SET	_P4LR_bits, 3
                                           _00056_DS_
                                           	BANKSEL	(_Stop_Low_Addr + 1)
00709d   7ba9     JB	0xa9, 3               	JB	(_Stop_Low_Addr + 1), 3
00709e   c0a0     JMP	#0xa0                	JMP	_00064_DS_
                                           	BANKSEL	_P4LR_bits
00709f   6d49     SET	0x49, 5              	SET	_P4LR_bits, 5
                                           _00064_DS_
                                           	BANKSEL	I0R1
0070a0   5280     MOV	R1, 0x80             	MOV	R1, I0R1
                                           	BANKSEL	I0R7
0070a1   5e81     MOV	R7, 0x81             	MOV	R7, I0R7
                                           	BANKSEL	I0PSW
0070a2   5082     MOV	R0, 0x82             	MOV	R0, I0PSW
0070a3   5103     MOV	0x3, R0              	MOV	PSW, R0
0070a4   5073     MOV	R0, 0x73             	MOV	R0, TRAPRx73
0070a5   7176     JNB	0x76, 1              	JNB	TRAPRx76, 1
0070a6   5074     MOV	R0, 0x74             	MOV	R0, TRAPRx74
0070a7   6276     CLR	0x76, 2              	CLR	TRAPRx76, 2
0070a8   510a     MOV	0xa, R0              	MOV	PCH, R0
0070a9   5717     MOV	0x17, R3             	MOV	BANK, R3
0070aa   f8d0     MOV	R0, R2               	MOV	R0, R2
0070ab   0009     IRET                     	IRET	
                                           func._int_fun1	.code
                                           _int_fun1	;Function start
                                           interrupt_service_routine_0x14
                                           _00094_DS_
                                           	IRET	
                                           func._main	.code
                                           _main	;Function start
00755d   9878     MOV	R0, #0x78            	MOV	R0,# 0x78
00755e   e100     MOVB	#0x00               	BANKSEL	_SCLKCTL
00755f   5169     MOV	0x69, R0             	MOV	_SCLKCTL, R0
007560   988e     MOV	R0, #0x8e            	MOV	R0,# 0x8e
                                           	BANKSEL	_HFCKCTL
007561   516a     MOV	0x6a, R0             	MOV	_HFCKCTL, R0
007562   9f76     MOV	R7, #0x76            	TRAPPC1	_Init_IO
007563   5f73     MOV	0x73, R7             	TRAPPC2	_Init_IO
007564   e076     MOVP	#0x76               	PAGESEL	_Init_IO
007565   d642     CALL	#0x642              	CALL	_Init_IO
007566   9f75     MOV	R7, #0x75            	TRAPPC1	$+2
007567   5f73     MOV	0x73, R7             	TRAPPC2	$+1
007568   e075     MOVP	#0x75               	PAGESEL	$
007569   9f76     MOV	R7, #0x76            	TRAPPC1	_IS31FL3265B_Init
00756a   5f73     MOV	0x73, R7             	TRAPPC2	_IS31FL3265B_Init
00756b   e076     MOVP	#0x76               	PAGESEL	_IS31FL3265B_Init
00756c   d692     CALL	#0x692              	CALL	_IS31FL3265B_Init
00756d   9f75     MOV	R7, #0x75            	TRAPPC1	$+2
00756e   5f73     MOV	0x73, R7             	TRAPPC2	$+1
00756f   e075     MOVP	#0x75               	PAGESEL	$
007570   9f77     MOV	R7, #0x77            	TRAPPC1	_Timer0_Init
007571   5f73     MOV	0x73, R7             	TRAPPC2	_Timer0_Init
007572   e077     MOVP	#0x77               	PAGESEL	_Timer0_Init
007573   d75c     CALL	#0x75c              	CALL	_Timer0_Init
007574   9f75     MOV	R7, #0x75            	TRAPPC1	$+2
007575   5f73     MOV	0x73, R7             	TRAPPC2	$+1
007576   e075     MOVP	#0x75               	PAGESEL	$
007577   9f77     MOV	R7, #0x77            	TRAPPC1	_Timer1_Init
007578   5f73     MOV	0x73, R7             	TRAPPC2	_Timer1_Init
007579   e077     MOVP	#0x77               	PAGESEL	_Timer1_Init
00757a   d750     CALL	#0x750              	CALL	_Timer1_Init
00757b   9f75     MOV	R7, #0x75            	TRAPPC1	$+2
00757c   5f73     MOV	0x73, R7             	TRAPPC2	$+1
00757d   e075     MOVP	#0x75               	PAGESEL	$
00757e   9f77     MOV	R7, #0x77            	TRAPPC1	_Timer2_Init
00757f   5f73     MOV	0x73, R7             	TRAPPC2	_Timer2_Init
007580   e077     MOVP	#0x77               	PAGESEL	_Timer2_Init
007581   d741     CALL	#0x741              	CALL	_Timer2_Init
007582   9f75     MOV	R7, #0x75            	TRAPPC1	$+2
007583   5f73     MOV	0x73, R7             	TRAPPC2	$+1
007584   e075     MOVP	#0x75               	PAGESEL	$
007585   98ff     MOV	R0, #0xff            	MOV	R0,# 0xff
007586   e100     MOVB	#0x00               	BANKSEL	_Stop_High_Addr
007587   51a6     MOV	0xa6, R0             	MOV	_Stop_High_Addr, R0
                                           	BANKSEL	_Stop_High_Addr
007588   51a7     MOV	0xa7, R0             	MOV	(_Stop_High_Addr + 1), R0
007589   98ff     MOV	R0, #0xff            	MOV	R0,# 0xff
                                           	BANKSEL	_Stop_Low_Addr
00758a   51a8     MOV	0xa8, R0             	MOV	_Stop_Low_Addr, R0
                                           	BANKSEL	_Stop_Low_Addr
00758b   51a9     MOV	0xa9, R0             	MOV	(_Stop_Low_Addr + 1), R0
                                           	BANKSEL	_INTCTL_bits
00758c   6e0b     SET	0xb, 6               	SET	_INTCTL_bits, 6
                                           	BANKSEL	_INTCTL_bits
00758d   6f0b     SET	0xb, 7               	SET	_INTCTL_bits, 7
                                           _00002_DS_
00758e   9f71     MOV	R7, #0x71            	TRAPPC1	_RT_Check_Input
00758f   5f73     MOV	0x73, R7             	TRAPPC2	_RT_Check_Input
007590   e071     MOVP	#0x71               	PAGESEL	_RT_Check_Input
007591   d1e9     CALL	#0x1e9              	CALL	_RT_Check_Input
007592   9f75     MOV	R7, #0x75            	TRAPPC1	$+2
007593   5f73     MOV	0x73, R7             	TRAPPC2	$+1
007594   e075     MOVP	#0x75               	PAGESEL	$
007595   9f71     MOV	R7, #0x71            	TRAPPC1	_Tail_Stop_Check_Input
007596   5f73     MOV	0x73, R7             	TRAPPC2	_Tail_Stop_Check_Input
007597   e071     MOVP	#0x71               	PAGESEL	_Tail_Stop_Check_Input
007598   d157     CALL	#0x157              	CALL	_Tail_Stop_Check_Input
007599   9f75     MOV	R7, #0x75            	TRAPPC1	$+2
00759a   5f73     MOV	0x73, R7             	TRAPPC2	$+1
00759b   e075     MOVP	#0x75               	PAGESEL	$
00759c   c58e     JMP	#0x58e               	JMP	_00002_DS_
00759d   0008     CRET                     	CRET	
                                           	.end
                                           .org_7ef0
007ef0   5170     MOV	0x70, R0            
007ef1   5017     MOV	R0, 0x17            
007ef2   e100     MOVB	#0x00              
007ef3   624a     CLR	0x4a, 2             
007ef4   614a     CLR	0x4a, 1             
007ef5   51f5     MOV	0xf5, R0            
007ef6   500b     MOV	R0, 0xb             
007ef7   5172     MOV	0x72, R0            
007ef8   502e     MOV	R0, 0x2e            
007ef9   5171     MOV	0x71, R0            
007efa   7371     JNB	0x71, 3             
007efb   660b     CLR	0xb, 6              
007efc   53f4     MOV	0xf4, R1            
007efd   5003     MOV	R0, 0x3             
007efe   51f6     MOV	0xf6, R0            
007eff   e07f     MOVP	#0x7F              
007f00   506e     MOV	R0, 0x6e            
007f01   fe38     CLR	R0, 7               
007f02   517f     MOV	0x7f, R0            
007f03   506f     MOV	R0, 0x6f            
007f04   fe00     CLR	R0, 0               
007f05   307f     ORL	R0, 0x7f            
007f06   7a03     JB	0x3, 2               
007f07   cf0a     JMP	#0xf0a              
007f08   03f7     CLR	0xf7                
007f09   cf16     JMP	#0xf16              
007f0a   7a76     JB	0x76, 2              
007f0b   cf0e     JMP	#0xf0e              
007f0c   9875     MOV	R0, #0x75           
007f0d   cf13     JMP	#0xf13              
007f0e   7976     JB	0x76, 1              
007f0f   cf12     JMP	#0xf12              
007f10   9874     MOV	R0, #0x74           
007f11   cf13     JMP	#0xf13              
007f12   9873     MOV	R0, #0x73           
007f13   5104     MOV	0x4, R0             
007f14   5000     MOV	R0, 0               
007f15   51f7     MOV	0xf7, R0            
007f16   503b     MOV	R0, 0x3b            
007f17   51f8     MOV	0xf8, R0            
007f18   5039     MOV	R0, 0x39            
007f19   51f9     MOV	0xf9, R0            
007f1a   503c     MOV	R0, 0x3c            
007f1b   51fa     MOV	0xfa, R0            
007f1c   68f3     SET	0xf3, 0             
007f1d   5002     MOV	R0, 0x2             
007f1e   51fd     MOV	0xfd, R0            
007f1f   98c8     MOV	R0, #0xc8           
007f20   5102     MOV	0x2, R0             
007f21   60f3     CLR	0xf3, 0             
007f22   5002     MOV	R0, 0x2             
007f23   51fd     MOV	0xfd, R0            
007f24   98c8     MOV	R0, #0xc8           
007f25   5102     MOV	0x2, R0             
007f26   9806     MOV	R0, #0x6            
007f27   38fb     SUB	R0, 0xfb            
007f28   7003     JNB	0x3, 0              
007f29   cf1c     JMP	#0xf1c              
007f2a   50fb     MOV	R0, 0xfb            
007f2b   2102     ADD	0x2, R0             
007f2c   cf32     JMP	#0xf32              
007f2d   cf34     JMP	#0xf34              
007f2e   cf64     JMP	#0xf64              
007f2f   cf88     JMP	#0xf88              
007f30   cfb3     JMP	#0xfb3              
007f31   cfb5     JMP	#0xfb5              
007f32   69f3     SET	0xf3, 1             
007f33   cf35     JMP	#0xf35              
007f34   61f3     CLR	0xf3, 1             
007f35   68f3     SET	0xf3, 0             
007f36   5002     MOV	R0, 0x2             
007f37   51fd     MOV	0xfd, R0            
007f38   98c8     MOV	R0, #0xc8           
007f39   5102     MOV	0x2, R0             
007f3a   50fb     MOV	R0, 0xfb            
007f3b   5104     MOV	0x4, R0             
007f3c   5002     MOV	R0, 0x2             
007f3d   51fd     MOV	0xfd, R0            
007f3e   98c8     MOV	R0, #0xc8           
007f3f   5102     MOV	0x2, R0             
007f40   50fb     MOV	R0, 0xfb            
007f41   51fe     MOV	0xfe, R0            
007f42   5002     MOV	R0, 0x2             
007f43   51fd     MOV	0xfd, R0            
007f44   98c8     MOV	R0, #0xc8           
007f45   5102     MOV	0x2, R0             
007f46   50fb     MOV	R0, 0xfb            
007f47   51ff     MOV	0xff, R0            
007f48   79f3     JB	0xf3, 1              
007f49   cf56     JMP	#0xf56              
007f4a   50fe     MOV	R0, 0xfe            
007f4b   5117     MOV	0x17, R0            
007f4c   ffff     NOPZ                    
007f4d   5000     MOV	R0, 0               
007f4e   e100     MOVB	#0x00              
007f4f   51fb     MOV	0xfb, R0            
007f50   60f3     CLR	0xf3, 0             
007f51   5002     MOV	R0, 0x2             
007f52   51fd     MOV	0xfd, R0            
007f53   98c8     MOV	R0, #0xc8           
007f54   5102     MOV	0x2, R0             
007f55   cf60     JMP	#0xf60              
007f56   5002     MOV	R0, 0x2             
007f57   51fd     MOV	0xfd, R0            
007f58   98c8     MOV	R0, #0xc8           
007f59   5102     MOV	0x2, R0             
007f5a   50fb     MOV	R0, 0xfb            
007f5b   52fe     MOV	R1, 0xfe            
007f5c   5317     MOV	0x17, R1            
007f5d   ffff     NOPZ                    
007f5e   5100     MOV	0, R0               
007f5f   e100     MOVB	#0x00              
007f60   0b04     INC	0x4                 
007f61   09ff     DECJZ	0xff              
007f62   cf48     JMP	#0xf48              
007f63   cf1c     JMP	#0xf1c              
007f64   68f3     SET	0xf3, 0             
007f65   5002     MOV	R0, 0x2             
007f66   51fd     MOV	0xfd, R0            
007f67   98c8     MOV	R0, #0xc8           
007f68   5102     MOV	0x2, R0             
007f69   50fb     MOV	R0, 0xfb            
007f6a   513b     MOV	0x3b, R0            
007f6b   5002     MOV	R0, 0x2             
007f6c   51fd     MOV	0xfd, R0            
007f6d   98c8     MOV	R0, #0xc8           
007f6e   5102     MOV	0x2, R0             
007f6f   5002     MOV	R0, 0x2             
007f70   51fd     MOV	0xfd, R0            
007f71   98c8     MOV	R0, #0xc8           
007f72   5102     MOV	0x2, R0             
007f73   52fb     MOV	R1, 0xfb            
007f74   9801     MOV	R0, #0x1            
007f75   513c     MOV	0x3c, R0            
007f76   ffff     NOPZ                    
007f77   60f3     CLR	0xf3, 0             
007f78   5039     MOV	R0, 0x39            
007f79   51fb     MOV	0xfb, R0            
007f7a   5002     MOV	R0, 0x2             
007f7b   51fd     MOV	0xfd, R0            
007f7c   98c8     MOV	R0, #0xc8           
007f7d   5102     MOV	0x2, R0             
007f7e   9800     MOV	R0, #0              
007f7f   51fb     MOV	0xfb, R0            
007f80   5002     MOV	R0, 0x2             
007f81   51fd     MOV	0xfd, R0            
007f82   98c8     MOV	R0, #0xc8           
007f83   5102     MOV	0x2, R0             
007f84   0b3b     INC	0x3b                
007f85   ff59     DECJZ	R1                
007f86   cf74     JMP	#0xf74              
007f87   cf1c     JMP	#0xf1c              
007f88   68f3     SET	0xf3, 0             
007f89   5002     MOV	R0, 0x2             
007f8a   51fd     MOV	0xfd, R0            
007f8b   98c8     MOV	R0, #0xc8           
007f8c   5102     MOV	0x2, R0             
007f8d   980c     MOV	R0, #0xc            
007f8e   38fb     SUB	R0, 0xfb            
007f8f   7003     JNB	0x3, 0              
007f90   cf1c     JMP	#0xf1c              
007f91   50fb     MOV	R0, 0xfb            
007f92   f800     ADD	R0, R0              
007f93   2102     ADD	0x2, R0             
007f94   5070     MOV	R0, 0x70            
007f95   cfac     JMP	#0xfac              
007f96   50f4     MOV	R0, 0xf4            
007f97   cfac     JMP	#0xfac              
007f98   f8d0     MOV	R0, R2              
007f99   cfac     JMP	#0xfac              
007f9a   f8d8     MOV	R0, R3              
007f9b   cfac     JMP	#0xfac              
007f9c   f8e0     MOV	R0, R4              
007f9d   cfac     JMP	#0xfac              
007f9e   f8e8     MOV	R0, R5              
007f9f   cfac     JMP	#0xfac              
007fa0   f8f0     MOV	R0, R6              
007fa1   cfac     JMP	#0xfac              
007fa2   f8f8     MOV	R0, R7              
007fa3   cfac     JMP	#0xfac              
007fa4   50f6     MOV	R0, 0xf6            
007fa5   cfac     JMP	#0xfac              
007fa6   50f7     MOV	R0, 0xf7            
007fa7   cfac     JMP	#0xfac              
007fa8   506e     MOV	R0, 0x6e            
007fa9   cfac     JMP	#0xfac              
007faa   506f     MOV	R0, 0x6f            
007fab   cfac     JMP	#0xfac              
007fac   51fb     MOV	0xfb, R0            
007fad   60f3     CLR	0xf3, 0             
007fae   5002     MOV	R0, 0x2             
007faf   51fd     MOV	0xfd, R0            
007fb0   98c8     MOV	R0, #0xc8           
007fb1   5102     MOV	0x2, R0             
007fb2   cf1c     JMP	#0xf1c              
007fb3   6f6e     SET	0x6e, 7             
007fb4   cfb6     JMP	#0xfb6              
007fb5   676e     CLR	0x6e, 7             
007fb6   6a25     SET	0x25, 2             
007fb7   50f9     MOV	R0, 0xf9            
007fb8   5139     MOV	0x39, R0            
007fb9   50f8     MOV	R0, 0xf8            
007fba   513b     MOV	0x3b, R0            
007fbb   50f6     MOV	R0, 0xf6            
007fbc   5103     MOV	0x3, R0             
007fbd   52f4     MOV	R1, 0xf4            
007fbe   7b71     JB	0x71, 3              
007fbf   cfc2     JMP	#0xfc2              
007fc0   7672     JNB	0x72, 6             
007fc1   6e0b     SET	0xb, 6              
007fc2   50f7     MOV	R0, 0xf7            
007fc3   510a     MOV	0xa, R0             
007fc4   50f5     MOV	R0, 0xf5            
007fc5   5117     MOV	0x17, R0            
007fc6   5070     MOV	R0, 0x70            
007fc7   0008     CRET                    
007fc8   e100     MOVB	#0x00              
007fc9   6a25     SET	0x25, 2             
007fca   6925     SET	0x25, 1             
007fcb   7105     JNB	0x5, 1              
007fcc   cfcb     JMP	#0xfcb              
007fcd   7905     JB	0x5, 1               
007fce   cfcd     JMP	#0xfcd              
007fcf   6225     CLR	0x25, 2             
007fd0   6245     CLR	0x45, 2             
007fd1   9808     MOV	R0, #0x8            
007fd2   51fc     MOV	0xfc, R0            
007fd3   50fb     MOV	R0, 0xfb            
007fd4   78f3     JB	0xf3, 0              
007fd5   cfe3     JMP	#0xfe3              
007fd6   6a45     SET	0x45, 2             
007fd7   cfd8     JMP	#0xfd8              
007fd8   cfd9     JMP	#0xfd9              
007fd9   cfda     JMP	#0xfda              
007fda   0000     NOP                     
007fdb   6245     CLR	0x45, 2             
007fdc   6003     CLR	0x3, 0              
007fdd   7105     JNB	0x5, 1              
007fde   6803     SET	0x3, 0              
007fdf   13fb     RLC	0xfb                
007fe0   09fc     DECJZ	0xfc              
007fe1   cfd6     JMP	#0xfd6              
007fe2   cff0     JMP	#0xff0              
007fe3   6125     CLR	0x25, 1             
007fe4   cfe5     JMP	#0xfe5              
007fe5   0000     NOP                     
007fe6   6a45     SET	0x45, 2             
007fe7   ff18     RLC	R0                  
007fe8   7803     JB	0x3, 0               
007fe9   6145     CLR	0x45, 1             
007fea   7003     JNB	0x3, 0              
007feb   6945     SET	0x45, 1             
007fec   cfed     JMP	#0xfed              
007fed   6245     CLR	0x45, 2             
007fee   09fc     DECJZ	0xfc              
007fef   cfe4     JMP	#0xfe4              
007ff0   50fd     MOV	R0, 0xfd            
007ff1   8003     ADD	R0, #0x3            
007ff2   5102     MOV	0x2, R0             
                                           .org_8004
008004   cef0     JMP	#0xef0              
                                           .config
008007   06d4     DECR	0xd4               
008008   ffff     NOPZ                    
                                           func.__gsinit_startup
007775   9f75     MOV	R7, #0x75           
007776   5f73     MOV	0x73, R7            
007777   e075     MOVP	#0x75              
007778   d59e     CALL	#0x59e             
007779   9f77     MOV	R7, #0x77           
00777a   5f73     MOV	0x73, R7            
00777b   e077     MOVP	#0x77              
00777c   0008     CRET                    
                                           _sartup_A100GQS
00766d   e100     MOVB	#0x00              
00766e   6f53     SET	0x53, 7             
00766f   6853     SET	0x53, 0             
007670   e070     MOVP	#0x70              
007671   dffb     CALL	#0xffb             
007672   e103     MOVB	#0x03              
007673   5161     MOV	0x61, R0            
007674   ffff     NOPZ                    
007675   ffff     NOPZ                    
007676   dff8     CALL	#0xff8             
007677   5165     MOV	0x65, R0            
007678   ffff     NOPZ                    
007679   ffff     NOPZ                    
00767a   e100     MOVB	#0x00              
00767b   6753     CLR	0x53, 7             
00767c   dffe     CALL	#0xffe             
00767d   e100     MOVB	#0x00              
00767e   5137     MOV	0x37, R0            
00767f   ffff     NOPZ                    
007680   ffff     NOPZ                    
007681   dffd     CALL	#0xffd             
007682   5130     MOV	0x30, R0            
007683   ffff     NOPZ                    
007684   ffff     NOPZ                    
007685   dffc     CALL	#0xffc             
007686   e101     MOVB	#0x01              
007687   5132     MOV	0x32, R0            
007688   ffff     NOPZ                    
007689   ffff     NOPZ                    
00768a   dffa     CALL	#0xffa             
00768b   e102     MOVB	#0x02              
00768c   513b     MOV	0x3b, R0            
00768d   ffff     NOPZ                    
00768e   dff9     CALL	#0xff9             
00768f   513c     MOV	0x3c, R0            
007690   ffff     NOPZ                    
007691   0008     CRET                    
                                           .cinit
00759e   e100     MOVB	#0x00              
00759f   9870     MOV	R0, #0x70           
0075a0   9903     MOV	R1, #0x3            
0075a1   e075     MOVP	#0x75              
0075a2   d5d5     CALL	#0x5d5             
0075a3   987f     MOV	R0, #0x7f           
0075a4   991b     MOV	R1, #0x1b           
0075a5   e075     MOVP	#0x75              
0075a6   d5d5     CALL	#0x5d5             
0075a7   98a6     MOV	R0, #0xa6           
0075a8   9902     MOV	R1, #0x2            
0075a9   e075     MOVP	#0x75              
0075aa   d5d5     CALL	#0x5d5             
0075ab   98aa     MOV	R0, #0xaa           
0075ac   991a     MOV	R1, #0x1a           
0075ad   e075     MOVP	#0x75              
0075ae   d5d5     CALL	#0x5d5             
0075af   98c5     MOV	R0, #0xc5           
0075b0   9903     MOV	R1, #0x3            
0075b1   e075     MOVP	#0x75              
0075b2   d5d5     CALL	#0x5d5             
0075b3   98f3     MOV	R0, #0xf3           
0075b4   990d     MOV	R1, #0xd            
0075b5   e075     MOVP	#0x75              
0075b6   d5d5     CALL	#0x5d5             
0075b7   9800     MOV	R0, #0              
0075b8   5173     MOV	0x73, R0            
0075b9   5174     MOV	0x74, R0            
0075ba   5175     MOV	0x75, R0            
0075bb   5176     MOV	0x76, R0            
0075bc   5177     MOV	0x77, R0            
0075bd   9800     MOV	R0, #0              
0075be   519a     MOV	0x9a, R0            
0075bf   519b     MOV	0x9b, R0            
0075c0   9800     MOV	R0, #0              
0075c1   519c     MOV	0x9c, R0            
0075c2   519d     MOV	0x9d, R0            
0075c3   9800     MOV	R0, #0              
0075c4   519e     MOV	0x9e, R0            
0075c5   519f     MOV	0x9f, R0            
0075c6   9800     MOV	R0, #0              
0075c7   51a0     MOV	0xa0, R0            
0075c8   51a1     MOV	0xa1, R0            
0075c9   9800     MOV	R0, #0              
0075ca   51a2     MOV	0xa2, R0            
0075cb   51a3     MOV	0xa3, R0            
0075cc   9800     MOV	R0, #0              
0075cd   51a4     MOV	0xa4, R0            
0075ce   51a5     MOV	0xa5, R0            
0075cf   9800     MOV	R0, #0              
0075d0   51a8     MOV	0xa8, R0            
0075d1   51a9     MOV	0xa9, R0            
0075d2   9800     MOV	R0, #0              
0075d3   51c4     MOV	0xc4, R0            
0075d4   0008     CRET                    
0075d5   020a     CLR	R2                  
0075d6   f750     ST	[R0], R2             
0075d7   ff10     INC	R0                  
0075d8   ff59     DECJZ	R1                
0075d9   c5d6     JMP	#0x5d6              
0075da   0008     CRET                    
