gplink-2.0.0
Copyright (c) IDE Tool Project
 
 
Address  Value    Disassembly              Source
-------  -----    -----------              ------
                                           	.radix dec
                                           	.include "KF8A100GQS.inc"
                                           func._Tail1_2_Stop_FullWater_Close	.code
                                           _Tail1_2_Stop_FullWater_Close	;Function start
000010   98ff     MOV	R0, #0xff            	MOV	R0,# 0xff
000011   e100     MOVB	#0x00               	BANKSEL	_Stop_High_Addr
000012   51d9     MOV	0xd9, R0             	MOV	_Stop_High_Addr, R0
000013   980f     MOV	R0, #0xf             	MOV	R0,# 0x0f
                                           	BANKSEL	_Stop_High_Addr
000014   51da     MOV	0xda, R0             	MOV	(_Stop_High_Addr + 1), R0
000015   98ff     MOV	R0, #0xff            	MOV	R0,# 0xff
                                           	BANKSEL	_Stop_Low_Addr
000016   51c7     MOV	0xc7, R0             	MOV	_Stop_Low_Addr, R0
000017   980f     MOV	R0, #0xf             	MOV	R0,# 0x0f
                                           	BANKSEL	_Stop_Low_Addr
000018   51c8     MOV	0xc8, R0             	MOV	(_Stop_Low_Addr + 1), R0
000019   982b     MOV	R0, #0x2b            	MOV	R0,# 0x2b
                                           	BANKSEL	r0x1004
00001a   51a1     MOV	0xa1, R0             	MOV	r0x1004, R0
                                           _00267_DS_
00001b   981f     MOV	R0, #0x1f            	MOV	R0,# 0x1f
                                           	BANKSEL	r0x1004
00001c   38a1     SUB	R0, 0xa1             	SUB	R0, r0x1004
00001d   7803     JB	0x3, 0                	JB	PSW, 0
00001e   c074     JMP	#0x74                	JMP	_00270_DS_
                                           	BANKSEL	r0x1004
00001f   0ea1     MOVZ	R0, 0xa1            	MOVZ	R0, r0x1004
                                           	BANKSEL	r0x1005
000020   51a0     MOV	0xa0, R0             	MOV	r0x1005, R0
                                           	BANKSEL	r0x1006
000021   039f     CLR	0x9f                 	CLR	r0x1006
000022   98e1     MOV	R0, #0xe1            	MOV	R0,# 0xe1
                                           	BANKSEL	r0x1005
000023   21a0     ADD	0xa0, R0             	ADD	r0x1005, R0
000024   7003     JNB	0x3, 0               	JNB	PSW, 0
000025   c027     JMP	#0x27                	JMP	_00361_DS_
                                           	BANKSEL	r0x1006
000026   079f     DEC	0x9f                 	DEC	r0x1006
                                           _00361_DS_
000027   9801     MOV	R0, #0x1             	MOV	R0,# 0x01
                                           	BANKSEL	r0x1007
000028   519e     MOV	0x9e, R0             	MOV	r0x1007, R0
000029   9800     MOV	R0, #0               	MOV	R0,# 0x00
                                           	BANKSEL	r0x1008
00002a   519d     MOV	0x9d, R0             	MOV	r0x1008, R0
                                           	BANKSEL	r0x1005
00002b   0ea0     MOVZ	R0, 0xa0            	MOVZ	R0, r0x1005
00002c   ff10     INC	R0                   	INC	R0
00002d   c032     JMP	#0x32                	JMP	_00343_DS_
                                           _00342_DS_
00002e   6003     CLR	0x3, 0               	CLR	PSW, 0
00002f   e100     MOVB	#0x00               	BANKSEL	r0x1007
000030   139e     RLC	0x9e                 	RLC	r0x1007
                                           	BANKSEL	r0x1008
000031   139d     RLC	0x9d                 	RLC	r0x1008
                                           _00343_DS_
000032   ff58     DECJZ	R0                 	DECJZ	R0
000033   c02e     JMP	#0x2e                	JMP	_00342_DS_
                                           	BANKSEL	r0x1007
000034   0e9e     MOVZ	R0, 0x9e            	MOVZ	R0, r0x1007
                                           	BANKSEL	r0x1005
000035   51a0     MOV	0xa0, R0             	MOV	r0x1005, R0
                                           	BANKSEL	_Stop_Low_Addr
000036   39c7     SUB	0xc7, R0             	SUB	_Stop_Low_Addr, R0
                                           	BANKSEL	r0x1008
000037   0e9d     MOVZ	R0, 0x9d            	MOVZ	R0, r0x1008
                                           	BANKSEL	r0x1006
000038   519f     MOV	0x9f, R0             	MOV	r0x1006, R0
000039   7803     JB	0x3, 0                	JB	PSW, 0
00003a   ff10     INC	R0                   	INC	R0
00003b   7203     JNB	0x3, 2               	JNB	PSW, 2
00003c   c03e     JMP	#0x3e                	JMP	_00362_DS_
                                           	BANKSEL	_Stop_Low_Addr
00003d   39c8     SUB	0xc8, R0             	SUB	(_Stop_Low_Addr + 1), R0
                                           _00362_DS_
00003e   9810     MOV	R0, #0x10            	MOV	R0,# 0x10
                                           	BANKSEL	STK01
00003f   51ef     MOV	0xef, R0             	MOV	STK01, R0
                                           	BANKSEL	r0x1004
000040   0ea1     MOVZ	R0, 0xa1            	MOVZ	R0, r0x1004
                                           	BANKSEL	STK00
000041   51f0     MOV	0xf0, R0             	MOV	STK00, R0
000042   9802     MOV	R0, #0x2             	MOV	R0,# 0x02
000043   9f0e     MOV	R7, #0xe             	TRAPPC1	_SPI_Write_2Byte
000044   5f73     MOV	0x73, R7             	TRAPPC2	_SPI_Write_2Byte
000045   e00e     MOVP	#0x0E               	PAGESEL	_SPI_Write_2Byte
000046   de03     CALL	#0xe03              	CALL	_SPI_Write_2Byte
000047   9f00     MOV	R7, #0               	TRAPPC1	$+2
000048   5f73     MOV	0x73, R7             	TRAPPC2	$+1
000049   e000     MOVP	#0x00               	PAGESEL	$
00004a   e100     MOVB	#0x00               	BANKSEL	r0x1004
00004b   06a1     DECR	0xa1                	DECR	r0x1004
                                           	BANKSEL	r0x1005
00004c   51a0     MOV	0xa0, R0             	MOV	r0x1005, R0
00004d   98ff     MOV	R0, #0xff            	MOV	R0,# 0xff
                                           	BANKSEL	STK01
00004e   51ef     MOV	0xef, R0             	MOV	STK01, R0
                                           	BANKSEL	r0x1005
00004f   0ea0     MOVZ	R0, 0xa0            	MOVZ	R0, r0x1005
                                           	BANKSEL	STK00
000050   51f0     MOV	0xf0, R0             	MOV	STK00, R0
000051   9802     MOV	R0, #0x2             	MOV	R0,# 0x02
000052   9f0e     MOV	R7, #0xe             	TRAPPC1	_SPI_Write_2Byte
000053   5f73     MOV	0x73, R7             	TRAPPC2	_SPI_Write_2Byte
000054   e00e     MOVP	#0x0E               	PAGESEL	_SPI_Write_2Byte
000055   de03     CALL	#0xe03              	CALL	_SPI_Write_2Byte
000056   9f00     MOV	R7, #0               	TRAPPC1	$+2
000057   5f73     MOV	0x73, R7             	TRAPPC2	$+1
000058   e000     MOVP	#0x00               	PAGESEL	$
000059   9800     MOV	R0, #0               	MOV	R0,# 0x00
00005a   e100     MOVB	#0x00               	BANKSEL	STK01
00005b   51ef     MOV	0xef, R0             	MOV	STK01, R0
00005c   9837     MOV	R0, #0x37            	MOV	R0,# 0x37
                                           	BANKSEL	STK00
00005d   51f0     MOV	0xf0, R0             	MOV	STK00, R0
00005e   9802     MOV	R0, #0x2             	MOV	R0,# 0x02
00005f   9f0e     MOV	R7, #0xe             	TRAPPC1	_SPI_Write_2Byte
000060   5f73     MOV	0x73, R7             	TRAPPC2	_SPI_Write_2Byte
000061   e00e     MOVP	#0x0E               	PAGESEL	_SPI_Write_2Byte
000062   de03     CALL	#0xe03              	CALL	_SPI_Write_2Byte
000063   9f00     MOV	R7, #0               	TRAPPC1	$+2
000064   5f73     MOV	0x73, R7             	TRAPPC2	$+1
000065   e000     MOVP	#0x00               	PAGESEL	$
000066   9841     MOV	R0, #0x41            	MOV	R0,# 0x41
000067   e100     MOVB	#0x00               	BANKSEL	STK00
000068   51f0     MOV	0xf0, R0             	MOV	STK00, R0
000069   9800     MOV	R0, #0               	MOV	R0,# 0x00
00006a   9f0f     MOV	R7, #0xf             	TRAPPC1	_delay_ms
00006b   5f73     MOV	0x73, R7             	TRAPPC2	_delay_ms
00006c   e00f     MOVP	#0x0F               	PAGESEL	_delay_ms
00006d   df0e     CALL	#0xf0e              	CALL	_delay_ms
00006e   9f00     MOV	R7, #0               	TRAPPC1	$+2
00006f   5f73     MOV	0x73, R7             	TRAPPC2	$+1
000070   e000     MOVP	#0x00               	PAGESEL	$
000071   e100     MOVB	#0x00               	BANKSEL	r0x1004
000072   07a1     DEC	0xa1                 	DEC	r0x1004
000073   c01b     JMP	#0x1b                	JMP	_00267_DS_
                                           _00270_DS_
                                           	BANKSEL	_Stop_High_Addr
000074   03d9     CLR	0xd9                 	CLR	_Stop_High_Addr
                                           	BANKSEL	_Stop_High_Addr
000075   03da     CLR	0xda                 	CLR	(_Stop_High_Addr + 1)
                                           	BANKSEL	_Stop_Low_Addr
000076   03c7     CLR	0xc7                 	CLR	_Stop_Low_Addr
                                           	BANKSEL	_Stop_Low_Addr
000077   03c8     CLR	0xc8                 	CLR	(_Stop_Low_Addr + 1)
000078   982b     MOV	R0, #0x2b            	MOV	R0,# 0x2b
                                           	BANKSEL	r0x1004
000079   51a1     MOV	0xa1, R0             	MOV	r0x1004, R0
                                           _00271_DS_
00007a   9820     MOV	R0, #0x20            	MOV	R0,# 0x20
                                           	BANKSEL	r0x1004
00007b   38a1     SUB	R0, 0xa1             	SUB	R0, r0x1004
00007c   7803     JB	0x3, 0                	JB	PSW, 0
00007d   c0da     JMP	#0xda                	JMP	_00274_DS_
                                           	BANKSEL	r0x1004
00007e   0ea1     MOVZ	R0, 0xa1            	MOVZ	R0, r0x1004
                                           	BANKSEL	r0x1005
00007f   51a0     MOV	0xa0, R0             	MOV	r0x1005, R0
                                           	BANKSEL	r0x1006
000080   039f     CLR	0x9f                 	CLR	r0x1006
000081   98e1     MOV	R0, #0xe1            	MOV	R0,# 0xe1
                                           	BANKSEL	r0x1005
000082   21a0     ADD	0xa0, R0             	ADD	r0x1005, R0
000083   7003     JNB	0x3, 0               	JNB	PSW, 0
000084   c086     JMP	#0x86                	JMP	_00363_DS_
                                           	BANKSEL	r0x1006
000085   079f     DEC	0x9f                 	DEC	r0x1006
                                           _00363_DS_
                                           	BANKSEL	r0x1005
000086   0ea0     MOVZ	R0, 0xa0            	MOVZ	R0, r0x1005
000087   a00d     SUB	R0, #0xd             	SUB	R0,# 0x0d
                                           	BANKSEL	r0x1005
000088   51a0     MOV	0xa0, R0             	MOV	r0x1005, R0
                                           	BANKSEL	r0x1006
000089   0e9f     MOVZ	R0, 0x9f            	MOVZ	R0, r0x1006
00008a   7003     JNB	0x3, 0               	JNB	PSW, 0
00008b   c08d     JMP	#0x8d                	JMP	_00364_DS_
                                           	BANKSEL	r0x1006
00008c   0a9f     INCR	0x9f                	INCR	r0x1006
                                           _00364_DS_
00008d   a000     SUB	R0, #0               	SUB	R0,# 0x00
                                           	BANKSEL	r0x1006
00008e   519f     MOV	0x9f, R0             	MOV	r0x1006, R0
00008f   9801     MOV	R0, #0x1             	MOV	R0,# 0x01
                                           	BANKSEL	r0x1007
000090   519e     MOV	0x9e, R0             	MOV	r0x1007, R0
000091   9800     MOV	R0, #0               	MOV	R0,# 0x00
                                           	BANKSEL	r0x1008
000092   519d     MOV	0x9d, R0             	MOV	r0x1008, R0
                                           	BANKSEL	r0x1005
000093   0ea0     MOVZ	R0, 0xa0            	MOVZ	R0, r0x1005
000094   ff10     INC	R0                   	INC	R0
000095   c09a     JMP	#0x9a                	JMP	_00346_DS_
                                           _00345_DS_
000096   6003     CLR	0x3, 0               	CLR	PSW, 0
000097   e100     MOVB	#0x00               	BANKSEL	r0x1007
000098   139e     RLC	0x9e                 	RLC	r0x1007
                                           	BANKSEL	r0x1008
000099   139d     RLC	0x9d                 	RLC	r0x1008
                                           _00346_DS_
00009a   ff58     DECJZ	R0                 	DECJZ	R0
00009b   c096     JMP	#0x96                	JMP	_00345_DS_
                                           	BANKSEL	r0x1007
00009c   0e9e     MOVZ	R0, 0x9e            	MOVZ	R0, r0x1007
                                           	BANKSEL	_Stop_Low_Addr
00009d   51c7     MOV	0xc7, R0             	MOV	_Stop_Low_Addr, R0
                                           	BANKSEL	r0x1008
00009e   0e9d     MOVZ	R0, 0x9d            	MOVZ	R0, r0x1008
                                           	BANKSEL	_Stop_Low_Addr
00009f   51c8     MOV	0xc8, R0             	MOV	(_Stop_Low_Addr + 1), R0
                                           	BANKSEL	_Stop_Low_Addr
0000a0   04c7     CPLR	0xc7                	CPLR	_Stop_Low_Addr
                                           	BANKSEL	_Stop_High_Addr
0000a1   51d9     MOV	0xd9, R0             	MOV	_Stop_High_Addr, R0
                                           	BANKSEL	_Stop_Low_Addr
0000a2   04c8     CPLR	0xc8                	CPLR	(_Stop_Low_Addr + 1)
                                           	BANKSEL	_Stop_High_Addr
0000a3   51da     MOV	0xda, R0             	MOV	(_Stop_High_Addr + 1), R0
0000a4   9810     MOV	R0, #0x10            	MOV	R0,# 0x10
                                           	BANKSEL	STK01
0000a5   51ef     MOV	0xef, R0             	MOV	STK01, R0
                                           	BANKSEL	r0x1004
0000a6   0ea1     MOVZ	R0, 0xa1            	MOVZ	R0, r0x1004
                                           	BANKSEL	STK00
0000a7   51f0     MOV	0xf0, R0             	MOV	STK00, R0
0000a8   9801     MOV	R0, #0x1             	MOV	R0,# 0x01
0000a9   9f0e     MOV	R7, #0xe             	TRAPPC1	_SPI_Write_2Byte
0000aa   5f73     MOV	0x73, R7             	TRAPPC2	_SPI_Write_2Byte
0000ab   e00e     MOVP	#0x0E               	PAGESEL	_SPI_Write_2Byte
0000ac   de03     CALL	#0xe03              	CALL	_SPI_Write_2Byte
0000ad   9f00     MOV	R7, #0               	TRAPPC1	$+2
0000ae   5f73     MOV	0x73, R7             	TRAPPC2	$+1
0000af   e000     MOVP	#0x00               	PAGESEL	$
0000b0   e100     MOVB	#0x00               	BANKSEL	r0x1004
0000b1   06a1     DECR	0xa1                	DECR	r0x1004
                                           	BANKSEL	r0x1005
0000b2   51a0     MOV	0xa0, R0             	MOV	r0x1005, R0
0000b3   98ff     MOV	R0, #0xff            	MOV	R0,# 0xff
                                           	BANKSEL	STK01
0000b4   51ef     MOV	0xef, R0             	MOV	STK01, R0
                                           	BANKSEL	r0x1005
0000b5   0ea0     MOVZ	R0, 0xa0            	MOVZ	R0, r0x1005
                                           	BANKSEL	STK00
0000b6   51f0     MOV	0xf0, R0             	MOV	STK00, R0
0000b7   9801     MOV	R0, #0x1             	MOV	R0,# 0x01
0000b8   9f0e     MOV	R7, #0xe             	TRAPPC1	_SPI_Write_2Byte
0000b9   5f73     MOV	0x73, R7             	TRAPPC2	_SPI_Write_2Byte
0000ba   e00e     MOVP	#0x0E               	PAGESEL	_SPI_Write_2Byte
0000bb   de03     CALL	#0xe03              	CALL	_SPI_Write_2Byte
0000bc   9f00     MOV	R7, #0               	TRAPPC1	$+2
0000bd   5f73     MOV	0x73, R7             	TRAPPC2	$+1
0000be   e000     MOVP	#0x00               	PAGESEL	$
0000bf   9800     MOV	R0, #0               	MOV	R0,# 0x00
0000c0   e100     MOVB	#0x00               	BANKSEL	STK01
0000c1   51ef     MOV	0xef, R0             	MOV	STK01, R0
0000c2   9837     MOV	R0, #0x37            	MOV	R0,# 0x37
                                           	BANKSEL	STK00
0000c3   51f0     MOV	0xf0, R0             	MOV	STK00, R0
0000c4   9801     MOV	R0, #0x1             	MOV	R0,# 0x01
0000c5   9f0e     MOV	R7, #0xe             	TRAPPC1	_SPI_Write_2Byte
0000c6   5f73     MOV	0x73, R7             	TRAPPC2	_SPI_Write_2Byte
0000c7   e00e     MOVP	#0x0E               	PAGESEL	_SPI_Write_2Byte
0000c8   de03     CALL	#0xe03              	CALL	_SPI_Write_2Byte
0000c9   9f00     MOV	R7, #0               	TRAPPC1	$+2
0000ca   5f73     MOV	0x73, R7             	TRAPPC2	$+1
0000cb   e000     MOVP	#0x00               	PAGESEL	$
0000cc   9841     MOV	R0, #0x41            	MOV	R0,# 0x41
0000cd   e100     MOVB	#0x00               	BANKSEL	STK00
0000ce   51f0     MOV	0xf0, R0             	MOV	STK00, R0
0000cf   9800     MOV	R0, #0               	MOV	R0,# 0x00
0000d0   9f0f     MOV	R7, #0xf             	TRAPPC1	_delay_ms
0000d1   5f73     MOV	0x73, R7             	TRAPPC2	_delay_ms
0000d2   e00f     MOVP	#0x0F               	PAGESEL	_delay_ms
0000d3   df0e     CALL	#0xf0e              	CALL	_delay_ms
0000d4   9f00     MOV	R7, #0               	TRAPPC1	$+2
0000d5   5f73     MOV	0x73, R7             	TRAPPC2	$+1
0000d6   e000     MOVP	#0x00               	PAGESEL	$
0000d7   e100     MOVB	#0x00               	BANKSEL	r0x1004
0000d8   07a1     DEC	0xa1                 	DEC	r0x1004
0000d9   c07a     JMP	#0x7a                	JMP	_00271_DS_
                                           _00274_DS_
0000da   982b     MOV	R0, #0x2b            	MOV	R0,# 0x2b
                                           	BANKSEL	r0x1004
0000db   51a1     MOV	0xa1, R0             	MOV	r0x1004, R0
                                           _00275_DS_
0000dc   981f     MOV	R0, #0x1f            	MOV	R0,# 0x1f
                                           	BANKSEL	r0x1004
0000dd   38a1     SUB	R0, 0xa1             	SUB	R0, r0x1004
0000de   7803     JB	0x3, 0                	JB	PSW, 0
0000df   c107     JMP	#0x107               	JMP	_00278_DS_
0000e0   9800     MOV	R0, #0               	MOV	R0,# 0x00
                                           	BANKSEL	STK01
0000e1   51ef     MOV	0xef, R0             	MOV	STK01, R0
                                           	BANKSEL	r0x1004
0000e2   0ea1     MOVZ	R0, 0xa1            	MOVZ	R0, r0x1004
                                           	BANKSEL	STK00
0000e3   51f0     MOV	0xf0, R0             	MOV	STK00, R0
0000e4   9802     MOV	R0, #0x2             	MOV	R0,# 0x02
0000e5   9f0e     MOV	R7, #0xe             	TRAPPC1	_SPI_Write_2Byte
0000e6   5f73     MOV	0x73, R7             	TRAPPC2	_SPI_Write_2Byte
0000e7   e00e     MOVP	#0x0E               	PAGESEL	_SPI_Write_2Byte
0000e8   de03     CALL	#0xe03              	CALL	_SPI_Write_2Byte
0000e9   9f00     MOV	R7, #0               	TRAPPC1	$+2
0000ea   5f73     MOV	0x73, R7             	TRAPPC2	$+1
0000eb   e000     MOVP	#0x00               	PAGESEL	$
0000ec   9800     MOV	R0, #0               	MOV	R0,# 0x00
0000ed   e100     MOVB	#0x00               	BANKSEL	STK01
0000ee   51ef     MOV	0xef, R0             	MOV	STK01, R0
0000ef   9837     MOV	R0, #0x37            	MOV	R0,# 0x37
                                           	BANKSEL	STK00
0000f0   51f0     MOV	0xf0, R0             	MOV	STK00, R0
0000f1   9802     MOV	R0, #0x2             	MOV	R0,# 0x02
0000f2   9f0e     MOV	R7, #0xe             	TRAPPC1	_SPI_Write_2Byte
0000f3   5f73     MOV	0x73, R7             	TRAPPC2	_SPI_Write_2Byte
0000f4   e00e     MOVP	#0x0E               	PAGESEL	_SPI_Write_2Byte
0000f5   de03     CALL	#0xe03              	CALL	_SPI_Write_2Byte
0000f6   9f00     MOV	R7, #0               	TRAPPC1	$+2
0000f7   5f73     MOV	0x73, R7             	TRAPPC2	$+1
0000f8   e000     MOVP	#0x00               	PAGESEL	$
0000f9   9841     MOV	R0, #0x41            	MOV	R0,# 0x41
0000fa   e100     MOVB	#0x00               	BANKSEL	STK00
0000fb   51f0     MOV	0xf0, R0             	MOV	STK00, R0
0000fc   9800     MOV	R0, #0               	MOV	R0,# 0x00
0000fd   9f0f     MOV	R7, #0xf             	TRAPPC1	_delay_ms
0000fe   5f73     MOV	0x73, R7             	TRAPPC2	_delay_ms
0000ff   e00f     MOVP	#0x0F               	PAGESEL	_delay_ms
000100   df0e     CALL	#0xf0e              	CALL	_delay_ms
000101   9f01     MOV	R7, #0x1             	TRAPPC1	$+2
000102   5f73     MOV	0x73, R7             	TRAPPC2	$+1
000103   e001     MOVP	#0x01               	PAGESEL	$
000104   e100     MOVB	#0x00               	BANKSEL	r0x1004
000105   07a1     DEC	0xa1                 	DEC	r0x1004
000106   c0dc     JMP	#0xdc                	JMP	_00275_DS_
                                           _00278_DS_
                                           	BANKSEL	_Stop_High_Addr
000107   03d9     CLR	0xd9                 	CLR	_Stop_High_Addr
                                           	BANKSEL	_Stop_High_Addr
000108   03da     CLR	0xda                 	CLR	(_Stop_High_Addr + 1)
                                           	BANKSEL	_Stop_Low_Addr
000109   03c7     CLR	0xc7                 	CLR	_Stop_Low_Addr
                                           	BANKSEL	_Stop_Low_Addr
00010a   03c8     CLR	0xc8                 	CLR	(_Stop_Low_Addr + 1)
00010b   982b     MOV	R0, #0x2b            	MOV	R0,# 0x2b
                                           	BANKSEL	r0x1004
00010c   51a1     MOV	0xa1, R0             	MOV	r0x1004, R0
                                           _00279_DS_
00010d   981f     MOV	R0, #0x1f            	MOV	R0,# 0x1f
                                           	BANKSEL	r0x1004
00010e   38a1     SUB	R0, 0xa1             	SUB	R0, r0x1004
00010f   7803     JB	0x3, 0                	JB	PSW, 0
000110   c13b     JMP	#0x13b               	JMP	_00282_DS_
                                           	BANKSEL	r0x1004
000111   0ea1     MOVZ	R0, 0xa1            	MOVZ	R0, r0x1004
                                           	BANKSEL	r0x1005
000112   51a0     MOV	0xa0, R0             	MOV	r0x1005, R0
                                           	BANKSEL	r0x1006
000113   039f     CLR	0x9f                 	CLR	r0x1006
000114   98e0     MOV	R0, #0xe0            	MOV	R0,# 0xe0
                                           	BANKSEL	r0x1005
000115   21a0     ADD	0xa0, R0             	ADD	r0x1005, R0
000116   7003     JNB	0x3, 0               	JNB	PSW, 0
000117   c119     JMP	#0x119               	JMP	_00365_DS_
                                           	BANKSEL	r0x1006
000118   079f     DEC	0x9f                 	DEC	r0x1006
                                           _00365_DS_
000119   9801     MOV	R0, #0x1             	MOV	R0,# 0x01
                                           	BANKSEL	r0x1007
00011a   519e     MOV	0x9e, R0             	MOV	r0x1007, R0
00011b   9800     MOV	R0, #0               	MOV	R0,# 0x00
                                           	BANKSEL	r0x1008
00011c   519d     MOV	0x9d, R0             	MOV	r0x1008, R0
                                           	BANKSEL	r0x1005
00011d   0ea0     MOVZ	R0, 0xa0            	MOVZ	R0, r0x1005
00011e   ff10     INC	R0                   	INC	R0
00011f   c124     JMP	#0x124               	JMP	_00350_DS_
                                           _00349_DS_
000120   6003     CLR	0x3, 0               	CLR	PSW, 0
000121   e100     MOVB	#0x00               	BANKSEL	r0x1007
000122   139e     RLC	0x9e                 	RLC	r0x1007
                                           	BANKSEL	r0x1008
000123   139d     RLC	0x9d                 	RLC	r0x1008
                                           _00350_DS_
000124   ff58     DECJZ	R0                 	DECJZ	R0
000125   c120     JMP	#0x120               	JMP	_00349_DS_
                                           	BANKSEL	r0x1007
000126   0e9e     MOVZ	R0, 0x9e            	MOVZ	R0, r0x1007
                                           	BANKSEL	_Stop_Low_Addr
000127   51c7     MOV	0xc7, R0             	MOV	_Stop_Low_Addr, R0
                                           	BANKSEL	r0x1008
000128   0e9d     MOVZ	R0, 0x9d            	MOVZ	R0, r0x1008
                                           	BANKSEL	_Stop_Low_Addr
000129   51c8     MOV	0xc8, R0             	MOV	(_Stop_Low_Addr + 1), R0
                                           	BANKSEL	_Stop_Low_Addr
00012a   04c7     CPLR	0xc7                	CPLR	_Stop_Low_Addr
                                           	BANKSEL	_Stop_High_Addr
00012b   51d9     MOV	0xd9, R0             	MOV	_Stop_High_Addr, R0
                                           	BANKSEL	_Stop_Low_Addr
00012c   04c8     CPLR	0xc8                	CPLR	(_Stop_Low_Addr + 1)
                                           	BANKSEL	_Stop_High_Addr
00012d   51da     MOV	0xda, R0             	MOV	(_Stop_High_Addr + 1), R0
00012e   9841     MOV	R0, #0x41            	MOV	R0,# 0x41
                                           	BANKSEL	STK00
00012f   51f0     MOV	0xf0, R0             	MOV	STK00, R0
000130   9800     MOV	R0, #0               	MOV	R0,# 0x00
000131   9f0f     MOV	R7, #0xf             	TRAPPC1	_delay_ms
000132   5f73     MOV	0x73, R7             	TRAPPC2	_delay_ms
000133   e00f     MOVP	#0x0F               	PAGESEL	_delay_ms
000134   df0e     CALL	#0xf0e              	CALL	_delay_ms
000135   9f01     MOV	R7, #0x1             	TRAPPC1	$+2
000136   5f73     MOV	0x73, R7             	TRAPPC2	$+1
000137   e001     MOVP	#0x01               	PAGESEL	$
000138   e100     MOVB	#0x00               	BANKSEL	r0x1004
000139   07a1     DEC	0xa1                 	DEC	r0x1004
00013a   c10d     JMP	#0x10d               	JMP	_00279_DS_
                                           _00282_DS_
                                           	BANKSEL	_Stop_Low_Addr
00013b   03c7     CLR	0xc7                 	CLR	_Stop_Low_Addr
                                           	BANKSEL	_Stop_Low_Addr
00013c   03c8     CLR	0xc8                 	CLR	(_Stop_Low_Addr + 1)
00013d   98ff     MOV	R0, #0xff            	MOV	R0,# 0xff
                                           	BANKSEL	_Stop_High_Addr
00013e   51d9     MOV	0xd9, R0             	MOV	_Stop_High_Addr, R0
                                           	BANKSEL	_Stop_High_Addr
00013f   51da     MOV	0xda, R0             	MOV	(_Stop_High_Addr + 1), R0
000140   982b     MOV	R0, #0x2b            	MOV	R0,# 0x2b
                                           	BANKSEL	r0x1004
000141   51a1     MOV	0xa1, R0             	MOV	r0x1004, R0
                                           _00283_DS_
000142   981f     MOV	R0, #0x1f            	MOV	R0,# 0x1f
                                           	BANKSEL	r0x1004
000143   38a1     SUB	R0, 0xa1             	SUB	R0, r0x1004
000144   7803     JB	0x3, 0                	JB	PSW, 0
000145   c162     JMP	#0x162               	JMP	_00286_DS_
000146   98ff     MOV	R0, #0xff            	MOV	R0,# 0xff
                                           	BANKSEL	STK01
000147   51ef     MOV	0xef, R0             	MOV	STK01, R0
                                           	BANKSEL	r0x1004
000148   0ea1     MOVZ	R0, 0xa1            	MOVZ	R0, r0x1004
                                           	BANKSEL	STK00
000149   51f0     MOV	0xf0, R0             	MOV	STK00, R0
00014a   9802     MOV	R0, #0x2             	MOV	R0,# 0x02
00014b   9f0e     MOV	R7, #0xe             	TRAPPC1	_SPI_Write_2Byte
00014c   5f73     MOV	0x73, R7             	TRAPPC2	_SPI_Write_2Byte
00014d   e00e     MOVP	#0x0E               	PAGESEL	_SPI_Write_2Byte
00014e   de03     CALL	#0xe03              	CALL	_SPI_Write_2Byte
00014f   9f01     MOV	R7, #0x1             	TRAPPC1	$+2
000150   5f73     MOV	0x73, R7             	TRAPPC2	$+1
000151   e001     MOVP	#0x01               	PAGESEL	$
000152   9800     MOV	R0, #0               	MOV	R0,# 0x00
000153   e100     MOVB	#0x00               	BANKSEL	STK01
000154   51ef     MOV	0xef, R0             	MOV	STK01, R0
000155   9837     MOV	R0, #0x37            	MOV	R0,# 0x37
                                           	BANKSEL	STK00
000156   51f0     MOV	0xf0, R0             	MOV	STK00, R0
000157   9802     MOV	R0, #0x2             	MOV	R0,# 0x02
000158   9f0e     MOV	R7, #0xe             	TRAPPC1	_SPI_Write_2Byte
000159   5f73     MOV	0x73, R7             	TRAPPC2	_SPI_Write_2Byte
00015a   e00e     MOVP	#0x0E               	PAGESEL	_SPI_Write_2Byte
00015b   de03     CALL	#0xe03              	CALL	_SPI_Write_2Byte
00015c   9f01     MOV	R7, #0x1             	TRAPPC1	$+2
00015d   5f73     MOV	0x73, R7             	TRAPPC2	$+1
00015e   e001     MOVP	#0x01               	PAGESEL	$
00015f   e100     MOVB	#0x00               	BANKSEL	r0x1004
000160   07a1     DEC	0xa1                 	DEC	r0x1004
000161   c142     JMP	#0x142               	JMP	_00283_DS_
                                           _00286_DS_
000162   981f     MOV	R0, #0x1f            	MOV	R0,# 0x1f
                                           	BANKSEL	r0x1004
000163   51a1     MOV	0xa1, R0             	MOV	r0x1004, R0
                                           _00287_DS_
000164   982c     MOV	R0, #0x2c            	MOV	R0,# 0x2c
                                           	BANKSEL	r0x1004
000165   38a1     SUB	R0, 0xa1             	SUB	R0, r0x1004
000166   7003     JNB	0x3, 0               	JNB	PSW, 0
000167   c18f     JMP	#0x18f               	JMP	_00290_DS_
000168   9810     MOV	R0, #0x10            	MOV	R0,# 0x10
                                           	BANKSEL	STK01
000169   51ef     MOV	0xef, R0             	MOV	STK01, R0
                                           	BANKSEL	r0x1004
00016a   0ea1     MOVZ	R0, 0xa1            	MOVZ	R0, r0x1004
                                           	BANKSEL	STK00
00016b   51f0     MOV	0xf0, R0             	MOV	STK00, R0
00016c   9802     MOV	R0, #0x2             	MOV	R0,# 0x02
00016d   9f0e     MOV	R7, #0xe             	TRAPPC1	_SPI_Write_2Byte
00016e   5f73     MOV	0x73, R7             	TRAPPC2	_SPI_Write_2Byte
00016f   e00e     MOVP	#0x0E               	PAGESEL	_SPI_Write_2Byte
000170   de03     CALL	#0xe03              	CALL	_SPI_Write_2Byte
000171   9f01     MOV	R7, #0x1             	TRAPPC1	$+2
000172   5f73     MOV	0x73, R7             	TRAPPC2	$+1
000173   e001     MOVP	#0x01               	PAGESEL	$
000174   9800     MOV	R0, #0               	MOV	R0,# 0x00
000175   e100     MOVB	#0x00               	BANKSEL	STK01
000176   51ef     MOV	0xef, R0             	MOV	STK01, R0
000177   9837     MOV	R0, #0x37            	MOV	R0,# 0x37
                                           	BANKSEL	STK00
000178   51f0     MOV	0xf0, R0             	MOV	STK00, R0
000179   9802     MOV	R0, #0x2             	MOV	R0,# 0x02
00017a   9f0e     MOV	R7, #0xe             	TRAPPC1	_SPI_Write_2Byte
00017b   5f73     MOV	0x73, R7             	TRAPPC2	_SPI_Write_2Byte
00017c   e00e     MOVP	#0x0E               	PAGESEL	_SPI_Write_2Byte
00017d   de03     CALL	#0xe03              	CALL	_SPI_Write_2Byte
00017e   9f01     MOV	R7, #0x1             	TRAPPC1	$+2
00017f   5f73     MOV	0x73, R7             	TRAPPC2	$+1
000180   e001     MOVP	#0x01               	PAGESEL	$
000181   981e     MOV	R0, #0x1e            	MOV	R0,# 0x1e
000182   e100     MOVB	#0x00               	BANKSEL	STK00
000183   51f0     MOV	0xf0, R0             	MOV	STK00, R0
000184   9800     MOV	R0, #0               	MOV	R0,# 0x00
000185   9f0f     MOV	R7, #0xf             	TRAPPC1	_delay_ms
000186   5f73     MOV	0x73, R7             	TRAPPC2	_delay_ms
000187   e00f     MOVP	#0x0F               	PAGESEL	_delay_ms
000188   df0e     CALL	#0xf0e              	CALL	_delay_ms
000189   9f01     MOV	R7, #0x1             	TRAPPC1	$+2
00018a   5f73     MOV	0x73, R7             	TRAPPC2	$+1
00018b   e001     MOVP	#0x01               	PAGESEL	$
00018c   e100     MOVB	#0x00               	BANKSEL	r0x1004
00018d   0ba1     INC	0xa1                 	INC	r0x1004
00018e   c164     JMP	#0x164               	JMP	_00287_DS_
                                           _00290_DS_
00018f   982b     MOV	R0, #0x2b            	MOV	R0,# 0x2b
                                           	BANKSEL	r0x1004
000190   51a1     MOV	0xa1, R0             	MOV	r0x1004, R0
                                           _00291_DS_
000191   981f     MOV	R0, #0x1f            	MOV	R0,# 0x1f
                                           	BANKSEL	r0x1004
000192   38a1     SUB	R0, 0xa1             	SUB	R0, r0x1004
000193   7803     JB	0x3, 0                	JB	PSW, 0
000194   c1bc     JMP	#0x1bc               	JMP	_00294_DS_
000195   9800     MOV	R0, #0               	MOV	R0,# 0x00
                                           	BANKSEL	STK01
000196   51ef     MOV	0xef, R0             	MOV	STK01, R0
                                           	BANKSEL	r0x1004
000197   0ea1     MOVZ	R0, 0xa1            	MOVZ	R0, r0x1004
                                           	BANKSEL	STK00
000198   51f0     MOV	0xf0, R0             	MOV	STK00, R0
000199   9802     MOV	R0, #0x2             	MOV	R0,# 0x02
00019a   9f0e     MOV	R7, #0xe             	TRAPPC1	_SPI_Write_2Byte
00019b   5f73     MOV	0x73, R7             	TRAPPC2	_SPI_Write_2Byte
00019c   e00e     MOVP	#0x0E               	PAGESEL	_SPI_Write_2Byte
00019d   de03     CALL	#0xe03              	CALL	_SPI_Write_2Byte
00019e   9f01     MOV	R7, #0x1             	TRAPPC1	$+2
00019f   5f73     MOV	0x73, R7             	TRAPPC2	$+1
0001a0   e001     MOVP	#0x01               	PAGESEL	$
0001a1   9800     MOV	R0, #0               	MOV	R0,# 0x00
0001a2   e100     MOVB	#0x00               	BANKSEL	STK01
0001a3   51ef     MOV	0xef, R0             	MOV	STK01, R0
0001a4   9837     MOV	R0, #0x37            	MOV	R0,# 0x37
                                           	BANKSEL	STK00
0001a5   51f0     MOV	0xf0, R0             	MOV	STK00, R0
0001a6   9802     MOV	R0, #0x2             	MOV	R0,# 0x02
0001a7   9f0e     MOV	R7, #0xe             	TRAPPC1	_SPI_Write_2Byte
0001a8   5f73     MOV	0x73, R7             	TRAPPC2	_SPI_Write_2Byte
0001a9   e00e     MOVP	#0x0E               	PAGESEL	_SPI_Write_2Byte
0001aa   de03     CALL	#0xe03              	CALL	_SPI_Write_2Byte
0001ab   9f01     MOV	R7, #0x1             	TRAPPC1	$+2
0001ac   5f73     MOV	0x73, R7             	TRAPPC2	$+1
0001ad   e001     MOVP	#0x01               	PAGESEL	$
0001ae   981e     MOV	R0, #0x1e            	MOV	R0,# 0x1e
0001af   e100     MOVB	#0x00               	BANKSEL	STK00
0001b0   51f0     MOV	0xf0, R0             	MOV	STK00, R0
0001b1   9800     MOV	R0, #0               	MOV	R0,# 0x00
0001b2   9f0f     MOV	R7, #0xf             	TRAPPC1	_delay_ms
0001b3   5f73     MOV	0x73, R7             	TRAPPC2	_delay_ms
0001b4   e00f     MOVP	#0x0F               	PAGESEL	_delay_ms
0001b5   df0e     CALL	#0xf0e              	CALL	_delay_ms
0001b6   9f01     MOV	R7, #0x1             	TRAPPC1	$+2
0001b7   5f73     MOV	0x73, R7             	TRAPPC2	$+1
0001b8   e001     MOVP	#0x01               	PAGESEL	$
0001b9   e100     MOVB	#0x00               	BANKSEL	r0x1004
0001ba   07a1     DEC	0xa1                 	DEC	r0x1004
0001bb   c191     JMP	#0x191               	JMP	_00291_DS_
                                           _00294_DS_
0001bc   982b     MOV	R0, #0x2b            	MOV	R0,# 0x2b
                                           	BANKSEL	r0x1004
0001bd   51a1     MOV	0xa1, R0             	MOV	r0x1004, R0
                                           _00295_DS_
0001be   9820     MOV	R0, #0x20            	MOV	R0,# 0x20
                                           	BANKSEL	r0x1004
0001bf   38a1     SUB	R0, 0xa1             	SUB	R0, r0x1004
0001c0   7803     JB	0x3, 0                	JB	PSW, 0
0001c1   c1e9     JMP	#0x1e9               	JMP	_00298_DS_
0001c2   9800     MOV	R0, #0               	MOV	R0,# 0x00
                                           	BANKSEL	STK01
0001c3   51ef     MOV	0xef, R0             	MOV	STK01, R0
                                           	BANKSEL	r0x1004
0001c4   0ea1     MOVZ	R0, 0xa1            	MOVZ	R0, r0x1004
                                           	BANKSEL	STK00
0001c5   51f0     MOV	0xf0, R0             	MOV	STK00, R0
0001c6   9801     MOV	R0, #0x1             	MOV	R0,# 0x01
0001c7   9f0e     MOV	R7, #0xe             	TRAPPC1	_SPI_Write_2Byte
0001c8   5f73     MOV	0x73, R7             	TRAPPC2	_SPI_Write_2Byte
0001c9   e00e     MOVP	#0x0E               	PAGESEL	_SPI_Write_2Byte
0001ca   de03     CALL	#0xe03              	CALL	_SPI_Write_2Byte
0001cb   9f01     MOV	R7, #0x1             	TRAPPC1	$+2
0001cc   5f73     MOV	0x73, R7             	TRAPPC2	$+1
0001cd   e001     MOVP	#0x01               	PAGESEL	$
0001ce   9800     MOV	R0, #0               	MOV	R0,# 0x00
0001cf   e100     MOVB	#0x00               	BANKSEL	STK01
0001d0   51ef     MOV	0xef, R0             	MOV	STK01, R0
0001d1   9837     MOV	R0, #0x37            	MOV	R0,# 0x37
                                           	BANKSEL	STK00
0001d2   51f0     MOV	0xf0, R0             	MOV	STK00, R0
0001d3   9801     MOV	R0, #0x1             	MOV	R0,# 0x01
0001d4   9f0e     MOV	R7, #0xe             	TRAPPC1	_SPI_Write_2Byte
0001d5   5f73     MOV	0x73, R7             	TRAPPC2	_SPI_Write_2Byte
0001d6   e00e     MOVP	#0x0E               	PAGESEL	_SPI_Write_2Byte
0001d7   de03     CALL	#0xe03              	CALL	_SPI_Write_2Byte
0001d8   9f01     MOV	R7, #0x1             	TRAPPC1	$+2
0001d9   5f73     MOV	0x73, R7             	TRAPPC2	$+1
0001da   e001     MOVP	#0x01               	PAGESEL	$
0001db   981e     MOV	R0, #0x1e            	MOV	R0,# 0x1e
0001dc   e100     MOVB	#0x00               	BANKSEL	STK00
0001dd   51f0     MOV	0xf0, R0             	MOV	STK00, R0
0001de   9800     MOV	R0, #0               	MOV	R0,# 0x00
0001df   9f0f     MOV	R7, #0xf             	TRAPPC1	_delay_ms
0001e0   5f73     MOV	0x73, R7             	TRAPPC2	_delay_ms
0001e1   e00f     MOVP	#0x0F               	PAGESEL	_delay_ms
0001e2   df0e     CALL	#0xf0e              	CALL	_delay_ms
0001e3   9f01     MOV	R7, #0x1             	TRAPPC1	$+2
0001e4   5f73     MOV	0x73, R7             	TRAPPC2	$+1
0001e5   e001     MOVP	#0x01               	PAGESEL	$
0001e6   e100     MOVB	#0x00               	BANKSEL	r0x1004
0001e7   07a1     DEC	0xa1                 	DEC	r0x1004
0001e8   c1be     JMP	#0x1be               	JMP	_00295_DS_
                                           _00298_DS_
                                           	BANKSEL	_Stop_High_Addr
0001e9   03d9     CLR	0xd9                 	CLR	_Stop_High_Addr
                                           	BANKSEL	_Stop_High_Addr
0001ea   03da     CLR	0xda                 	CLR	(_Stop_High_Addr + 1)
                                           	BANKSEL	_Stop_Low_Addr
0001eb   03c7     CLR	0xc7                 	CLR	_Stop_Low_Addr
                                           	BANKSEL	_Stop_Low_Addr
0001ec   03c8     CLR	0xc8                 	CLR	(_Stop_Low_Addr + 1)
0001ed   982b     MOV	R0, #0x2b            	MOV	R0,# 0x2b
                                           	BANKSEL	r0x1004
0001ee   51a1     MOV	0xa1, R0             	MOV	r0x1004, R0
                                           _00299_DS_
0001ef   981f     MOV	R0, #0x1f            	MOV	R0,# 0x1f
                                           	BANKSEL	r0x1004
0001f0   38a1     SUB	R0, 0xa1             	SUB	R0, r0x1004
0001f1   7803     JB	0x3, 0                	JB	PSW, 0
0001f2   c26a     JMP	#0x26a               	JMP	_00302_DS_
                                           	BANKSEL	r0x1004
0001f3   70a1     JNB	0xa1, 0              	JNB	r0x1004, 0
0001f4   c229     JMP	#0x229               	JMP	_00264_DS_
                                           	BANKSEL	r0x1004
0001f5   0ea1     MOVZ	R0, 0xa1            	MOVZ	R0, r0x1004
                                           	BANKSEL	r0x1005
0001f6   51a0     MOV	0xa0, R0             	MOV	r0x1005, R0
                                           	BANKSEL	r0x1006
0001f7   039f     CLR	0x9f                 	CLR	r0x1006
0001f8   98e1     MOV	R0, #0xe1            	MOV	R0,# 0xe1
                                           	BANKSEL	r0x1005
0001f9   21a0     ADD	0xa0, R0             	ADD	r0x1005, R0
0001fa   7003     JNB	0x3, 0               	JNB	PSW, 0
0001fb   c1fd     JMP	#0x1fd               	JMP	_00366_DS_
                                           	BANKSEL	r0x1006
0001fc   079f     DEC	0x9f                 	DEC	r0x1006
                                           _00366_DS_
0001fd   9802     MOV	R0, #0x2             	MOV	R0,# 0x02
                                           	BANKSEL	STK02
0001fe   51ee     MOV	0xee, R0             	MOV	STK02, R0
0001ff   9800     MOV	R0, #0               	MOV	R0,# 0x00
                                           	BANKSEL	STK01
000200   51ef     MOV	0xef, R0             	MOV	STK01, R0
                                           	BANKSEL	r0x1005
000201   0ea0     MOVZ	R0, 0xa0            	MOVZ	R0, r0x1005
                                           	BANKSEL	STK00
000202   51f0     MOV	0xf0, R0             	MOV	STK00, R0
                                           	BANKSEL	r0x1006
000203   0e9f     MOVZ	R0, 0x9f            	MOVZ	R0, r0x1006
000204   9f0d     MOV	R7, #0xd             	TRAPPC1	__divsint
000205   5f73     MOV	0x73, R7             	TRAPPC2	__divsint
000206   e00d     MOVP	#0x0D               	PAGESEL	__divsint
000207   ddd0     CALL	#0xdd0              	CALL	__divsint
000208   9f02     MOV	R7, #0x2             	TRAPPC1	$+2
000209   5f73     MOV	0x73, R7             	TRAPPC2	$+1
00020a   e002     MOVP	#0x02               	PAGESEL	$
00020b   e100     MOVB	#0x00               	BANKSEL	r0x1006
00020c   519f     MOV	0x9f, R0             	MOV	r0x1006, R0
                                           	BANKSEL	STK00
00020d   0ef0     MOVZ	R0, 0xf0            	MOVZ	R0, STK00
                                           	BANKSEL	r0x1005
00020e   51a0     MOV	0xa0, R0             	MOV	r0x1005, R0
00020f   9806     MOV	R0, #0x6             	MOV	R0,# 0x06
                                           	BANKSEL	r0x1005
000210   21a0     ADD	0xa0, R0             	ADD	r0x1005, R0
000211   7803     JB	0x3, 0                	JB	PSW, 0
000212   c214     JMP	#0x214               	JMP	_00367_DS_
                                           	BANKSEL	r0x1006
000213   0b9f     INC	0x9f                 	INC	r0x1006
                                           _00367_DS_
000214   9801     MOV	R0, #0x1             	MOV	R0,# 0x01
                                           	BANKSEL	r0x1007
000215   519e     MOV	0x9e, R0             	MOV	r0x1007, R0
000216   9800     MOV	R0, #0               	MOV	R0,# 0x00
                                           	BANKSEL	r0x1008
000217   519d     MOV	0x9d, R0             	MOV	r0x1008, R0
                                           	BANKSEL	r0x1005
000218   0ea0     MOVZ	R0, 0xa0            	MOVZ	R0, r0x1005
000219   ff10     INC	R0                   	INC	R0
00021a   c21f     JMP	#0x21f               	JMP	_00357_DS_
                                           _00356_DS_
00021b   6003     CLR	0x3, 0               	CLR	PSW, 0
00021c   e100     MOVB	#0x00               	BANKSEL	r0x1007
00021d   139e     RLC	0x9e                 	RLC	r0x1007
                                           	BANKSEL	r0x1008
00021e   139d     RLC	0x9d                 	RLC	r0x1008
                                           _00357_DS_
00021f   ff58     DECJZ	R0                 	DECJZ	R0
000220   c21b     JMP	#0x21b               	JMP	_00356_DS_
                                           	BANKSEL	r0x1007
000221   0e9e     MOVZ	R0, 0x9e            	MOVZ	R0, r0x1007
                                           	BANKSEL	_Stop_Low_Addr
000222   51c7     MOV	0xc7, R0             	MOV	_Stop_Low_Addr, R0
                                           	BANKSEL	r0x1008
000223   0e9d     MOVZ	R0, 0x9d            	MOVZ	R0, r0x1008
                                           	BANKSEL	_Stop_Low_Addr
000224   51c8     MOV	0xc8, R0             	MOV	(_Stop_Low_Addr + 1), R0
                                           	BANKSEL	_Stop_Low_Addr
000225   04c7     CPLR	0xc7                	CPLR	_Stop_Low_Addr
                                           	BANKSEL	_Stop_High_Addr
000226   51d9     MOV	0xd9, R0             	MOV	_Stop_High_Addr, R0
                                           	BANKSEL	_Stop_Low_Addr
000227   04c8     CPLR	0xc8                	CPLR	(_Stop_Low_Addr + 1)
                                           	BANKSEL	_Stop_High_Addr
000228   51da     MOV	0xda, R0             	MOV	(_Stop_High_Addr + 1), R0
                                           _00264_DS_
000229   98ff     MOV	R0, #0xff            	MOV	R0,# 0xff
                                           	BANKSEL	STK01
00022a   51ef     MOV	0xef, R0             	MOV	STK01, R0
                                           	BANKSEL	r0x1004
00022b   0ea1     MOVZ	R0, 0xa1            	MOVZ	R0, r0x1004
                                           	BANKSEL	STK00
00022c   51f0     MOV	0xf0, R0             	MOV	STK00, R0
00022d   9802     MOV	R0, #0x2             	MOV	R0,# 0x02
00022e   9f0e     MOV	R7, #0xe             	TRAPPC1	_SPI_Write_2Byte
00022f   5f73     MOV	0x73, R7             	TRAPPC2	_SPI_Write_2Byte
000230   e00e     MOVP	#0x0E               	PAGESEL	_SPI_Write_2Byte
000231   de03     CALL	#0xe03              	CALL	_SPI_Write_2Byte
000232   9f02     MOV	R7, #0x2             	TRAPPC1	$+2
000233   5f73     MOV	0x73, R7             	TRAPPC2	$+1
000234   e002     MOVP	#0x02               	PAGESEL	$
000235   9800     MOV	R0, #0               	MOV	R0,# 0x00
000236   e100     MOVB	#0x00               	BANKSEL	STK01
000237   51ef     MOV	0xef, R0             	MOV	STK01, R0
000238   9837     MOV	R0, #0x37            	MOV	R0,# 0x37
                                           	BANKSEL	STK00
000239   51f0     MOV	0xf0, R0             	MOV	STK00, R0
00023a   9802     MOV	R0, #0x2             	MOV	R0,# 0x02
00023b   9f0e     MOV	R7, #0xe             	TRAPPC1	_SPI_Write_2Byte
00023c   5f73     MOV	0x73, R7             	TRAPPC2	_SPI_Write_2Byte
00023d   e00e     MOVP	#0x0E               	PAGESEL	_SPI_Write_2Byte
00023e   de03     CALL	#0xe03              	CALL	_SPI_Write_2Byte
00023f   9f02     MOV	R7, #0x2             	TRAPPC1	$+2
000240   5f73     MOV	0x73, R7             	TRAPPC2	$+1
000241   e002     MOVP	#0x02               	PAGESEL	$
000242   9814     MOV	R0, #0x14            	MOV	R0,# 0x14
000243   e100     MOVB	#0x00               	BANKSEL	STK00
000244   51f0     MOV	0xf0, R0             	MOV	STK00, R0
000245   9800     MOV	R0, #0               	MOV	R0,# 0x00
000246   9f0f     MOV	R7, #0xf             	TRAPPC1	_delay_ms
000247   5f73     MOV	0x73, R7             	TRAPPC2	_delay_ms
000248   e00f     MOVP	#0x0F               	PAGESEL	_delay_ms
000249   df0e     CALL	#0xf0e              	CALL	_delay_ms
00024a   9f02     MOV	R7, #0x2             	TRAPPC1	$+2
00024b   5f73     MOV	0x73, R7             	TRAPPC2	$+1
00024c   e002     MOVP	#0x02               	PAGESEL	$
00024d   9800     MOV	R0, #0               	MOV	R0,# 0x00
00024e   e100     MOVB	#0x00               	BANKSEL	STK01
00024f   51ef     MOV	0xef, R0             	MOV	STK01, R0
                                           	BANKSEL	r0x1004
000250   0ea1     MOVZ	R0, 0xa1            	MOVZ	R0, r0x1004
                                           	BANKSEL	STK00
000251   51f0     MOV	0xf0, R0             	MOV	STK00, R0
000252   9802     MOV	R0, #0x2             	MOV	R0,# 0x02
000253   9f0e     MOV	R7, #0xe             	TRAPPC1	_SPI_Write_2Byte
000254   5f73     MOV	0x73, R7             	TRAPPC2	_SPI_Write_2Byte
000255   e00e     MOVP	#0x0E               	PAGESEL	_SPI_Write_2Byte
000256   de03     CALL	#0xe03              	CALL	_SPI_Write_2Byte
000257   9f02     MOV	R7, #0x2             	TRAPPC1	$+2
000258   5f73     MOV	0x73, R7             	TRAPPC2	$+1
000259   e002     MOVP	#0x02               	PAGESEL	$
00025a   9800     MOV	R0, #0               	MOV	R0,# 0x00
00025b   e100     MOVB	#0x00               	BANKSEL	STK01
00025c   51ef     MOV	0xef, R0             	MOV	STK01, R0
00025d   9837     MOV	R0, #0x37            	MOV	R0,# 0x37
                                           	BANKSEL	STK00
00025e   51f0     MOV	0xf0, R0             	MOV	STK00, R0
00025f   9802     MOV	R0, #0x2             	MOV	R0,# 0x02
000260   9f0e     MOV	R7, #0xe             	TRAPPC1	_SPI_Write_2Byte
000261   5f73     MOV	0x73, R7             	TRAPPC2	_SPI_Write_2Byte
000262   e00e     MOVP	#0x0E               	PAGESEL	_SPI_Write_2Byte
000263   de03     CALL	#0xe03              	CALL	_SPI_Write_2Byte
000264   9f02     MOV	R7, #0x2             	TRAPPC1	$+2
000265   5f73     MOV	0x73, R7             	TRAPPC2	$+1
000266   e002     MOVP	#0x02               	PAGESEL	$
000267   e100     MOVB	#0x00               	BANKSEL	r0x1004
000268   07a1     DEC	0xa1                 	DEC	r0x1004
000269   c1ef     JMP	#0x1ef               	JMP	_00299_DS_
                                           _00302_DS_
                                           	BANKSEL	_Stop_High_Addr
00026a   03d9     CLR	0xd9                 	CLR	_Stop_High_Addr
                                           	BANKSEL	_Stop_High_Addr
00026b   03da     CLR	0xda                 	CLR	(_Stop_High_Addr + 1)
                                           	BANKSEL	_Stop_Low_Addr
00026c   03c7     CLR	0xc7                 	CLR	_Stop_Low_Addr
                                           	BANKSEL	_Stop_Low_Addr
00026d   03c8     CLR	0xc8                 	CLR	(_Stop_Low_Addr + 1)
00026e   982b     MOV	R0, #0x2b            	MOV	R0,# 0x2b
                                           	BANKSEL	r0x1004
00026f   51a1     MOV	0xa1, R0             	MOV	r0x1004, R0
                                           _00303_DS_
000270   9820     MOV	R0, #0x20            	MOV	R0,# 0x20
                                           	BANKSEL	r0x1004
000271   38a1     SUB	R0, 0xa1             	SUB	R0, r0x1004
000272   7803     JB	0x3, 0                	JB	PSW, 0
000273   c2e6     JMP	#0x2e6               	JMP	_00306_DS_
                                           	BANKSEL	r0x1004
000274   70a1     JNB	0xa1, 0              	JNB	r0x1004, 0
000275   c2a5     JMP	#0x2a5               	JMP	_00266_DS_
                                           	BANKSEL	r0x1004
000276   0ea1     MOVZ	R0, 0xa1            	MOVZ	R0, r0x1004
                                           	BANKSEL	r0x1005
000277   51a0     MOV	0xa0, R0             	MOV	r0x1005, R0
                                           	BANKSEL	r0x1006
000278   039f     CLR	0x9f                 	CLR	r0x1006
000279   98e1     MOV	R0, #0xe1            	MOV	R0,# 0xe1
                                           	BANKSEL	r0x1005
00027a   21a0     ADD	0xa0, R0             	ADD	r0x1005, R0
00027b   7003     JNB	0x3, 0               	JNB	PSW, 0
00027c   c27e     JMP	#0x27e               	JMP	_00368_DS_
                                           	BANKSEL	r0x1006
00027d   079f     DEC	0x9f                 	DEC	r0x1006
                                           _00368_DS_
00027e   9802     MOV	R0, #0x2             	MOV	R0,# 0x02
                                           	BANKSEL	STK02
00027f   51ee     MOV	0xee, R0             	MOV	STK02, R0
000280   9800     MOV	R0, #0               	MOV	R0,# 0x00
                                           	BANKSEL	STK01
000281   51ef     MOV	0xef, R0             	MOV	STK01, R0
                                           	BANKSEL	r0x1005
000282   0ea0     MOVZ	R0, 0xa0            	MOVZ	R0, r0x1005
                                           	BANKSEL	STK00
000283   51f0     MOV	0xf0, R0             	MOV	STK00, R0
                                           	BANKSEL	r0x1006
000284   0e9f     MOVZ	R0, 0x9f            	MOVZ	R0, r0x1006
000285   9f0d     MOV	R7, #0xd             	TRAPPC1	__divsint
000286   5f73     MOV	0x73, R7             	TRAPPC2	__divsint
000287   e00d     MOVP	#0x0D               	PAGESEL	__divsint
000288   ddd0     CALL	#0xdd0              	CALL	__divsint
000289   9f02     MOV	R7, #0x2             	TRAPPC1	$+2
00028a   5f73     MOV	0x73, R7             	TRAPPC2	$+1
00028b   e002     MOVP	#0x02               	PAGESEL	$
00028c   e100     MOVB	#0x00               	BANKSEL	r0x1006
00028d   519f     MOV	0x9f, R0             	MOV	r0x1006, R0
                                           	BANKSEL	STK00
00028e   0ef0     MOVZ	R0, 0xf0            	MOVZ	R0, STK00
                                           	BANKSEL	r0x1005
00028f   51a0     MOV	0xa0, R0             	MOV	r0x1005, R0
000290   9801     MOV	R0, #0x1             	MOV	R0,# 0x01
                                           	BANKSEL	r0x1007
000291   519e     MOV	0x9e, R0             	MOV	r0x1007, R0
000292   9800     MOV	R0, #0               	MOV	R0,# 0x00
                                           	BANKSEL	r0x1008
000293   519d     MOV	0x9d, R0             	MOV	r0x1008, R0
                                           	BANKSEL	r0x1005
000294   0ea0     MOVZ	R0, 0xa0            	MOVZ	R0, r0x1005
000295   ff10     INC	R0                   	INC	R0
000296   c29b     JMP	#0x29b               	JMP	_00360_DS_
                                           _00359_DS_
000297   6003     CLR	0x3, 0               	CLR	PSW, 0
000298   e100     MOVB	#0x00               	BANKSEL	r0x1007
000299   139e     RLC	0x9e                 	RLC	r0x1007
                                           	BANKSEL	r0x1008
00029a   139d     RLC	0x9d                 	RLC	r0x1008
                                           _00360_DS_
00029b   ff58     DECJZ	R0                 	DECJZ	R0
00029c   c297     JMP	#0x297               	JMP	_00359_DS_
                                           	BANKSEL	r0x1007
00029d   0e9e     MOVZ	R0, 0x9e            	MOVZ	R0, r0x1007
                                           	BANKSEL	_Stop_Low_Addr
00029e   51c7     MOV	0xc7, R0             	MOV	_Stop_Low_Addr, R0
                                           	BANKSEL	r0x1008
00029f   0e9d     MOVZ	R0, 0x9d            	MOVZ	R0, r0x1008
                                           	BANKSEL	_Stop_Low_Addr
0002a0   51c8     MOV	0xc8, R0             	MOV	(_Stop_Low_Addr + 1), R0
                                           	BANKSEL	_Stop_Low_Addr
0002a1   04c7     CPLR	0xc7                	CPLR	_Stop_Low_Addr
                                           	BANKSEL	_Stop_High_Addr
0002a2   51d9     MOV	0xd9, R0             	MOV	_Stop_High_Addr, R0
                                           	BANKSEL	_Stop_Low_Addr
0002a3   04c8     CPLR	0xc8                	CPLR	(_Stop_Low_Addr + 1)
                                           	BANKSEL	_Stop_High_Addr
0002a4   51da     MOV	0xda, R0             	MOV	(_Stop_High_Addr + 1), R0
                                           _00266_DS_
0002a5   98ff     MOV	R0, #0xff            	MOV	R0,# 0xff
                                           	BANKSEL	STK01
0002a6   51ef     MOV	0xef, R0             	MOV	STK01, R0
                                           	BANKSEL	r0x1004
0002a7   0ea1     MOVZ	R0, 0xa1            	MOVZ	R0, r0x1004
                                           	BANKSEL	STK00
0002a8   51f0     MOV	0xf0, R0             	MOV	STK00, R0
0002a9   9801     MOV	R0, #0x1             	MOV	R0,# 0x01
0002aa   9f0e     MOV	R7, #0xe             	TRAPPC1	_SPI_Write_2Byte
0002ab   5f73     MOV	0x73, R7             	TRAPPC2	_SPI_Write_2Byte
0002ac   e00e     MOVP	#0x0E               	PAGESEL	_SPI_Write_2Byte
0002ad   de03     CALL	#0xe03              	CALL	_SPI_Write_2Byte
0002ae   9f02     MOV	R7, #0x2             	TRAPPC1	$+2
0002af   5f73     MOV	0x73, R7             	TRAPPC2	$+1
0002b0   e002     MOVP	#0x02               	PAGESEL	$
0002b1   9800     MOV	R0, #0               	MOV	R0,# 0x00
0002b2   e100     MOVB	#0x00               	BANKSEL	STK01
0002b3   51ef     MOV	0xef, R0             	MOV	STK01, R0
0002b4   9837     MOV	R0, #0x37            	MOV	R0,# 0x37
                                           	BANKSEL	STK00
0002b5   51f0     MOV	0xf0, R0             	MOV	STK00, R0
0002b6   9801     MOV	R0, #0x1             	MOV	R0,# 0x01
0002b7   9f0e     MOV	R7, #0xe             	TRAPPC1	_SPI_Write_2Byte
0002b8   5f73     MOV	0x73, R7             	TRAPPC2	_SPI_Write_2Byte
0002b9   e00e     MOVP	#0x0E               	PAGESEL	_SPI_Write_2Byte
0002ba   de03     CALL	#0xe03              	CALL	_SPI_Write_2Byte
0002bb   9f02     MOV	R7, #0x2             	TRAPPC1	$+2
0002bc   5f73     MOV	0x73, R7             	TRAPPC2	$+1
0002bd   e002     MOVP	#0x02               	PAGESEL	$
0002be   9814     MOV	R0, #0x14            	MOV	R0,# 0x14
0002bf   e100     MOVB	#0x00               	BANKSEL	STK00
0002c0   51f0     MOV	0xf0, R0             	MOV	STK00, R0
0002c1   9800     MOV	R0, #0               	MOV	R0,# 0x00
0002c2   9f0f     MOV	R7, #0xf             	TRAPPC1	_delay_ms
0002c3   5f73     MOV	0x73, R7             	TRAPPC2	_delay_ms
0002c4   e00f     MOVP	#0x0F               	PAGESEL	_delay_ms
0002c5   df0e     CALL	#0xf0e              	CALL	_delay_ms
0002c6   9f02     MOV	R7, #0x2             	TRAPPC1	$+2
0002c7   5f73     MOV	0x73, R7             	TRAPPC2	$+1
0002c8   e002     MOVP	#0x02               	PAGESEL	$
0002c9   9800     MOV	R0, #0               	MOV	R0,# 0x00
0002ca   e100     MOVB	#0x00               	BANKSEL	STK01
0002cb   51ef     MOV	0xef, R0             	MOV	STK01, R0
                                           	BANKSEL	r0x1004
0002cc   0ea1     MOVZ	R0, 0xa1            	MOVZ	R0, r0x1004
                                           	BANKSEL	STK00
0002cd   51f0     MOV	0xf0, R0             	MOV	STK00, R0
0002ce   9801     MOV	R0, #0x1             	MOV	R0,# 0x01
0002cf   9f0e     MOV	R7, #0xe             	TRAPPC1	_SPI_Write_2Byte
0002d0   5f73     MOV	0x73, R7             	TRAPPC2	_SPI_Write_2Byte
0002d1   e00e     MOVP	#0x0E               	PAGESEL	_SPI_Write_2Byte
0002d2   de03     CALL	#0xe03              	CALL	_SPI_Write_2Byte
0002d3   9f02     MOV	R7, #0x2             	TRAPPC1	$+2
0002d4   5f73     MOV	0x73, R7             	TRAPPC2	$+1
0002d5   e002     MOVP	#0x02               	PAGESEL	$
0002d6   9800     MOV	R0, #0               	MOV	R0,# 0x00
0002d7   e100     MOVB	#0x00               	BANKSEL	STK01
0002d8   51ef     MOV	0xef, R0             	MOV	STK01, R0
0002d9   9837     MOV	R0, #0x37            	MOV	R0,# 0x37
                                           	BANKSEL	STK00
0002da   51f0     MOV	0xf0, R0             	MOV	STK00, R0
0002db   9801     MOV	R0, #0x1             	MOV	R0,# 0x01
0002dc   9f0e     MOV	R7, #0xe             	TRAPPC1	_SPI_Write_2Byte
0002dd   5f73     MOV	0x73, R7             	TRAPPC2	_SPI_Write_2Byte
0002de   e00e     MOVP	#0x0E               	PAGESEL	_SPI_Write_2Byte
0002df   de03     CALL	#0xe03              	CALL	_SPI_Write_2Byte
0002e0   9f02     MOV	R7, #0x2             	TRAPPC1	$+2
0002e1   5f73     MOV	0x73, R7             	TRAPPC2	$+1
0002e2   e002     MOVP	#0x02               	PAGESEL	$
0002e3   e100     MOVB	#0x00               	BANKSEL	r0x1004
0002e4   07a1     DEC	0xa1                 	DEC	r0x1004
0002e5   c270     JMP	#0x270               	JMP	_00303_DS_
                                           _00306_DS_
0002e6   98ff     MOV	R0, #0xff            	MOV	R0,# 0xff
                                           	BANKSEL	_Stop_High_Addr
0002e7   51d9     MOV	0xd9, R0             	MOV	_Stop_High_Addr, R0
                                           	BANKSEL	_Stop_High_Addr
0002e8   51da     MOV	0xda, R0             	MOV	(_Stop_High_Addr + 1), R0
                                           	BANKSEL	_Stop_Low_Addr
0002e9   03c7     CLR	0xc7                 	CLR	_Stop_Low_Addr
                                           	BANKSEL	_Stop_Low_Addr
0002ea   03c8     CLR	0xc8                 	CLR	(_Stop_Low_Addr + 1)
0002eb   0008     CRET                     	CRET	
                                           func._Tail1_2_Stop_BackWater_Close	.code
                                           _Tail1_2_Stop_BackWater_Close	;Function start
0005e8   e100     MOVB	#0x00               	BANKSEL	_Stop_High_Addr
0005e9   03d9     CLR	0xd9                 	CLR	_Stop_High_Addr
                                           	BANKSEL	_Stop_High_Addr
0005ea   03da     CLR	0xda                 	CLR	(_Stop_High_Addr + 1)
0005eb   98ff     MOV	R0, #0xff            	MOV	R0,# 0xff
                                           	BANKSEL	_Stop_Low_Addr
0005ec   51c7     MOV	0xc7, R0             	MOV	_Stop_Low_Addr, R0
0005ed   980f     MOV	R0, #0xf             	MOV	R0,# 0x0f
                                           	BANKSEL	_Stop_Low_Addr
0005ee   51c8     MOV	0xc8, R0             	MOV	(_Stop_Low_Addr + 1), R0
0005ef   982b     MOV	R0, #0x2b            	MOV	R0,# 0x2b
                                           	BANKSEL	r0x1009
0005f0   51a6     MOV	0xa6, R0             	MOV	r0x1009, R0
                                           _00243_DS_
0005f1   981f     MOV	R0, #0x1f            	MOV	R0,# 0x1f
                                           	BANKSEL	r0x1009
0005f2   38a6     SUB	R0, 0xa6             	SUB	R0, r0x1009
0005f3   7803     JB	0x3, 0                	JB	PSW, 0
0005f4   c63c     JMP	#0x63c               	JMP	_00246_DS_
                                           	BANKSEL	r0x1009
0005f5   0ea6     MOVZ	R0, 0xa6            	MOVZ	R0, r0x1009
                                           	BANKSEL	r0x100A
0005f6   51a5     MOV	0xa5, R0             	MOV	r0x100A, R0
                                           	BANKSEL	r0x100B
0005f7   03a4     CLR	0xa4                 	CLR	r0x100B
0005f8   98e1     MOV	R0, #0xe1            	MOV	R0,# 0xe1
                                           	BANKSEL	r0x100A
0005f9   21a5     ADD	0xa5, R0             	ADD	r0x100A, R0
0005fa   7003     JNB	0x3, 0               	JNB	PSW, 0
0005fb   c5fd     JMP	#0x5fd               	JMP	_00369_DS_
                                           	BANKSEL	r0x100B
0005fc   07a4     DEC	0xa4                 	DEC	r0x100B
                                           _00369_DS_
0005fd   9801     MOV	R0, #0x1             	MOV	R0,# 0x01
                                           	BANKSEL	r0x100C
0005fe   51a3     MOV	0xa3, R0             	MOV	r0x100C, R0
0005ff   9800     MOV	R0, #0               	MOV	R0,# 0x00
                                           	BANKSEL	r0x100D
000600   51a2     MOV	0xa2, R0             	MOV	r0x100D, R0
                                           	BANKSEL	r0x100A
000601   0ea5     MOVZ	R0, 0xa5            	MOVZ	R0, r0x100A
000602   ff10     INC	R0                   	INC	R0
000603   c608     JMP	#0x608               	JMP	_00261_DS_
                                           _00260_DS_
000604   6003     CLR	0x3, 0               	CLR	PSW, 0
000605   e100     MOVB	#0x00               	BANKSEL	r0x100C
000606   13a3     RLC	0xa3                 	RLC	r0x100C
                                           	BANKSEL	r0x100D
000607   13a2     RLC	0xa2                 	RLC	r0x100D
                                           _00261_DS_
000608   ff58     DECJZ	R0                 	DECJZ	R0
000609   c604     JMP	#0x604               	JMP	_00260_DS_
                                           	BANKSEL	r0x100C
00060a   0ea3     MOVZ	R0, 0xa3            	MOVZ	R0, r0x100C
                                           	BANKSEL	r0x100A
00060b   51a5     MOV	0xa5, R0             	MOV	r0x100A, R0
                                           	BANKSEL	r0x100A
00060c   50a5     MOV	R0, 0xa5             	MOV	R0, r0x100A
                                           	BANKSEL	_Stop_High_Addr
00060d   21d9     ADD	0xd9, R0             	ADD	_Stop_High_Addr, R0
                                           	BANKSEL	r0x100D
00060e   0ea2     MOVZ	R0, 0xa2            	MOVZ	R0, r0x100D
                                           	BANKSEL	r0x100B
00060f   51a4     MOV	0xa4, R0             	MOV	r0x100B, R0
000610   7003     JNB	0x3, 0               	JNB	PSW, 0
000611   ff10     INC	R0                   	INC	R0
000612   7203     JNB	0x3, 2               	JNB	PSW, 2
000613   c615     JMP	#0x615               	JMP	_00370_DS_
                                           	BANKSEL	_Stop_High_Addr
000614   21da     ADD	0xda, R0             	ADD	(_Stop_High_Addr + 1), R0
                                           _00370_DS_
000615   9810     MOV	R0, #0x10            	MOV	R0,# 0x10
                                           	BANKSEL	STK01
000616   51ef     MOV	0xef, R0             	MOV	STK01, R0
                                           	BANKSEL	r0x1009
000617   0ea6     MOVZ	R0, 0xa6            	MOVZ	R0, r0x1009
                                           	BANKSEL	STK00
000618   51f0     MOV	0xf0, R0             	MOV	STK00, R0
000619   9802     MOV	R0, #0x2             	MOV	R0,# 0x02
00061a   9f0e     MOV	R7, #0xe             	TRAPPC1	_SPI_Write_2Byte
00061b   5f73     MOV	0x73, R7             	TRAPPC2	_SPI_Write_2Byte
00061c   e00e     MOVP	#0x0E               	PAGESEL	_SPI_Write_2Byte
00061d   de03     CALL	#0xe03              	CALL	_SPI_Write_2Byte
00061e   9f06     MOV	R7, #0x6             	TRAPPC1	$+2
00061f   5f73     MOV	0x73, R7             	TRAPPC2	$+1
000620   e006     MOVP	#0x06               	PAGESEL	$
000621   9800     MOV	R0, #0               	MOV	R0,# 0x00
000622   e100     MOVB	#0x00               	BANKSEL	STK01
000623   51ef     MOV	0xef, R0             	MOV	STK01, R0
000624   9837     MOV	R0, #0x37            	MOV	R0,# 0x37
                                           	BANKSEL	STK00
000625   51f0     MOV	0xf0, R0             	MOV	STK00, R0
000626   9802     MOV	R0, #0x2             	MOV	R0,# 0x02
000627   9f0e     MOV	R7, #0xe             	TRAPPC1	_SPI_Write_2Byte
000628   5f73     MOV	0x73, R7             	TRAPPC2	_SPI_Write_2Byte
000629   e00e     MOVP	#0x0E               	PAGESEL	_SPI_Write_2Byte
00062a   de03     CALL	#0xe03              	CALL	_SPI_Write_2Byte
00062b   9f06     MOV	R7, #0x6             	TRAPPC1	$+2
00062c   5f73     MOV	0x73, R7             	TRAPPC2	$+1
00062d   e006     MOVP	#0x06               	PAGESEL	$
00062e   9841     MOV	R0, #0x41            	MOV	R0,# 0x41
00062f   e100     MOVB	#0x00               	BANKSEL	STK00
000630   51f0     MOV	0xf0, R0             	MOV	STK00, R0
000631   9800     MOV	R0, #0               	MOV	R0,# 0x00
000632   9f0f     MOV	R7, #0xf             	TRAPPC1	_delay_ms
000633   5f73     MOV	0x73, R7             	TRAPPC2	_delay_ms
000634   e00f     MOVP	#0x0F               	PAGESEL	_delay_ms
000635   df0e     CALL	#0xf0e              	CALL	_delay_ms
000636   9f06     MOV	R7, #0x6             	TRAPPC1	$+2
000637   5f73     MOV	0x73, R7             	TRAPPC2	$+1
000638   e006     MOVP	#0x06               	PAGESEL	$
000639   e100     MOVB	#0x00               	BANKSEL	r0x1009
00063a   07a6     DEC	0xa6                 	DEC	r0x1009
00063b   c5f1     JMP	#0x5f1               	JMP	_00243_DS_
                                           _00246_DS_
00063c   982b     MOV	R0, #0x2b            	MOV	R0,# 0x2b
                                           	BANKSEL	r0x1009
00063d   51a6     MOV	0xa6, R0             	MOV	r0x1009, R0
                                           _00247_DS_
00063e   9820     MOV	R0, #0x20            	MOV	R0,# 0x20
                                           	BANKSEL	r0x1009
00063f   38a6     SUB	R0, 0xa6             	SUB	R0, r0x1009
000640   7803     JB	0x3, 0                	JB	PSW, 0
000641   c669     JMP	#0x669               	JMP	_00251_DS_
000642   9810     MOV	R0, #0x10            	MOV	R0,# 0x10
                                           	BANKSEL	STK01
000643   51ef     MOV	0xef, R0             	MOV	STK01, R0
                                           	BANKSEL	r0x1009
000644   0ea6     MOVZ	R0, 0xa6            	MOVZ	R0, r0x1009
                                           	BANKSEL	STK00
000645   51f0     MOV	0xf0, R0             	MOV	STK00, R0
000646   9801     MOV	R0, #0x1             	MOV	R0,# 0x01
000647   9f0e     MOV	R7, #0xe             	TRAPPC1	_SPI_Write_2Byte
000648   5f73     MOV	0x73, R7             	TRAPPC2	_SPI_Write_2Byte
000649   e00e     MOVP	#0x0E               	PAGESEL	_SPI_Write_2Byte
00064a   de03     CALL	#0xe03              	CALL	_SPI_Write_2Byte
00064b   9f06     MOV	R7, #0x6             	TRAPPC1	$+2
00064c   5f73     MOV	0x73, R7             	TRAPPC2	$+1
00064d   e006     MOVP	#0x06               	PAGESEL	$
00064e   9800     MOV	R0, #0               	MOV	R0,# 0x00
00064f   e100     MOVB	#0x00               	BANKSEL	STK01
000650   51ef     MOV	0xef, R0             	MOV	STK01, R0
000651   9837     MOV	R0, #0x37            	MOV	R0,# 0x37
                                           	BANKSEL	STK00
000652   51f0     MOV	0xf0, R0             	MOV	STK00, R0
000653   9801     MOV	R0, #0x1             	MOV	R0,# 0x01
000654   9f0e     MOV	R7, #0xe             	TRAPPC1	_SPI_Write_2Byte
000655   5f73     MOV	0x73, R7             	TRAPPC2	_SPI_Write_2Byte
000656   e00e     MOVP	#0x0E               	PAGESEL	_SPI_Write_2Byte
000657   de03     CALL	#0xe03              	CALL	_SPI_Write_2Byte
000658   9f06     MOV	R7, #0x6             	TRAPPC1	$+2
000659   5f73     MOV	0x73, R7             	TRAPPC2	$+1
00065a   e006     MOVP	#0x06               	PAGESEL	$
00065b   9841     MOV	R0, #0x41            	MOV	R0,# 0x41
00065c   e100     MOVB	#0x00               	BANKSEL	STK00
00065d   51f0     MOV	0xf0, R0             	MOV	STK00, R0
00065e   9800     MOV	R0, #0               	MOV	R0,# 0x00
00065f   9f0f     MOV	R7, #0xf             	TRAPPC1	_delay_ms
000660   5f73     MOV	0x73, R7             	TRAPPC2	_delay_ms
000661   e00f     MOVP	#0x0F               	PAGESEL	_delay_ms
000662   df0e     CALL	#0xf0e              	CALL	_delay_ms
000663   9f06     MOV	R7, #0x6             	TRAPPC1	$+2
000664   5f73     MOV	0x73, R7             	TRAPPC2	$+1
000665   e006     MOVP	#0x06               	PAGESEL	$
000666   e100     MOVB	#0x00               	BANKSEL	r0x1009
000667   07a6     DEC	0xa6                 	DEC	r0x1009
000668   c63e     JMP	#0x63e               	JMP	_00247_DS_
                                           _00251_DS_
000669   0008     CRET                     	CRET	
                                           func._Tail2_Stop_FullWater_Open	.code
                                           _Tail2_Stop_FullWater_Open	;Function start
000abe   98ff     MOV	R0, #0xff            	MOV	R0,# 0xff
000abf   e100     MOVB	#0x00               	BANKSEL	_Stop_High_Addr
000ac0   51d9     MOV	0xd9, R0             	MOV	_Stop_High_Addr, R0
000ac1   980f     MOV	R0, #0xf             	MOV	R0,# 0x0f
                                           	BANKSEL	_Stop_High_Addr
000ac2   51da     MOV	0xda, R0             	MOV	(_Stop_High_Addr + 1), R0
000ac3   981f     MOV	R0, #0x1f            	MOV	R0,# 0x1f
                                           	BANKSEL	r0x100E
000ac4   51ab     MOV	0xab, R0             	MOV	r0x100E, R0
                                           _00231_DS_
000ac5   9831     MOV	R0, #0x31            	MOV	R0,# 0x31
                                           	BANKSEL	r0x100E
000ac6   38ab     SUB	R0, 0xab             	SUB	R0, r0x100E
000ac7   7003     JNB	0x3, 0               	JNB	PSW, 0
000ac8   cb0f     JMP	#0xb0f               	JMP	_00235_DS_
                                           	BANKSEL	r0x100E
000ac9   0eab     MOVZ	R0, 0xab            	MOVZ	R0, r0x100E
                                           	BANKSEL	r0x100F
000aca   51aa     MOV	0xaa, R0             	MOV	r0x100F, R0
                                           	BANKSEL	r0x1010
000acb   03a9     CLR	0xa9                 	CLR	r0x1010
000acc   98e1     MOV	R0, #0xe1            	MOV	R0,# 0xe1
                                           	BANKSEL	r0x100F
000acd   21aa     ADD	0xaa, R0             	ADD	r0x100F, R0
000ace   7003     JNB	0x3, 0               	JNB	PSW, 0
000acf   cad1     JMP	#0xad1               	JMP	_00371_DS_
                                           	BANKSEL	r0x1010
000ad0   07a9     DEC	0xa9                 	DEC	r0x1010
                                           _00371_DS_
000ad1   9801     MOV	R0, #0x1             	MOV	R0,# 0x01
                                           	BANKSEL	r0x1011
000ad2   51a8     MOV	0xa8, R0             	MOV	r0x1011, R0
000ad3   9800     MOV	R0, #0               	MOV	R0,# 0x00
                                           	BANKSEL	r0x1012
000ad4   51a7     MOV	0xa7, R0             	MOV	r0x1012, R0
                                           	BANKSEL	r0x100F
000ad5   0eaa     MOVZ	R0, 0xaa            	MOVZ	R0, r0x100F
000ad6   ff10     INC	R0                   	INC	R0
000ad7   cadc     JMP	#0xadc               	JMP	_00242_DS_
                                           _00241_DS_
000ad8   6003     CLR	0x3, 0               	CLR	PSW, 0
000ad9   e100     MOVB	#0x00               	BANKSEL	r0x1011
000ada   13a8     RLC	0xa8                 	RLC	r0x1011
                                           	BANKSEL	r0x1012
000adb   13a7     RLC	0xa7                 	RLC	r0x1012
                                           _00242_DS_
000adc   ff58     DECJZ	R0                 	DECJZ	R0
000add   cad8     JMP	#0xad8               	JMP	_00241_DS_
                                           	BANKSEL	r0x1011
000ade   0ea8     MOVZ	R0, 0xa8            	MOVZ	R0, r0x1011
                                           	BANKSEL	r0x100F
000adf   51aa     MOV	0xaa, R0             	MOV	r0x100F, R0
                                           	BANKSEL	_Stop_High_Addr
000ae0   39d9     SUB	0xd9, R0             	SUB	_Stop_High_Addr, R0
                                           	BANKSEL	r0x1012
000ae1   0ea7     MOVZ	R0, 0xa7            	MOVZ	R0, r0x1012
                                           	BANKSEL	r0x1010
000ae2   51a9     MOV	0xa9, R0             	MOV	r0x1010, R0
000ae3   7803     JB	0x3, 0                	JB	PSW, 0
000ae4   ff10     INC	R0                   	INC	R0
000ae5   7203     JNB	0x3, 2               	JNB	PSW, 2
000ae6   cae8     JMP	#0xae8               	JMP	_00372_DS_
                                           	BANKSEL	_Stop_High_Addr
000ae7   39da     SUB	0xda, R0             	SUB	(_Stop_High_Addr + 1), R0
                                           _00372_DS_
000ae8   98ff     MOV	R0, #0xff            	MOV	R0,# 0xff
                                           	BANKSEL	STK01
000ae9   51ef     MOV	0xef, R0             	MOV	STK01, R0
                                           	BANKSEL	r0x100E
000aea   0eab     MOVZ	R0, 0xab            	MOVZ	R0, r0x100E
                                           	BANKSEL	STK00
000aeb   51f0     MOV	0xf0, R0             	MOV	STK00, R0
000aec   9802     MOV	R0, #0x2             	MOV	R0,# 0x02
000aed   9f0e     MOV	R7, #0xe             	TRAPPC1	_SPI_Write_2Byte
000aee   5f73     MOV	0x73, R7             	TRAPPC2	_SPI_Write_2Byte
000aef   e00e     MOVP	#0x0E               	PAGESEL	_SPI_Write_2Byte
000af0   de03     CALL	#0xe03              	CALL	_SPI_Write_2Byte
000af1   9f0a     MOV	R7, #0xa             	TRAPPC1	$+2
000af2   5f73     MOV	0x73, R7             	TRAPPC2	$+1
000af3   e00a     MOVP	#0x0A               	PAGESEL	$
000af4   9800     MOV	R0, #0               	MOV	R0,# 0x00
000af5   e100     MOVB	#0x00               	BANKSEL	STK01
000af6   51ef     MOV	0xef, R0             	MOV	STK01, R0
000af7   9837     MOV	R0, #0x37            	MOV	R0,# 0x37
                                           	BANKSEL	STK00
000af8   51f0     MOV	0xf0, R0             	MOV	STK00, R0
000af9   9802     MOV	R0, #0x2             	MOV	R0,# 0x02
000afa   9f0e     MOV	R7, #0xe             	TRAPPC1	_SPI_Write_2Byte
000afb   5f73     MOV	0x73, R7             	TRAPPC2	_SPI_Write_2Byte
000afc   e00e     MOVP	#0x0E               	PAGESEL	_SPI_Write_2Byte
000afd   de03     CALL	#0xe03              	CALL	_SPI_Write_2Byte
000afe   9f0b     MOV	R7, #0xb             	TRAPPC1	$+2
000aff   5f73     MOV	0x73, R7             	TRAPPC2	$+1
000b00   e00b     MOVP	#0x0B               	PAGESEL	$
000b01   9841     MOV	R0, #0x41            	MOV	R0,# 0x41
000b02   e100     MOVB	#0x00               	BANKSEL	STK00
000b03   51f0     MOV	0xf0, R0             	MOV	STK00, R0
000b04   9800     MOV	R0, #0               	MOV	R0,# 0x00
000b05   9f0f     MOV	R7, #0xf             	TRAPPC1	_delay_ms
000b06   5f73     MOV	0x73, R7             	TRAPPC2	_delay_ms
000b07   e00f     MOVP	#0x0F               	PAGESEL	_delay_ms
000b08   df0e     CALL	#0xf0e              	CALL	_delay_ms
000b09   9f0b     MOV	R7, #0xb             	TRAPPC1	$+2
000b0a   5f73     MOV	0x73, R7             	TRAPPC2	$+1
000b0b   e00b     MOVP	#0x0B               	PAGESEL	$
000b0c   e100     MOVB	#0x00               	BANKSEL	r0x100E
000b0d   0bab     INC	0xab                 	INC	r0x100E
000b0e   cac5     JMP	#0xac5               	JMP	_00231_DS_
                                           _00235_DS_
000b0f   0008     CRET                     	CRET	
                                           func._Tail1_FullBackWater_Open	.code
                                           _Tail1_FullBackWater_Open	;Function start
000e67   981f     MOV	R0, #0x1f            	MOV	R0,# 0x1f
000e68   e100     MOVB	#0x00               	BANKSEL	r0x1013
000e69   51ac     MOV	0xac, R0             	MOV	r0x1013, R0
                                           _00221_DS_
000e6a   9829     MOV	R0, #0x29            	MOV	R0,# 0x29
                                           	BANKSEL	r0x1013
000e6b   38ac     SUB	R0, 0xac             	SUB	R0, r0x1013
000e6c   7003     JNB	0x3, 0               	JNB	PSW, 0
000e6d   ce95     JMP	#0xe95               	JMP	_00225_DS_
000e6e   98ff     MOV	R0, #0xff            	MOV	R0,# 0xff
                                           	BANKSEL	STK01
000e6f   51ef     MOV	0xef, R0             	MOV	STK01, R0
                                           	BANKSEL	r0x1013
000e70   0eac     MOVZ	R0, 0xac            	MOVZ	R0, r0x1013
                                           	BANKSEL	STK00
000e71   51f0     MOV	0xf0, R0             	MOV	STK00, R0
000e72   9801     MOV	R0, #0x1             	MOV	R0,# 0x01
000e73   9f0e     MOV	R7, #0xe             	TRAPPC1	_SPI_Write_2Byte
000e74   5f73     MOV	0x73, R7             	TRAPPC2	_SPI_Write_2Byte
000e75   e00e     MOVP	#0x0E               	PAGESEL	_SPI_Write_2Byte
000e76   de03     CALL	#0xe03              	CALL	_SPI_Write_2Byte
000e77   9f0e     MOV	R7, #0xe             	TRAPPC1	$+2
000e78   5f73     MOV	0x73, R7             	TRAPPC2	$+1
000e79   e00e     MOVP	#0x0E               	PAGESEL	$
000e7a   9800     MOV	R0, #0               	MOV	R0,# 0x00
000e7b   e100     MOVB	#0x00               	BANKSEL	STK01
000e7c   51ef     MOV	0xef, R0             	MOV	STK01, R0
000e7d   9837     MOV	R0, #0x37            	MOV	R0,# 0x37
                                           	BANKSEL	STK00
000e7e   51f0     MOV	0xf0, R0             	MOV	STK00, R0
000e7f   9801     MOV	R0, #0x1             	MOV	R0,# 0x01
000e80   9f0e     MOV	R7, #0xe             	TRAPPC1	_SPI_Write_2Byte
000e81   5f73     MOV	0x73, R7             	TRAPPC2	_SPI_Write_2Byte
000e82   e00e     MOVP	#0x0E               	PAGESEL	_SPI_Write_2Byte
000e83   de03     CALL	#0xe03              	CALL	_SPI_Write_2Byte
000e84   9f0e     MOV	R7, #0xe             	TRAPPC1	$+2
000e85   5f73     MOV	0x73, R7             	TRAPPC2	$+1
000e86   e00e     MOVP	#0x0E               	PAGESEL	$
000e87   9841     MOV	R0, #0x41            	MOV	R0,# 0x41
000e88   e100     MOVB	#0x00               	BANKSEL	STK00
000e89   51f0     MOV	0xf0, R0             	MOV	STK00, R0
000e8a   9800     MOV	R0, #0               	MOV	R0,# 0x00
000e8b   9f0f     MOV	R7, #0xf             	TRAPPC1	_delay_ms
000e8c   5f73     MOV	0x73, R7             	TRAPPC2	_delay_ms
000e8d   e00f     MOVP	#0x0F               	PAGESEL	_delay_ms
000e8e   df0e     CALL	#0xf0e              	CALL	_delay_ms
000e8f   9f0e     MOV	R7, #0xe             	TRAPPC1	$+2
000e90   5f73     MOV	0x73, R7             	TRAPPC2	$+1
000e91   e00e     MOVP	#0x0E               	PAGESEL	$
000e92   e100     MOVB	#0x00               	BANKSEL	r0x1013
000e93   0bac     INC	0xac                 	INC	r0x1013
000e94   ce6a     JMP	#0xe6a               	JMP	_00221_DS_
                                           _00225_DS_
000e95   0008     CRET                     	CRET	
                                           func._Stop_HighBackWater_Open	.code
                                           _Stop_HighBackWater_Open	;Function start
00094e   e100     MOVB	#0x00               	BANKSEL	r0x1014
00094f   03b0     CLR	0xb0                 	CLR	r0x1014
                                           _00201_DS_
000950   980d     MOV	R0, #0xd             	MOV	R0,# 0x0d
                                           	BANKSEL	r0x1014
000951   38b0     SUB	R0, 0xb0             	SUB	R0, r0x1014
000952   7003     JNB	0x3, 0               	JNB	PSW, 0
000953   c975     JMP	#0x975               	JMP	_00204_DS_
                                           	BANKSEL	r0x1014
000954   0eb0     MOVZ	R0, 0xb0            	MOVZ	R0, r0x1014
                                           	BANKSEL	r0x1015
000955   51ad     MOV	0xad, R0             	MOV	r0x1015, R0
000956   9800     MOV	R0, #0               	MOV	R0,# 0x00
                                           	BANKSEL	r0x1016
000957   51af     MOV	0xaf, R0             	MOV	r0x1016, R0
000958   9808     MOV	R0, #0x8             	MOV	R0,# 0x08
                                           	BANKSEL	r0x1017
000959   51ae     MOV	0xae, R0             	MOV	r0x1017, R0
                                           	BANKSEL	r0x1015
00095a   0bad     INC	0xad                 	INC	r0x1015
00095b   c960     JMP	#0x960               	JMP	_00219_DS_
                                           _00218_DS_
00095c   e100     MOVB	#0x00               	BANKSEL	r0x1017
00095d   12ae     RLCR	0xae                	RLCR	r0x1017
                                           	BANKSEL	r0x1017
00095e   11ae     RRC	0xae                 	RRC	r0x1017
                                           	BANKSEL	r0x1016
00095f   11af     RRC	0xaf                 	RRC	r0x1016
                                           _00219_DS_
                                           	BANKSEL	r0x1015
000960   09ad     DECJZ	0xad               	DECJZ	r0x1015
000961   c95c     JMP	#0x95c               	JMP	_00218_DS_
                                           	BANKSEL	r0x1016
000962   05af     CPL	0xaf                 	CPL	r0x1016
                                           	BANKSEL	r0x1017
000963   05ae     CPL	0xae                 	CPL	r0x1017
                                           	BANKSEL	r0x1016
000964   0eaf     MOVZ	R0, 0xaf            	MOVZ	R0, r0x1016
                                           	BANKSEL	_Stop_High_Addr
000965   51d9     MOV	0xd9, R0             	MOV	_Stop_High_Addr, R0
                                           	BANKSEL	r0x1017
000966   0eae     MOVZ	R0, 0xae            	MOVZ	R0, r0x1017
                                           	BANKSEL	_Stop_High_Addr
000967   51da     MOV	0xda, R0             	MOV	(_Stop_High_Addr + 1), R0
000968   9841     MOV	R0, #0x41            	MOV	R0,# 0x41
                                           	BANKSEL	STK00
000969   51f0     MOV	0xf0, R0             	MOV	STK00, R0
00096a   9800     MOV	R0, #0               	MOV	R0,# 0x00
00096b   9f0f     MOV	R7, #0xf             	TRAPPC1	_delay_ms
00096c   5f73     MOV	0x73, R7             	TRAPPC2	_delay_ms
00096d   e00f     MOVP	#0x0F               	PAGESEL	_delay_ms
00096e   df0e     CALL	#0xf0e              	CALL	_delay_ms
00096f   9f09     MOV	R7, #0x9             	TRAPPC1	$+2
000970   5f73     MOV	0x73, R7             	TRAPPC2	$+1
000971   e009     MOVP	#0x09               	PAGESEL	$
000972   e100     MOVB	#0x00               	BANKSEL	r0x1014
000973   0bb0     INC	0xb0                 	INC	r0x1014
000974   c950     JMP	#0x950               	JMP	_00201_DS_
                                           _00204_DS_
000975   9802     MOV	R0, #0x2             	MOV	R0,# 0x02
                                           	BANKSEL	r0x1014
000976   51b0     MOV	0xb0, R0             	MOV	r0x1014, R0
                                           _00205_DS_
000977   9834     MOV	R0, #0x34            	MOV	R0,# 0x34
                                           	BANKSEL	r0x1014
000978   38b0     SUB	R0, 0xb0             	SUB	R0, r0x1014
000979   7003     JNB	0x3, 0               	JNB	PSW, 0
00097a   c9ae     JMP	#0x9ae               	JMP	_00209_DS_
00097b   9805     MOV	R0, #0x5             	MOV	R0,# 0x05
                                           	BANKSEL	STK00
00097c   51f0     MOV	0xf0, R0             	MOV	STK00, R0
                                           	BANKSEL	r0x1014
00097d   0eb0     MOVZ	R0, 0xb0            	MOVZ	R0, r0x1014
00097e   9f0f     MOV	R7, #0xf             	TRAPPC1	__hmulchar
00097f   5f73     MOV	0x73, R7             	TRAPPC2	__hmulchar
000980   e00f     MOVP	#0x0F               	PAGESEL	__hmulchar
000981   df99     CALL	#0xf99              	CALL	__hmulchar
000982   9f09     MOV	R7, #0x9             	TRAPPC1	$+2
000983   5f73     MOV	0x73, R7             	TRAPPC2	$+1
000984   e009     MOVP	#0x09               	PAGESEL	$
000985   e100     MOVB	#0x00               	BANKSEL	r0x1016
000986   51af     MOV	0xaf, R0             	MOV	r0x1016, R0
                                           	BANKSEL	r0x1016
000987   0eaf     MOVZ	R0, 0xaf            	MOVZ	R0, r0x1016
                                           	BANKSEL	STK01
000988   51ef     MOV	0xef, R0             	MOV	STK01, R0
000989   981f     MOV	R0, #0x1f            	MOV	R0,# 0x1f
                                           	BANKSEL	STK00
00098a   51f0     MOV	0xf0, R0             	MOV	STK00, R0
00098b   9801     MOV	R0, #0x1             	MOV	R0,# 0x01
00098c   9f0e     MOV	R7, #0xe             	TRAPPC1	_SPI_Write_2Byte
00098d   5f73     MOV	0x73, R7             	TRAPPC2	_SPI_Write_2Byte
00098e   e00e     MOVP	#0x0E               	PAGESEL	_SPI_Write_2Byte
00098f   de03     CALL	#0xe03              	CALL	_SPI_Write_2Byte
000990   9f09     MOV	R7, #0x9             	TRAPPC1	$+2
000991   5f73     MOV	0x73, R7             	TRAPPC2	$+1
000992   e009     MOVP	#0x09               	PAGESEL	$
000993   9800     MOV	R0, #0               	MOV	R0,# 0x00
000994   e100     MOVB	#0x00               	BANKSEL	STK01
000995   51ef     MOV	0xef, R0             	MOV	STK01, R0
000996   9837     MOV	R0, #0x37            	MOV	R0,# 0x37
                                           	BANKSEL	STK00
000997   51f0     MOV	0xf0, R0             	MOV	STK00, R0
000998   9801     MOV	R0, #0x1             	MOV	R0,# 0x01
000999   9f0e     MOV	R7, #0xe             	TRAPPC1	_SPI_Write_2Byte
00099a   5f73     MOV	0x73, R7             	TRAPPC2	_SPI_Write_2Byte
00099b   e00e     MOVP	#0x0E               	PAGESEL	_SPI_Write_2Byte
00099c   de03     CALL	#0xe03              	CALL	_SPI_Write_2Byte
00099d   9f09     MOV	R7, #0x9             	TRAPPC1	$+2
00099e   5f73     MOV	0x73, R7             	TRAPPC2	$+1
00099f   e009     MOVP	#0x09               	PAGESEL	$
0009a0   9814     MOV	R0, #0x14            	MOV	R0,# 0x14
0009a1   e100     MOVB	#0x00               	BANKSEL	STK00
0009a2   51f0     MOV	0xf0, R0             	MOV	STK00, R0
0009a3   9800     MOV	R0, #0               	MOV	R0,# 0x00
0009a4   9f0f     MOV	R7, #0xf             	TRAPPC1	_delay_ms
0009a5   5f73     MOV	0x73, R7             	TRAPPC2	_delay_ms
0009a6   e00f     MOVP	#0x0F               	PAGESEL	_delay_ms
0009a7   df0e     CALL	#0xf0e              	CALL	_delay_ms
0009a8   9f09     MOV	R7, #0x9             	TRAPPC1	$+2
0009a9   5f73     MOV	0x73, R7             	TRAPPC2	$+1
0009aa   e009     MOVP	#0x09               	PAGESEL	$
0009ab   e100     MOVB	#0x00               	BANKSEL	r0x1014
0009ac   0bb0     INC	0xb0                 	INC	r0x1014
0009ad   c977     JMP	#0x977               	JMP	_00205_DS_
                                           _00209_DS_
0009ae   0008     CRET                     	CRET	
                                           func._Tail_LowWater_Blinky	.code
                                           _Tail_LowWater_Blinky	;Function start
000435   9820     MOV	R0, #0x20            	MOV	R0,# 0x20
000436   e100     MOVB	#0x00               	BANKSEL	r0x1018
000437   51b5     MOV	0xb5, R0             	MOV	r0x1018, R0
                                           _00181_DS_
000438   982a     MOV	R0, #0x2a            	MOV	R0,# 0x2a
                                           	BANKSEL	r0x1018
000439   38b5     SUB	R0, 0xb5             	SUB	R0, r0x1018
00043a   7003     JNB	0x3, 0               	JNB	PSW, 0
00043b   c472     JMP	#0x472               	JMP	_00184_DS_
                                           	BANKSEL	r0x1018
00043c   06b5     DECR	0xb5                	DECR	r0x1018
                                           	BANKSEL	r0x1019
00043d   51b4     MOV	0xb4, R0             	MOV	r0x1019, R0
00043e   98ff     MOV	R0, #0xff            	MOV	R0,# 0xff
                                           	BANKSEL	STK01
00043f   51ef     MOV	0xef, R0             	MOV	STK01, R0
                                           	BANKSEL	r0x1019
000440   0eb4     MOVZ	R0, 0xb4            	MOVZ	R0, r0x1019
                                           	BANKSEL	STK00
000441   51f0     MOV	0xf0, R0             	MOV	STK00, R0
000442   9801     MOV	R0, #0x1             	MOV	R0,# 0x01
000443   9f0e     MOV	R7, #0xe             	TRAPPC1	_SPI_Write_2Byte
000444   5f73     MOV	0x73, R7             	TRAPPC2	_SPI_Write_2Byte
000445   e00e     MOVP	#0x0E               	PAGESEL	_SPI_Write_2Byte
000446   de03     CALL	#0xe03              	CALL	_SPI_Write_2Byte
000447   9f04     MOV	R7, #0x4             	TRAPPC1	$+2
000448   5f73     MOV	0x73, R7             	TRAPPC2	$+1
000449   e004     MOVP	#0x04               	PAGESEL	$
00044a   9810     MOV	R0, #0x10            	MOV	R0,# 0x10
00044b   e100     MOVB	#0x00               	BANKSEL	STK01
00044c   51ef     MOV	0xef, R0             	MOV	STK01, R0
                                           	BANKSEL	r0x1018
00044d   0eb5     MOVZ	R0, 0xb5            	MOVZ	R0, r0x1018
                                           	BANKSEL	STK00
00044e   51f0     MOV	0xf0, R0             	MOV	STK00, R0
00044f   9801     MOV	R0, #0x1             	MOV	R0,# 0x01
000450   9f0e     MOV	R7, #0xe             	TRAPPC1	_SPI_Write_2Byte
000451   5f73     MOV	0x73, R7             	TRAPPC2	_SPI_Write_2Byte
000452   e00e     MOVP	#0x0E               	PAGESEL	_SPI_Write_2Byte
000453   de03     CALL	#0xe03              	CALL	_SPI_Write_2Byte
000454   9f04     MOV	R7, #0x4             	TRAPPC1	$+2
000455   5f73     MOV	0x73, R7             	TRAPPC2	$+1
000456   e004     MOVP	#0x04               	PAGESEL	$
000457   9800     MOV	R0, #0               	MOV	R0,# 0x00
000458   e100     MOVB	#0x00               	BANKSEL	STK01
000459   51ef     MOV	0xef, R0             	MOV	STK01, R0
00045a   9837     MOV	R0, #0x37            	MOV	R0,# 0x37
                                           	BANKSEL	STK00
00045b   51f0     MOV	0xf0, R0             	MOV	STK00, R0
00045c   9801     MOV	R0, #0x1             	MOV	R0,# 0x01
00045d   9f0e     MOV	R7, #0xe             	TRAPPC1	_SPI_Write_2Byte
00045e   5f73     MOV	0x73, R7             	TRAPPC2	_SPI_Write_2Byte
00045f   e00e     MOVP	#0x0E               	PAGESEL	_SPI_Write_2Byte
000460   de03     CALL	#0xe03              	CALL	_SPI_Write_2Byte
000461   9f04     MOV	R7, #0x4             	TRAPPC1	$+2
000462   5f73     MOV	0x73, R7             	TRAPPC2	$+1
000463   e004     MOVP	#0x04               	PAGESEL	$
000464   9841     MOV	R0, #0x41            	MOV	R0,# 0x41
000465   e100     MOVB	#0x00               	BANKSEL	STK00
000466   51f0     MOV	0xf0, R0             	MOV	STK00, R0
000467   9800     MOV	R0, #0               	MOV	R0,# 0x00
000468   9f0f     MOV	R7, #0xf             	TRAPPC1	_delay_ms
000469   5f73     MOV	0x73, R7             	TRAPPC2	_delay_ms
00046a   e00f     MOVP	#0x0F               	PAGESEL	_delay_ms
00046b   df0e     CALL	#0xf0e              	CALL	_delay_ms
00046c   9f04     MOV	R7, #0x4             	TRAPPC1	$+2
00046d   5f73     MOV	0x73, R7             	TRAPPC2	$+1
00046e   e004     MOVP	#0x04               	PAGESEL	$
00046f   e100     MOVB	#0x00               	BANKSEL	r0x1018
000470   0bb5     INC	0xb5                 	INC	r0x1018
000471   c438     JMP	#0x438               	JMP	_00181_DS_
                                           _00184_DS_
000472   981f     MOV	R0, #0x1f            	MOV	R0,# 0x1f
                                           	BANKSEL	r0x1018
000473   51b5     MOV	0xb5, R0             	MOV	r0x1018, R0
                                           _00185_DS_
000474   9831     MOV	R0, #0x31            	MOV	R0,# 0x31
                                           	BANKSEL	r0x1018
000475   38b5     SUB	R0, 0xb5             	SUB	R0, r0x1018
000476   7003     JNB	0x3, 0               	JNB	PSW, 0
000477   c4ce     JMP	#0x4ce               	JMP	_00189_DS_
                                           	BANKSEL	r0x1018
000478   0eb5     MOVZ	R0, 0xb5            	MOVZ	R0, r0x1018
                                           	BANKSEL	r0x1019
000479   51b4     MOV	0xb4, R0             	MOV	r0x1019, R0
                                           	BANKSEL	r0x101A
00047a   03b3     CLR	0xb3                 	CLR	r0x101A
00047b   98e1     MOV	R0, #0xe1            	MOV	R0,# 0xe1
                                           	BANKSEL	r0x1019
00047c   21b4     ADD	0xb4, R0             	ADD	r0x1019, R0
00047d   7003     JNB	0x3, 0               	JNB	PSW, 0
00047e   c480     JMP	#0x480               	JMP	_00373_DS_
                                           	BANKSEL	r0x101A
00047f   07b3     DEC	0xb3                 	DEC	r0x101A
                                           _00373_DS_
000480   9801     MOV	R0, #0x1             	MOV	R0,# 0x01
                                           	BANKSEL	r0x101B
000481   51b2     MOV	0xb2, R0             	MOV	r0x101B, R0
000482   9800     MOV	R0, #0               	MOV	R0,# 0x00
                                           	BANKSEL	r0x101C
000483   51b1     MOV	0xb1, R0             	MOV	r0x101C, R0
                                           	BANKSEL	r0x1019
000484   0eb4     MOVZ	R0, 0xb4            	MOVZ	R0, r0x1019
000485   ff10     INC	R0                   	INC	R0
000486   c48b     JMP	#0x48b               	JMP	_00200_DS_
                                           _00199_DS_
000487   6003     CLR	0x3, 0               	CLR	PSW, 0
000488   e100     MOVB	#0x00               	BANKSEL	r0x101B
000489   13b2     RLC	0xb2                 	RLC	r0x101B
                                           	BANKSEL	r0x101C
00048a   13b1     RLC	0xb1                 	RLC	r0x101C
                                           _00200_DS_
00048b   ff58     DECJZ	R0                 	DECJZ	R0
00048c   c487     JMP	#0x487               	JMP	_00199_DS_
                                           	BANKSEL	r0x101B
00048d   0eb2     MOVZ	R0, 0xb2            	MOVZ	R0, r0x101B
                                           	BANKSEL	r0x1019
00048e   51b4     MOV	0xb4, R0             	MOV	r0x1019, R0
                                           	BANKSEL	r0x1019
00048f   50b4     MOV	R0, 0xb4             	MOV	R0, r0x1019
                                           	BANKSEL	_Stop_Low_Addr
000490   21c7     ADD	0xc7, R0             	ADD	_Stop_Low_Addr, R0
                                           	BANKSEL	r0x101C
000491   0eb1     MOVZ	R0, 0xb1            	MOVZ	R0, r0x101C
                                           	BANKSEL	r0x101A
000492   51b3     MOV	0xb3, R0             	MOV	r0x101A, R0
000493   7003     JNB	0x3, 0               	JNB	PSW, 0
000494   ff10     INC	R0                   	INC	R0
000495   7203     JNB	0x3, 2               	JNB	PSW, 2
000496   c498     JMP	#0x498               	JMP	_00374_DS_
                                           	BANKSEL	_Stop_Low_Addr
000497   21c8     ADD	0xc8, R0             	ADD	(_Stop_Low_Addr + 1), R0
                                           _00374_DS_
                                           	BANKSEL	r0x1018
000498   06b5     DECR	0xb5                	DECR	r0x1018
                                           	BANKSEL	r0x1019
000499   51b4     MOV	0xb4, R0             	MOV	r0x1019, R0
00049a   98ff     MOV	R0, #0xff            	MOV	R0,# 0xff
                                           	BANKSEL	STK01
00049b   51ef     MOV	0xef, R0             	MOV	STK01, R0
                                           	BANKSEL	r0x1019
00049c   0eb4     MOVZ	R0, 0xb4            	MOVZ	R0, r0x1019
                                           	BANKSEL	STK00
00049d   51f0     MOV	0xf0, R0             	MOV	STK00, R0
00049e   9802     MOV	R0, #0x2             	MOV	R0,# 0x02
00049f   9f0e     MOV	R7, #0xe             	TRAPPC1	_SPI_Write_2Byte
0004a0   5f73     MOV	0x73, R7             	TRAPPC2	_SPI_Write_2Byte
0004a1   e00e     MOVP	#0x0E               	PAGESEL	_SPI_Write_2Byte
0004a2   de03     CALL	#0xe03              	CALL	_SPI_Write_2Byte
0004a3   9f04     MOV	R7, #0x4             	TRAPPC1	$+2
0004a4   5f73     MOV	0x73, R7             	TRAPPC2	$+1
0004a5   e004     MOVP	#0x04               	PAGESEL	$
0004a6   9810     MOV	R0, #0x10            	MOV	R0,# 0x10
0004a7   e100     MOVB	#0x00               	BANKSEL	STK01
0004a8   51ef     MOV	0xef, R0             	MOV	STK01, R0
                                           	BANKSEL	r0x1018
0004a9   0eb5     MOVZ	R0, 0xb5            	MOVZ	R0, r0x1018
                                           	BANKSEL	STK00
0004aa   51f0     MOV	0xf0, R0             	MOV	STK00, R0
0004ab   9802     MOV	R0, #0x2             	MOV	R0,# 0x02
0004ac   9f0e     MOV	R7, #0xe             	TRAPPC1	_SPI_Write_2Byte
0004ad   5f73     MOV	0x73, R7             	TRAPPC2	_SPI_Write_2Byte
0004ae   e00e     MOVP	#0x0E               	PAGESEL	_SPI_Write_2Byte
0004af   de03     CALL	#0xe03              	CALL	_SPI_Write_2Byte
0004b0   9f04     MOV	R7, #0x4             	TRAPPC1	$+2
0004b1   5f73     MOV	0x73, R7             	TRAPPC2	$+1
0004b2   e004     MOVP	#0x04               	PAGESEL	$
0004b3   9800     MOV	R0, #0               	MOV	R0,# 0x00
0004b4   e100     MOVB	#0x00               	BANKSEL	STK01
0004b5   51ef     MOV	0xef, R0             	MOV	STK01, R0
0004b6   9837     MOV	R0, #0x37            	MOV	R0,# 0x37
                                           	BANKSEL	STK00
0004b7   51f0     MOV	0xf0, R0             	MOV	STK00, R0
0004b8   9802     MOV	R0, #0x2             	MOV	R0,# 0x02
0004b9   9f0e     MOV	R7, #0xe             	TRAPPC1	_SPI_Write_2Byte
0004ba   5f73     MOV	0x73, R7             	TRAPPC2	_SPI_Write_2Byte
0004bb   e00e     MOVP	#0x0E               	PAGESEL	_SPI_Write_2Byte
0004bc   de03     CALL	#0xe03              	CALL	_SPI_Write_2Byte
0004bd   9f04     MOV	R7, #0x4             	TRAPPC1	$+2
0004be   5f73     MOV	0x73, R7             	TRAPPC2	$+1
0004bf   e004     MOVP	#0x04               	PAGESEL	$
0004c0   9841     MOV	R0, #0x41            	MOV	R0,# 0x41
0004c1   e100     MOVB	#0x00               	BANKSEL	STK00
0004c2   51f0     MOV	0xf0, R0             	MOV	STK00, R0
0004c3   9800     MOV	R0, #0               	MOV	R0,# 0x00
0004c4   9f0f     MOV	R7, #0xf             	TRAPPC1	_delay_ms
0004c5   5f73     MOV	0x73, R7             	TRAPPC2	_delay_ms
0004c6   e00f     MOVP	#0x0F               	PAGESEL	_delay_ms
0004c7   df0e     CALL	#0xf0e              	CALL	_delay_ms
0004c8   9f04     MOV	R7, #0x4             	TRAPPC1	$+2
0004c9   5f73     MOV	0x73, R7             	TRAPPC2	$+1
0004ca   e004     MOVP	#0x04               	PAGESEL	$
0004cb   e100     MOVB	#0x00               	BANKSEL	r0x1018
0004cc   0bb5     INC	0xb5                 	INC	r0x1018
0004cd   c474     JMP	#0x474               	JMP	_00185_DS_
                                           _00189_DS_
0004ce   0008     CRET                     	CRET	
                                           func._Tail_HighWater_Open	.code
                                           _Tail_HighWater_Open	;Function start
000397   9820     MOV	R0, #0x20            	MOV	R0,# 0x20
000398   e100     MOVB	#0x00               	BANKSEL	r0x101D
000399   51ba     MOV	0xba, R0             	MOV	r0x101D, R0
                                           _00161_DS_
00039a   982a     MOV	R0, #0x2a            	MOV	R0,# 0x2a
                                           	BANKSEL	r0x101D
00039b   38ba     SUB	R0, 0xba             	SUB	R0, r0x101D
00039c   7003     JNB	0x3, 0               	JNB	PSW, 0
00039d   c3d4     JMP	#0x3d4               	JMP	_00164_DS_
                                           	BANKSEL	r0x101D
00039e   06ba     DECR	0xba                	DECR	r0x101D
                                           	BANKSEL	r0x101E
00039f   51b9     MOV	0xb9, R0             	MOV	r0x101E, R0
0003a0   9810     MOV	R0, #0x10            	MOV	R0,# 0x10
                                           	BANKSEL	STK01
0003a1   51ef     MOV	0xef, R0             	MOV	STK01, R0
                                           	BANKSEL	r0x101E
0003a2   0eb9     MOVZ	R0, 0xb9            	MOVZ	R0, r0x101E
                                           	BANKSEL	STK00
0003a3   51f0     MOV	0xf0, R0             	MOV	STK00, R0
0003a4   9801     MOV	R0, #0x1             	MOV	R0,# 0x01
0003a5   9f0e     MOV	R7, #0xe             	TRAPPC1	_SPI_Write_2Byte
0003a6   5f73     MOV	0x73, R7             	TRAPPC2	_SPI_Write_2Byte
0003a7   e00e     MOVP	#0x0E               	PAGESEL	_SPI_Write_2Byte
0003a8   de03     CALL	#0xe03              	CALL	_SPI_Write_2Byte
0003a9   9f03     MOV	R7, #0x3             	TRAPPC1	$+2
0003aa   5f73     MOV	0x73, R7             	TRAPPC2	$+1
0003ab   e003     MOVP	#0x03               	PAGESEL	$
0003ac   98ff     MOV	R0, #0xff            	MOV	R0,# 0xff
0003ad   e100     MOVB	#0x00               	BANKSEL	STK01
0003ae   51ef     MOV	0xef, R0             	MOV	STK01, R0
                                           	BANKSEL	r0x101D
0003af   0eba     MOVZ	R0, 0xba            	MOVZ	R0, r0x101D
                                           	BANKSEL	STK00
0003b0   51f0     MOV	0xf0, R0             	MOV	STK00, R0
0003b1   9801     MOV	R0, #0x1             	MOV	R0,# 0x01
0003b2   9f0e     MOV	R7, #0xe             	TRAPPC1	_SPI_Write_2Byte
0003b3   5f73     MOV	0x73, R7             	TRAPPC2	_SPI_Write_2Byte
0003b4   e00e     MOVP	#0x0E               	PAGESEL	_SPI_Write_2Byte
0003b5   de03     CALL	#0xe03              	CALL	_SPI_Write_2Byte
0003b6   9f03     MOV	R7, #0x3             	TRAPPC1	$+2
0003b7   5f73     MOV	0x73, R7             	TRAPPC2	$+1
0003b8   e003     MOVP	#0x03               	PAGESEL	$
0003b9   9800     MOV	R0, #0               	MOV	R0,# 0x00
0003ba   e100     MOVB	#0x00               	BANKSEL	STK01
0003bb   51ef     MOV	0xef, R0             	MOV	STK01, R0
0003bc   9837     MOV	R0, #0x37            	MOV	R0,# 0x37
                                           	BANKSEL	STK00
0003bd   51f0     MOV	0xf0, R0             	MOV	STK00, R0
0003be   9801     MOV	R0, #0x1             	MOV	R0,# 0x01
0003bf   9f0e     MOV	R7, #0xe             	TRAPPC1	_SPI_Write_2Byte
0003c0   5f73     MOV	0x73, R7             	TRAPPC2	_SPI_Write_2Byte
0003c1   e00e     MOVP	#0x0E               	PAGESEL	_SPI_Write_2Byte
0003c2   de03     CALL	#0xe03              	CALL	_SPI_Write_2Byte
0003c3   9f03     MOV	R7, #0x3             	TRAPPC1	$+2
0003c4   5f73     MOV	0x73, R7             	TRAPPC2	$+1
0003c5   e003     MOVP	#0x03               	PAGESEL	$
0003c6   9841     MOV	R0, #0x41            	MOV	R0,# 0x41
0003c7   e100     MOVB	#0x00               	BANKSEL	STK00
0003c8   51f0     MOV	0xf0, R0             	MOV	STK00, R0
0003c9   9800     MOV	R0, #0               	MOV	R0,# 0x00
0003ca   9f0f     MOV	R7, #0xf             	TRAPPC1	_delay_ms
0003cb   5f73     MOV	0x73, R7             	TRAPPC2	_delay_ms
0003cc   e00f     MOVP	#0x0F               	PAGESEL	_delay_ms
0003cd   df0e     CALL	#0xf0e              	CALL	_delay_ms
0003ce   9f03     MOV	R7, #0x3             	TRAPPC1	$+2
0003cf   5f73     MOV	0x73, R7             	TRAPPC2	$+1
0003d0   e003     MOVP	#0x03               	PAGESEL	$
0003d1   e100     MOVB	#0x00               	BANKSEL	r0x101D
0003d2   0bba     INC	0xba                 	INC	r0x101D
0003d3   c39a     JMP	#0x39a               	JMP	_00161_DS_
                                           _00164_DS_
0003d4   98ff     MOV	R0, #0xff            	MOV	R0,# 0xff
                                           	BANKSEL	_Stop_High_Addr
0003d5   51d9     MOV	0xd9, R0             	MOV	_Stop_High_Addr, R0
0003d6   980f     MOV	R0, #0xf             	MOV	R0,# 0x0f
                                           	BANKSEL	_Stop_High_Addr
0003d7   51da     MOV	0xda, R0             	MOV	(_Stop_High_Addr + 1), R0
0003d8   981f     MOV	R0, #0x1f            	MOV	R0,# 0x1f
                                           	BANKSEL	r0x101D
0003d9   51ba     MOV	0xba, R0             	MOV	r0x101D, R0
                                           _00165_DS_
0003da   9831     MOV	R0, #0x31            	MOV	R0,# 0x31
                                           	BANKSEL	r0x101D
0003db   38ba     SUB	R0, 0xba             	SUB	R0, r0x101D
0003dc   7003     JNB	0x3, 0               	JNB	PSW, 0
0003dd   c434     JMP	#0x434               	JMP	_00169_DS_
                                           	BANKSEL	r0x101D
0003de   0eba     MOVZ	R0, 0xba            	MOVZ	R0, r0x101D
                                           	BANKSEL	r0x101E
0003df   51b9     MOV	0xb9, R0             	MOV	r0x101E, R0
                                           	BANKSEL	r0x101F
0003e0   03b8     CLR	0xb8                 	CLR	r0x101F
0003e1   98e1     MOV	R0, #0xe1            	MOV	R0,# 0xe1
                                           	BANKSEL	r0x101E
0003e2   21b9     ADD	0xb9, R0             	ADD	r0x101E, R0
0003e3   7003     JNB	0x3, 0               	JNB	PSW, 0
0003e4   c3e6     JMP	#0x3e6               	JMP	_00375_DS_
                                           	BANKSEL	r0x101F
0003e5   07b8     DEC	0xb8                 	DEC	r0x101F
                                           _00375_DS_
0003e6   9801     MOV	R0, #0x1             	MOV	R0,# 0x01
                                           	BANKSEL	r0x1020
0003e7   51b7     MOV	0xb7, R0             	MOV	r0x1020, R0
0003e8   9800     MOV	R0, #0               	MOV	R0,# 0x00
                                           	BANKSEL	r0x1021
0003e9   51b6     MOV	0xb6, R0             	MOV	r0x1021, R0
                                           	BANKSEL	r0x101E
0003ea   0eb9     MOVZ	R0, 0xb9            	MOVZ	R0, r0x101E
0003eb   ff10     INC	R0                   	INC	R0
0003ec   c3f1     JMP	#0x3f1               	JMP	_00180_DS_
                                           _00179_DS_
0003ed   6003     CLR	0x3, 0               	CLR	PSW, 0
0003ee   e100     MOVB	#0x00               	BANKSEL	r0x1020
0003ef   13b7     RLC	0xb7                 	RLC	r0x1020
                                           	BANKSEL	r0x1021
0003f0   13b6     RLC	0xb6                 	RLC	r0x1021
                                           _00180_DS_
0003f1   ff58     DECJZ	R0                 	DECJZ	R0
0003f2   c3ed     JMP	#0x3ed               	JMP	_00179_DS_
                                           	BANKSEL	r0x1020
0003f3   0eb7     MOVZ	R0, 0xb7            	MOVZ	R0, r0x1020
                                           	BANKSEL	r0x101E
0003f4   51b9     MOV	0xb9, R0             	MOV	r0x101E, R0
                                           	BANKSEL	r0x101E
0003f5   50b9     MOV	R0, 0xb9             	MOV	R0, r0x101E
                                           	BANKSEL	_Stop_Low_Addr
0003f6   21c7     ADD	0xc7, R0             	ADD	_Stop_Low_Addr, R0
                                           	BANKSEL	r0x1021
0003f7   0eb6     MOVZ	R0, 0xb6            	MOVZ	R0, r0x1021
                                           	BANKSEL	r0x101F
0003f8   51b8     MOV	0xb8, R0             	MOV	r0x101F, R0
0003f9   7003     JNB	0x3, 0               	JNB	PSW, 0
0003fa   ff10     INC	R0                   	INC	R0
0003fb   7203     JNB	0x3, 2               	JNB	PSW, 2
0003fc   c3fe     JMP	#0x3fe               	JMP	_00376_DS_
                                           	BANKSEL	_Stop_Low_Addr
0003fd   21c8     ADD	0xc8, R0             	ADD	(_Stop_Low_Addr + 1), R0
                                           _00376_DS_
                                           	BANKSEL	r0x101D
0003fe   06ba     DECR	0xba                	DECR	r0x101D
                                           	BANKSEL	r0x101E
0003ff   51b9     MOV	0xb9, R0             	MOV	r0x101E, R0
000400   9810     MOV	R0, #0x10            	MOV	R0,# 0x10
                                           	BANKSEL	STK01
000401   51ef     MOV	0xef, R0             	MOV	STK01, R0
                                           	BANKSEL	r0x101E
000402   0eb9     MOVZ	R0, 0xb9            	MOVZ	R0, r0x101E
                                           	BANKSEL	STK00
000403   51f0     MOV	0xf0, R0             	MOV	STK00, R0
000404   9802     MOV	R0, #0x2             	MOV	R0,# 0x02
000405   9f0e     MOV	R7, #0xe             	TRAPPC1	_SPI_Write_2Byte
000406   5f73     MOV	0x73, R7             	TRAPPC2	_SPI_Write_2Byte
000407   e00e     MOVP	#0x0E               	PAGESEL	_SPI_Write_2Byte
000408   de03     CALL	#0xe03              	CALL	_SPI_Write_2Byte
000409   9f04     MOV	R7, #0x4             	TRAPPC1	$+2
00040a   5f73     MOV	0x73, R7             	TRAPPC2	$+1
00040b   e004     MOVP	#0x04               	PAGESEL	$
00040c   98ff     MOV	R0, #0xff            	MOV	R0,# 0xff
00040d   e100     MOVB	#0x00               	BANKSEL	STK01
00040e   51ef     MOV	0xef, R0             	MOV	STK01, R0
                                           	BANKSEL	r0x101D
00040f   0eba     MOVZ	R0, 0xba            	MOVZ	R0, r0x101D
                                           	BANKSEL	STK00
000410   51f0     MOV	0xf0, R0             	MOV	STK00, R0
000411   9802     MOV	R0, #0x2             	MOV	R0,# 0x02
000412   9f0e     MOV	R7, #0xe             	TRAPPC1	_SPI_Write_2Byte
000413   5f73     MOV	0x73, R7             	TRAPPC2	_SPI_Write_2Byte
000414   e00e     MOVP	#0x0E               	PAGESEL	_SPI_Write_2Byte
000415   de03     CALL	#0xe03              	CALL	_SPI_Write_2Byte
000416   9f04     MOV	R7, #0x4             	TRAPPC1	$+2
000417   5f73     MOV	0x73, R7             	TRAPPC2	$+1
000418   e004     MOVP	#0x04               	PAGESEL	$
000419   9800     MOV	R0, #0               	MOV	R0,# 0x00
00041a   e100     MOVB	#0x00               	BANKSEL	STK01
00041b   51ef     MOV	0xef, R0             	MOV	STK01, R0
00041c   9837     MOV	R0, #0x37            	MOV	R0,# 0x37
                                           	BANKSEL	STK00
00041d   51f0     MOV	0xf0, R0             	MOV	STK00, R0
00041e   9802     MOV	R0, #0x2             	MOV	R0,# 0x02
00041f   9f0e     MOV	R7, #0xe             	TRAPPC1	_SPI_Write_2Byte
000420   5f73     MOV	0x73, R7             	TRAPPC2	_SPI_Write_2Byte
000421   e00e     MOVP	#0x0E               	PAGESEL	_SPI_Write_2Byte
000422   de03     CALL	#0xe03              	CALL	_SPI_Write_2Byte
000423   9f04     MOV	R7, #0x4             	TRAPPC1	$+2
000424   5f73     MOV	0x73, R7             	TRAPPC2	$+1
000425   e004     MOVP	#0x04               	PAGESEL	$
000426   9841     MOV	R0, #0x41            	MOV	R0,# 0x41
000427   e100     MOVB	#0x00               	BANKSEL	STK00
000428   51f0     MOV	0xf0, R0             	MOV	STK00, R0
000429   9800     MOV	R0, #0               	MOV	R0,# 0x00
00042a   9f0f     MOV	R7, #0xf             	TRAPPC1	_delay_ms
00042b   5f73     MOV	0x73, R7             	TRAPPC2	_delay_ms
00042c   e00f     MOVP	#0x0F               	PAGESEL	_delay_ms
00042d   df0e     CALL	#0xf0e              	CALL	_delay_ms
00042e   9f04     MOV	R7, #0x4             	TRAPPC1	$+2
00042f   5f73     MOV	0x73, R7             	TRAPPC2	$+1
000430   e004     MOVP	#0x04               	PAGESEL	$
000431   e100     MOVB	#0x00               	BANKSEL	r0x101D
000432   0bba     INC	0xba                 	INC	r0x101D
000433   c3da     JMP	#0x3da               	JMP	_00165_DS_
                                           _00169_DS_
000434   0008     CRET                     	CRET	
                                           func._Tail_LowWater_Open	.code
                                           _Tail_LowWater_Open	;Function start
000a0d   9820     MOV	R0, #0x20            	MOV	R0,# 0x20
000a0e   e100     MOVB	#0x00               	BANKSEL	r0x1022
000a0f   51bb     MOV	0xbb, R0             	MOV	r0x1022, R0
                                           _00143_DS_
000a10   9831     MOV	R0, #0x31            	MOV	R0,# 0x31
                                           	BANKSEL	r0x1022
000a11   38bb     SUB	R0, 0xbb             	SUB	R0, r0x1022
000a12   7003     JNB	0x3, 0               	JNB	PSW, 0
000a13   ca3b     JMP	#0xa3b               	JMP	_00146_DS_
000a14   9810     MOV	R0, #0x10            	MOV	R0,# 0x10
                                           	BANKSEL	STK01
000a15   51ef     MOV	0xef, R0             	MOV	STK01, R0
                                           	BANKSEL	r0x1022
000a16   0ebb     MOVZ	R0, 0xbb            	MOVZ	R0, r0x1022
                                           	BANKSEL	STK00
000a17   51f0     MOV	0xf0, R0             	MOV	STK00, R0
000a18   9801     MOV	R0, #0x1             	MOV	R0,# 0x01
000a19   9f0e     MOV	R7, #0xe             	TRAPPC1	_SPI_Write_2Byte
000a1a   5f73     MOV	0x73, R7             	TRAPPC2	_SPI_Write_2Byte
000a1b   e00e     MOVP	#0x0E               	PAGESEL	_SPI_Write_2Byte
000a1c   de03     CALL	#0xe03              	CALL	_SPI_Write_2Byte
000a1d   9f0a     MOV	R7, #0xa             	TRAPPC1	$+2
000a1e   5f73     MOV	0x73, R7             	TRAPPC2	$+1
000a1f   e00a     MOVP	#0x0A               	PAGESEL	$
000a20   9800     MOV	R0, #0               	MOV	R0,# 0x00
000a21   e100     MOVB	#0x00               	BANKSEL	STK01
000a22   51ef     MOV	0xef, R0             	MOV	STK01, R0
000a23   9837     MOV	R0, #0x37            	MOV	R0,# 0x37
                                           	BANKSEL	STK00
000a24   51f0     MOV	0xf0, R0             	MOV	STK00, R0
000a25   9801     MOV	R0, #0x1             	MOV	R0,# 0x01
000a26   9f0e     MOV	R7, #0xe             	TRAPPC1	_SPI_Write_2Byte
000a27   5f73     MOV	0x73, R7             	TRAPPC2	_SPI_Write_2Byte
000a28   e00e     MOVP	#0x0E               	PAGESEL	_SPI_Write_2Byte
000a29   de03     CALL	#0xe03              	CALL	_SPI_Write_2Byte
000a2a   9f0a     MOV	R7, #0xa             	TRAPPC1	$+2
000a2b   5f73     MOV	0x73, R7             	TRAPPC2	$+1
000a2c   e00a     MOVP	#0x0A               	PAGESEL	$
000a2d   981e     MOV	R0, #0x1e            	MOV	R0,# 0x1e
000a2e   e100     MOVB	#0x00               	BANKSEL	STK00
000a2f   51f0     MOV	0xf0, R0             	MOV	STK00, R0
000a30   9800     MOV	R0, #0               	MOV	R0,# 0x00
000a31   9f0f     MOV	R7, #0xf             	TRAPPC1	_delay_ms
000a32   5f73     MOV	0x73, R7             	TRAPPC2	_delay_ms
000a33   e00f     MOVP	#0x0F               	PAGESEL	_delay_ms
000a34   df0e     CALL	#0xf0e              	CALL	_delay_ms
000a35   9f0a     MOV	R7, #0xa             	TRAPPC1	$+2
000a36   5f73     MOV	0x73, R7             	TRAPPC2	$+1
000a37   e00a     MOVP	#0x0A               	PAGESEL	$
000a38   e100     MOVB	#0x00               	BANKSEL	r0x1022
000a39   0bbb     INC	0xbb                 	INC	r0x1022
000a3a   ca10     JMP	#0xa10               	JMP	_00143_DS_
                                           _00146_DS_
000a3b   981f     MOV	R0, #0x1f            	MOV	R0,# 0x1f
                                           	BANKSEL	r0x1022
000a3c   51bb     MOV	0xbb, R0             	MOV	r0x1022, R0
                                           _00147_DS_
000a3d   9831     MOV	R0, #0x31            	MOV	R0,# 0x31
                                           	BANKSEL	r0x1022
000a3e   38bb     SUB	R0, 0xbb             	SUB	R0, r0x1022
000a3f   7003     JNB	0x3, 0               	JNB	PSW, 0
000a40   ca68     JMP	#0xa68               	JMP	_00151_DS_
000a41   9810     MOV	R0, #0x10            	MOV	R0,# 0x10
                                           	BANKSEL	STK01
000a42   51ef     MOV	0xef, R0             	MOV	STK01, R0
                                           	BANKSEL	r0x1022
000a43   0ebb     MOVZ	R0, 0xbb            	MOVZ	R0, r0x1022
                                           	BANKSEL	STK00
000a44   51f0     MOV	0xf0, R0             	MOV	STK00, R0
000a45   9802     MOV	R0, #0x2             	MOV	R0,# 0x02
000a46   9f0e     MOV	R7, #0xe             	TRAPPC1	_SPI_Write_2Byte
000a47   5f73     MOV	0x73, R7             	TRAPPC2	_SPI_Write_2Byte
000a48   e00e     MOVP	#0x0E               	PAGESEL	_SPI_Write_2Byte
000a49   de03     CALL	#0xe03              	CALL	_SPI_Write_2Byte
000a4a   9f0a     MOV	R7, #0xa             	TRAPPC1	$+2
000a4b   5f73     MOV	0x73, R7             	TRAPPC2	$+1
000a4c   e00a     MOVP	#0x0A               	PAGESEL	$
000a4d   9800     MOV	R0, #0               	MOV	R0,# 0x00
000a4e   e100     MOVB	#0x00               	BANKSEL	STK01
000a4f   51ef     MOV	0xef, R0             	MOV	STK01, R0
000a50   9837     MOV	R0, #0x37            	MOV	R0,# 0x37
                                           	BANKSEL	STK00
000a51   51f0     MOV	0xf0, R0             	MOV	STK00, R0
000a52   9802     MOV	R0, #0x2             	MOV	R0,# 0x02
000a53   9f0e     MOV	R7, #0xe             	TRAPPC1	_SPI_Write_2Byte
000a54   5f73     MOV	0x73, R7             	TRAPPC2	_SPI_Write_2Byte
000a55   e00e     MOVP	#0x0E               	PAGESEL	_SPI_Write_2Byte
000a56   de03     CALL	#0xe03              	CALL	_SPI_Write_2Byte
000a57   9f0a     MOV	R7, #0xa             	TRAPPC1	$+2
000a58   5f73     MOV	0x73, R7             	TRAPPC2	$+1
000a59   e00a     MOVP	#0x0A               	PAGESEL	$
000a5a   981e     MOV	R0, #0x1e            	MOV	R0,# 0x1e
000a5b   e100     MOVB	#0x00               	BANKSEL	STK00
000a5c   51f0     MOV	0xf0, R0             	MOV	STK00, R0
000a5d   9800     MOV	R0, #0               	MOV	R0,# 0x00
000a5e   9f0f     MOV	R7, #0xf             	TRAPPC1	_delay_ms
000a5f   5f73     MOV	0x73, R7             	TRAPPC2	_delay_ms
000a60   e00f     MOVP	#0x0F               	PAGESEL	_delay_ms
000a61   df0e     CALL	#0xf0e              	CALL	_delay_ms
000a62   9f0a     MOV	R7, #0xa             	TRAPPC1	$+2
000a63   5f73     MOV	0x73, R7             	TRAPPC2	$+1
000a64   e00a     MOVP	#0x0A               	PAGESEL	$
000a65   e100     MOVB	#0x00               	BANKSEL	r0x1022
000a66   0bbb     INC	0xbb                 	INC	r0x1022
000a67   ca3d     JMP	#0xa3d               	JMP	_00147_DS_
                                           _00151_DS_
000a68   0008     CRET                     	CRET	
                                           func._Tail12_Breath_CloseTo10	.code
                                           _Tail12_Breath_CloseTo10	;Function start
000cb3   e100     MOVB	#0x00               	BANKSEL	r0x1023
000cb4   03bd     CLR	0xbd                 	CLR	r0x1023
                                           _00133_DS_
000cb5   9831     MOV	R0, #0x31            	MOV	R0,# 0x31
                                           	BANKSEL	r0x1023
000cb6   38bd     SUB	R0, 0xbd             	SUB	R0, r0x1023
000cb7   7003     JNB	0x3, 0               	JNB	PSW, 0
000cb8   cced     JMP	#0xced               	JMP	_00137_DS_
000cb9   9805     MOV	R0, #0x5             	MOV	R0,# 0x05
                                           	BANKSEL	STK00
000cba   51f0     MOV	0xf0, R0             	MOV	STK00, R0
                                           	BANKSEL	r0x1023
000cbb   0ebd     MOVZ	R0, 0xbd            	MOVZ	R0, r0x1023
000cbc   9f0f     MOV	R7, #0xf             	TRAPPC1	__hmulchar
000cbd   5f73     MOV	0x73, R7             	TRAPPC2	__hmulchar
000cbe   e00f     MOVP	#0x0F               	PAGESEL	__hmulchar
000cbf   df99     CALL	#0xf99              	CALL	__hmulchar
000cc0   9f0c     MOV	R7, #0xc             	TRAPPC1	$+2
000cc1   5f73     MOV	0x73, R7             	TRAPPC2	$+1
000cc2   e00c     MOVP	#0x0C               	PAGESEL	$
000cc3   e100     MOVB	#0x00               	BANKSEL	r0x1024
000cc4   51bc     MOV	0xbc, R0             	MOV	r0x1024, R0
                                           	BANKSEL	r0x1024
000cc5   05bc     CPL	0xbc                 	CPL	r0x1024
                                           	BANKSEL	r0x1024
000cc6   0ebc     MOVZ	R0, 0xbc            	MOVZ	R0, r0x1024
                                           	BANKSEL	STK01
000cc7   51ef     MOV	0xef, R0             	MOV	STK01, R0
000cc8   981f     MOV	R0, #0x1f            	MOV	R0,# 0x1f
                                           	BANKSEL	STK00
000cc9   51f0     MOV	0xf0, R0             	MOV	STK00, R0
000cca   9801     MOV	R0, #0x1             	MOV	R0,# 0x01
000ccb   9f0e     MOV	R7, #0xe             	TRAPPC1	_SPI_Write_2Byte
000ccc   5f73     MOV	0x73, R7             	TRAPPC2	_SPI_Write_2Byte
000ccd   e00e     MOVP	#0x0E               	PAGESEL	_SPI_Write_2Byte
000cce   de03     CALL	#0xe03              	CALL	_SPI_Write_2Byte
000ccf   9f0c     MOV	R7, #0xc             	TRAPPC1	$+2
000cd0   5f73     MOV	0x73, R7             	TRAPPC2	$+1
000cd1   e00c     MOVP	#0x0C               	PAGESEL	$
000cd2   9800     MOV	R0, #0               	MOV	R0,# 0x00
000cd3   e100     MOVB	#0x00               	BANKSEL	STK01
000cd4   51ef     MOV	0xef, R0             	MOV	STK01, R0
000cd5   9837     MOV	R0, #0x37            	MOV	R0,# 0x37
                                           	BANKSEL	STK00
000cd6   51f0     MOV	0xf0, R0             	MOV	STK00, R0
000cd7   9801     MOV	R0, #0x1             	MOV	R0,# 0x01
000cd8   9f0e     MOV	R7, #0xe             	TRAPPC1	_SPI_Write_2Byte
000cd9   5f73     MOV	0x73, R7             	TRAPPC2	_SPI_Write_2Byte
000cda   e00e     MOVP	#0x0E               	PAGESEL	_SPI_Write_2Byte
000cdb   de03     CALL	#0xe03              	CALL	_SPI_Write_2Byte
000cdc   9f0c     MOV	R7, #0xc             	TRAPPC1	$+2
000cdd   5f73     MOV	0x73, R7             	TRAPPC2	$+1
000cde   e00c     MOVP	#0x0C               	PAGESEL	$
000cdf   9814     MOV	R0, #0x14            	MOV	R0,# 0x14
000ce0   e100     MOVB	#0x00               	BANKSEL	STK00
000ce1   51f0     MOV	0xf0, R0             	MOV	STK00, R0
000ce2   9800     MOV	R0, #0               	MOV	R0,# 0x00
000ce3   9f0f     MOV	R7, #0xf             	TRAPPC1	_delay_ms
000ce4   5f73     MOV	0x73, R7             	TRAPPC2	_delay_ms
000ce5   e00f     MOVP	#0x0F               	PAGESEL	_delay_ms
000ce6   df0e     CALL	#0xf0e              	CALL	_delay_ms
000ce7   9f0c     MOV	R7, #0xc             	TRAPPC1	$+2
000ce8   5f73     MOV	0x73, R7             	TRAPPC2	$+1
000ce9   e00c     MOVP	#0x0C               	PAGESEL	$
000cea   e100     MOVB	#0x00               	BANKSEL	r0x1023
000ceb   0bbd     INC	0xbd                 	INC	r0x1023
000cec   ccb5     JMP	#0xcb5               	JMP	_00133_DS_
                                           _00137_DS_
000ced   0008     CRET                     	CRET	
                                           func._Tail12_Breath_Close	.code
                                           _Tail12_Breath_Close	;Function start
000cee   e100     MOVB	#0x00               	BANKSEL	r0x1025
000cef   03bf     CLR	0xbf                 	CLR	r0x1025
                                           _00123_DS_
000cf0   9834     MOV	R0, #0x34            	MOV	R0,# 0x34
                                           	BANKSEL	r0x1025
000cf1   38bf     SUB	R0, 0xbf             	SUB	R0, r0x1025
000cf2   7003     JNB	0x3, 0               	JNB	PSW, 0
000cf3   cd28     JMP	#0xd28               	JMP	_00127_DS_
000cf4   9805     MOV	R0, #0x5             	MOV	R0,# 0x05
                                           	BANKSEL	STK00
000cf5   51f0     MOV	0xf0, R0             	MOV	STK00, R0
                                           	BANKSEL	r0x1025
000cf6   0ebf     MOVZ	R0, 0xbf            	MOVZ	R0, r0x1025
000cf7   9f0f     MOV	R7, #0xf             	TRAPPC1	__hmulchar
000cf8   5f73     MOV	0x73, R7             	TRAPPC2	__hmulchar
000cf9   e00f     MOVP	#0x0F               	PAGESEL	__hmulchar
000cfa   df99     CALL	#0xf99              	CALL	__hmulchar
000cfb   9f0c     MOV	R7, #0xc             	TRAPPC1	$+2
000cfc   5f73     MOV	0x73, R7             	TRAPPC2	$+1
000cfd   e00c     MOVP	#0x0C               	PAGESEL	$
000cfe   e100     MOVB	#0x00               	BANKSEL	r0x1026
000cff   51be     MOV	0xbe, R0             	MOV	r0x1026, R0
                                           	BANKSEL	r0x1026
000d00   05be     CPL	0xbe                 	CPL	r0x1026
                                           	BANKSEL	r0x1026
000d01   0ebe     MOVZ	R0, 0xbe            	MOVZ	R0, r0x1026
                                           	BANKSEL	STK01
000d02   51ef     MOV	0xef, R0             	MOV	STK01, R0
000d03   981f     MOV	R0, #0x1f            	MOV	R0,# 0x1f
                                           	BANKSEL	STK00
000d04   51f0     MOV	0xf0, R0             	MOV	STK00, R0
000d05   9801     MOV	R0, #0x1             	MOV	R0,# 0x01
000d06   9f0e     MOV	R7, #0xe             	TRAPPC1	_SPI_Write_2Byte
000d07   5f73     MOV	0x73, R7             	TRAPPC2	_SPI_Write_2Byte
000d08   e00e     MOVP	#0x0E               	PAGESEL	_SPI_Write_2Byte
000d09   de03     CALL	#0xe03              	CALL	_SPI_Write_2Byte
000d0a   9f0d     MOV	R7, #0xd             	TRAPPC1	$+2
000d0b   5f73     MOV	0x73, R7             	TRAPPC2	$+1
000d0c   e00d     MOVP	#0x0D               	PAGESEL	$
000d0d   9800     MOV	R0, #0               	MOV	R0,# 0x00
000d0e   e100     MOVB	#0x00               	BANKSEL	STK01
000d0f   51ef     MOV	0xef, R0             	MOV	STK01, R0
000d10   9837     MOV	R0, #0x37            	MOV	R0,# 0x37
                                           	BANKSEL	STK00
000d11   51f0     MOV	0xf0, R0             	MOV	STK00, R0
000d12   9801     MOV	R0, #0x1             	MOV	R0,# 0x01
000d13   9f0e     MOV	R7, #0xe             	TRAPPC1	_SPI_Write_2Byte
000d14   5f73     MOV	0x73, R7             	TRAPPC2	_SPI_Write_2Byte
000d15   e00e     MOVP	#0x0E               	PAGESEL	_SPI_Write_2Byte
000d16   de03     CALL	#0xe03              	CALL	_SPI_Write_2Byte
000d17   9f0d     MOV	R7, #0xd             	TRAPPC1	$+2
000d18   5f73     MOV	0x73, R7             	TRAPPC2	$+1
000d19   e00d     MOVP	#0x0D               	PAGESEL	$
000d1a   9814     MOV	R0, #0x14            	MOV	R0,# 0x14
000d1b   e100     MOVB	#0x00               	BANKSEL	STK00
000d1c   51f0     MOV	0xf0, R0             	MOV	STK00, R0
000d1d   9800     MOV	R0, #0               	MOV	R0,# 0x00
000d1e   9f0f     MOV	R7, #0xf             	TRAPPC1	_delay_ms
000d1f   5f73     MOV	0x73, R7             	TRAPPC2	_delay_ms
000d20   e00f     MOVP	#0x0F               	PAGESEL	_delay_ms
000d21   df0e     CALL	#0xf0e              	CALL	_delay_ms
000d22   9f0d     MOV	R7, #0xd             	TRAPPC1	$+2
000d23   5f73     MOV	0x73, R7             	TRAPPC2	$+1
000d24   e00d     MOVP	#0x0D               	PAGESEL	$
000d25   e100     MOVB	#0x00               	BANKSEL	r0x1025
000d26   0bbf     INC	0xbf                 	INC	r0x1025
000d27   ccf0     JMP	#0xcf0               	JMP	_00123_DS_
                                           _00127_DS_
000d28   0008     CRET                     	CRET	
                                           func._Tail12_Breath_Open	.code
                                           _Tail12_Breath_Open	;Function start
000d29   e100     MOVB	#0x00               	BANKSEL	r0x1027
000d2a   03c1     CLR	0xc1                 	CLR	r0x1027
                                           _00113_DS_
000d2b   9834     MOV	R0, #0x34            	MOV	R0,# 0x34
                                           	BANKSEL	r0x1027
000d2c   38c1     SUB	R0, 0xc1             	SUB	R0, r0x1027
000d2d   7003     JNB	0x3, 0               	JNB	PSW, 0
000d2e   cd62     JMP	#0xd62               	JMP	_00117_DS_
000d2f   9805     MOV	R0, #0x5             	MOV	R0,# 0x05
                                           	BANKSEL	STK00
000d30   51f0     MOV	0xf0, R0             	MOV	STK00, R0
                                           	BANKSEL	r0x1027
000d31   0ec1     MOVZ	R0, 0xc1            	MOVZ	R0, r0x1027
000d32   9f0f     MOV	R7, #0xf             	TRAPPC1	__hmulchar
000d33   5f73     MOV	0x73, R7             	TRAPPC2	__hmulchar
000d34   e00f     MOVP	#0x0F               	PAGESEL	__hmulchar
000d35   df99     CALL	#0xf99              	CALL	__hmulchar
000d36   9f0d     MOV	R7, #0xd             	TRAPPC1	$+2
000d37   5f73     MOV	0x73, R7             	TRAPPC2	$+1
000d38   e00d     MOVP	#0x0D               	PAGESEL	$
000d39   e100     MOVB	#0x00               	BANKSEL	r0x1028
000d3a   51c0     MOV	0xc0, R0             	MOV	r0x1028, R0
                                           	BANKSEL	r0x1028
000d3b   0ec0     MOVZ	R0, 0xc0            	MOVZ	R0, r0x1028
                                           	BANKSEL	STK01
000d3c   51ef     MOV	0xef, R0             	MOV	STK01, R0
000d3d   981f     MOV	R0, #0x1f            	MOV	R0,# 0x1f
                                           	BANKSEL	STK00
000d3e   51f0     MOV	0xf0, R0             	MOV	STK00, R0
000d3f   9801     MOV	R0, #0x1             	MOV	R0,# 0x01
000d40   9f0e     MOV	R7, #0xe             	TRAPPC1	_SPI_Write_2Byte
000d41   5f73     MOV	0x73, R7             	TRAPPC2	_SPI_Write_2Byte
000d42   e00e     MOVP	#0x0E               	PAGESEL	_SPI_Write_2Byte
000d43   de03     CALL	#0xe03              	CALL	_SPI_Write_2Byte
000d44   9f0d     MOV	R7, #0xd             	TRAPPC1	$+2
000d45   5f73     MOV	0x73, R7             	TRAPPC2	$+1
000d46   e00d     MOVP	#0x0D               	PAGESEL	$
000d47   9800     MOV	R0, #0               	MOV	R0,# 0x00
000d48   e100     MOVB	#0x00               	BANKSEL	STK01
000d49   51ef     MOV	0xef, R0             	MOV	STK01, R0
000d4a   9837     MOV	R0, #0x37            	MOV	R0,# 0x37
                                           	BANKSEL	STK00
000d4b   51f0     MOV	0xf0, R0             	MOV	STK00, R0
000d4c   9801     MOV	R0, #0x1             	MOV	R0,# 0x01
000d4d   9f0e     MOV	R7, #0xe             	TRAPPC1	_SPI_Write_2Byte
000d4e   5f73     MOV	0x73, R7             	TRAPPC2	_SPI_Write_2Byte
000d4f   e00e     MOVP	#0x0E               	PAGESEL	_SPI_Write_2Byte
000d50   de03     CALL	#0xe03              	CALL	_SPI_Write_2Byte
000d51   9f0d     MOV	R7, #0xd             	TRAPPC1	$+2
000d52   5f73     MOV	0x73, R7             	TRAPPC2	$+1
000d53   e00d     MOVP	#0x0D               	PAGESEL	$
000d54   9814     MOV	R0, #0x14            	MOV	R0,# 0x14
000d55   e100     MOVB	#0x00               	BANKSEL	STK00
000d56   51f0     MOV	0xf0, R0             	MOV	STK00, R0
000d57   9800     MOV	R0, #0               	MOV	R0,# 0x00
000d58   9f0f     MOV	R7, #0xf             	TRAPPC1	_delay_ms
000d59   5f73     MOV	0x73, R7             	TRAPPC2	_delay_ms
000d5a   e00f     MOVP	#0x0F               	PAGESEL	_delay_ms
000d5b   df0e     CALL	#0xf0e              	CALL	_delay_ms
000d5c   9f0d     MOV	R7, #0xd             	TRAPPC1	$+2
000d5d   5f73     MOV	0x73, R7             	TRAPPC2	$+1
000d5e   e00d     MOVP	#0x0D               	PAGESEL	$
000d5f   e100     MOVB	#0x00               	BANKSEL	r0x1027
000d60   0bc1     INC	0xc1                 	INC	r0x1027
000d61   cd2b     JMP	#0xd2b               	JMP	_00113_DS_
                                           _00117_DS_
000d62   0008     CRET                     	CRET	
                                           func._Led_Tail_AllClose	.code
                                           _Led_Tail_AllClose	;Function start
000b57   9830     MOV	R0, #0x30            	MOV	R0,# 0x30
000b58   e100     MOVB	#0x00               	BANKSEL	r0x1029
000b59   51c2     MOV	0xc2, R0             	MOV	r0x1029, R0
                                           _00095_DS_
000b5a   981f     MOV	R0, #0x1f            	MOV	R0,# 0x1f
                                           	BANKSEL	r0x1029
000b5b   38c2     SUB	R0, 0xc2             	SUB	R0, r0x1029
000b5c   7803     JB	0x3, 0                	JB	PSW, 0
000b5d   cb7a     JMP	#0xb7a               	JMP	_00098_DS_
000b5e   9800     MOV	R0, #0               	MOV	R0,# 0x00
                                           	BANKSEL	STK01
000b5f   51ef     MOV	0xef, R0             	MOV	STK01, R0
                                           	BANKSEL	r0x1029
000b60   0ec2     MOVZ	R0, 0xc2            	MOVZ	R0, r0x1029
                                           	BANKSEL	STK00
000b61   51f0     MOV	0xf0, R0             	MOV	STK00, R0
000b62   9801     MOV	R0, #0x1             	MOV	R0,# 0x01
000b63   9f0e     MOV	R7, #0xe             	TRAPPC1	_SPI_Write_2Byte
000b64   5f73     MOV	0x73, R7             	TRAPPC2	_SPI_Write_2Byte
000b65   e00e     MOVP	#0x0E               	PAGESEL	_SPI_Write_2Byte
000b66   de03     CALL	#0xe03              	CALL	_SPI_Write_2Byte
000b67   9f0b     MOV	R7, #0xb             	TRAPPC1	$+2
000b68   5f73     MOV	0x73, R7             	TRAPPC2	$+1
000b69   e00b     MOVP	#0x0B               	PAGESEL	$
000b6a   9800     MOV	R0, #0               	MOV	R0,# 0x00
000b6b   e100     MOVB	#0x00               	BANKSEL	STK01
000b6c   51ef     MOV	0xef, R0             	MOV	STK01, R0
000b6d   9837     MOV	R0, #0x37            	MOV	R0,# 0x37
                                           	BANKSEL	STK00
000b6e   51f0     MOV	0xf0, R0             	MOV	STK00, R0
000b6f   9801     MOV	R0, #0x1             	MOV	R0,# 0x01
000b70   9f0e     MOV	R7, #0xe             	TRAPPC1	_SPI_Write_2Byte
000b71   5f73     MOV	0x73, R7             	TRAPPC2	_SPI_Write_2Byte
000b72   e00e     MOVP	#0x0E               	PAGESEL	_SPI_Write_2Byte
000b73   de03     CALL	#0xe03              	CALL	_SPI_Write_2Byte
000b74   9f0b     MOV	R7, #0xb             	TRAPPC1	$+2
000b75   5f73     MOV	0x73, R7             	TRAPPC2	$+1
000b76   e00b     MOVP	#0x0B               	PAGESEL	$
000b77   e100     MOVB	#0x00               	BANKSEL	r0x1029
000b78   07c2     DEC	0xc2                 	DEC	r0x1029
000b79   cb5a     JMP	#0xb5a               	JMP	_00095_DS_
                                           _00098_DS_
000b7a   9830     MOV	R0, #0x30            	MOV	R0,# 0x30
                                           	BANKSEL	r0x1029
000b7b   51c2     MOV	0xc2, R0             	MOV	r0x1029, R0
                                           _00099_DS_
000b7c   981f     MOV	R0, #0x1f            	MOV	R0,# 0x1f
                                           	BANKSEL	r0x1029
000b7d   38c2     SUB	R0, 0xc2             	SUB	R0, r0x1029
000b7e   7803     JB	0x3, 0                	JB	PSW, 0
000b7f   cb9c     JMP	#0xb9c               	JMP	_00103_DS_
000b80   9800     MOV	R0, #0               	MOV	R0,# 0x00
                                           	BANKSEL	STK01
000b81   51ef     MOV	0xef, R0             	MOV	STK01, R0
                                           	BANKSEL	r0x1029
000b82   0ec2     MOVZ	R0, 0xc2            	MOVZ	R0, r0x1029
                                           	BANKSEL	STK00
000b83   51f0     MOV	0xf0, R0             	MOV	STK00, R0
000b84   9802     MOV	R0, #0x2             	MOV	R0,# 0x02
000b85   9f0e     MOV	R7, #0xe             	TRAPPC1	_SPI_Write_2Byte
000b86   5f73     MOV	0x73, R7             	TRAPPC2	_SPI_Write_2Byte
000b87   e00e     MOVP	#0x0E               	PAGESEL	_SPI_Write_2Byte
000b88   de03     CALL	#0xe03              	CALL	_SPI_Write_2Byte
000b89   9f0b     MOV	R7, #0xb             	TRAPPC1	$+2
000b8a   5f73     MOV	0x73, R7             	TRAPPC2	$+1
000b8b   e00b     MOVP	#0x0B               	PAGESEL	$
000b8c   9800     MOV	R0, #0               	MOV	R0,# 0x00
000b8d   e100     MOVB	#0x00               	BANKSEL	STK01
000b8e   51ef     MOV	0xef, R0             	MOV	STK01, R0
000b8f   9837     MOV	R0, #0x37            	MOV	R0,# 0x37
                                           	BANKSEL	STK00
000b90   51f0     MOV	0xf0, R0             	MOV	STK00, R0
000b91   9802     MOV	R0, #0x2             	MOV	R0,# 0x02
000b92   9f0e     MOV	R7, #0xe             	TRAPPC1	_SPI_Write_2Byte
000b93   5f73     MOV	0x73, R7             	TRAPPC2	_SPI_Write_2Byte
000b94   e00e     MOVP	#0x0E               	PAGESEL	_SPI_Write_2Byte
000b95   de03     CALL	#0xe03              	CALL	_SPI_Write_2Byte
000b96   9f0b     MOV	R7, #0xb             	TRAPPC1	$+2
000b97   5f73     MOV	0x73, R7             	TRAPPC2	$+1
000b98   e00b     MOVP	#0x0B               	PAGESEL	$
000b99   e100     MOVB	#0x00               	BANKSEL	r0x1029
000b9a   07c2     DEC	0xc2                 	DEC	r0x1029
000b9b   cb7c     JMP	#0xb7c               	JMP	_00099_DS_
                                           _00103_DS_
000b9c   0008     CRET                     	CRET	
                                           func._Led_Tail_AllOpen	.code
                                           _Led_Tail_AllOpen	;Function start
000b9d   9830     MOV	R0, #0x30            	MOV	R0,# 0x30
000b9e   e100     MOVB	#0x00               	BANKSEL	r0x102A
000b9f   51c3     MOV	0xc3, R0             	MOV	r0x102A, R0
                                           _00077_DS_
000ba0   981f     MOV	R0, #0x1f            	MOV	R0,# 0x1f
                                           	BANKSEL	r0x102A
000ba1   38c3     SUB	R0, 0xc3             	SUB	R0, r0x102A
000ba2   7803     JB	0x3, 0                	JB	PSW, 0
000ba3   cbc0     JMP	#0xbc0               	JMP	_00080_DS_
000ba4   98ff     MOV	R0, #0xff            	MOV	R0,# 0xff
                                           	BANKSEL	STK01
000ba5   51ef     MOV	0xef, R0             	MOV	STK01, R0
                                           	BANKSEL	r0x102A
000ba6   0ec3     MOVZ	R0, 0xc3            	MOVZ	R0, r0x102A
                                           	BANKSEL	STK00
000ba7   51f0     MOV	0xf0, R0             	MOV	STK00, R0
000ba8   9801     MOV	R0, #0x1             	MOV	R0,# 0x01
000ba9   9f0e     MOV	R7, #0xe             	TRAPPC1	_SPI_Write_2Byte
000baa   5f73     MOV	0x73, R7             	TRAPPC2	_SPI_Write_2Byte
000bab   e00e     MOVP	#0x0E               	PAGESEL	_SPI_Write_2Byte
000bac   de03     CALL	#0xe03              	CALL	_SPI_Write_2Byte
000bad   9f0b     MOV	R7, #0xb             	TRAPPC1	$+2
000bae   5f73     MOV	0x73, R7             	TRAPPC2	$+1
000baf   e00b     MOVP	#0x0B               	PAGESEL	$
000bb0   9800     MOV	R0, #0               	MOV	R0,# 0x00
000bb1   e100     MOVB	#0x00               	BANKSEL	STK01
000bb2   51ef     MOV	0xef, R0             	MOV	STK01, R0
000bb3   9837     MOV	R0, #0x37            	MOV	R0,# 0x37
                                           	BANKSEL	STK00
000bb4   51f0     MOV	0xf0, R0             	MOV	STK00, R0
000bb5   9801     MOV	R0, #0x1             	MOV	R0,# 0x01
000bb6   9f0e     MOV	R7, #0xe             	TRAPPC1	_SPI_Write_2Byte
000bb7   5f73     MOV	0x73, R7             	TRAPPC2	_SPI_Write_2Byte
000bb8   e00e     MOVP	#0x0E               	PAGESEL	_SPI_Write_2Byte
000bb9   de03     CALL	#0xe03              	CALL	_SPI_Write_2Byte
000bba   9f0b     MOV	R7, #0xb             	TRAPPC1	$+2
000bbb   5f73     MOV	0x73, R7             	TRAPPC2	$+1
000bbc   e00b     MOVP	#0x0B               	PAGESEL	$
000bbd   e100     MOVB	#0x00               	BANKSEL	r0x102A
000bbe   07c3     DEC	0xc3                 	DEC	r0x102A
000bbf   cba0     JMP	#0xba0               	JMP	_00077_DS_
                                           _00080_DS_
000bc0   9830     MOV	R0, #0x30            	MOV	R0,# 0x30
                                           	BANKSEL	r0x102A
000bc1   51c3     MOV	0xc3, R0             	MOV	r0x102A, R0
                                           _00081_DS_
000bc2   981f     MOV	R0, #0x1f            	MOV	R0,# 0x1f
                                           	BANKSEL	r0x102A
000bc3   38c3     SUB	R0, 0xc3             	SUB	R0, r0x102A
000bc4   7803     JB	0x3, 0                	JB	PSW, 0
000bc5   cbe2     JMP	#0xbe2               	JMP	_00085_DS_
000bc6   98ff     MOV	R0, #0xff            	MOV	R0,# 0xff
                                           	BANKSEL	STK01
000bc7   51ef     MOV	0xef, R0             	MOV	STK01, R0
                                           	BANKSEL	r0x102A
000bc8   0ec3     MOVZ	R0, 0xc3            	MOVZ	R0, r0x102A
                                           	BANKSEL	STK00
000bc9   51f0     MOV	0xf0, R0             	MOV	STK00, R0
000bca   9802     MOV	R0, #0x2             	MOV	R0,# 0x02
000bcb   9f0e     MOV	R7, #0xe             	TRAPPC1	_SPI_Write_2Byte
000bcc   5f73     MOV	0x73, R7             	TRAPPC2	_SPI_Write_2Byte
000bcd   e00e     MOVP	#0x0E               	PAGESEL	_SPI_Write_2Byte
000bce   de03     CALL	#0xe03              	CALL	_SPI_Write_2Byte
000bcf   9f0b     MOV	R7, #0xb             	TRAPPC1	$+2
000bd0   5f73     MOV	0x73, R7             	TRAPPC2	$+1
000bd1   e00b     MOVP	#0x0B               	PAGESEL	$
000bd2   9800     MOV	R0, #0               	MOV	R0,# 0x00
000bd3   e100     MOVB	#0x00               	BANKSEL	STK01
000bd4   51ef     MOV	0xef, R0             	MOV	STK01, R0
000bd5   9837     MOV	R0, #0x37            	MOV	R0,# 0x37
                                           	BANKSEL	STK00
000bd6   51f0     MOV	0xf0, R0             	MOV	STK00, R0
000bd7   9802     MOV	R0, #0x2             	MOV	R0,# 0x02
000bd8   9f0e     MOV	R7, #0xe             	TRAPPC1	_SPI_Write_2Byte
000bd9   5f73     MOV	0x73, R7             	TRAPPC2	_SPI_Write_2Byte
000bda   e00e     MOVP	#0x0E               	PAGESEL	_SPI_Write_2Byte
000bdb   de03     CALL	#0xe03              	CALL	_SPI_Write_2Byte
000bdc   9f0b     MOV	R7, #0xb             	TRAPPC1	$+2
000bdd   5f73     MOV	0x73, R7             	TRAPPC2	$+1
000bde   e00b     MOVP	#0x0B               	PAGESEL	$
000bdf   e100     MOVB	#0x00               	BANKSEL	r0x102A
000be0   07c3     DEC	0xc3                 	DEC	r0x102A
000be1   cbc2     JMP	#0xbc2               	JMP	_00081_DS_
                                           _00085_DS_
000be2   0008     CRET                     	CRET	
                                           func._Led_RT_AllClose	.code
                                           _Led_RT_AllClose	;Function start
000be3   9830     MOV	R0, #0x30            	MOV	R0,# 0x30
000be4   e100     MOVB	#0x00               	BANKSEL	r0x102B
000be5   51c4     MOV	0xc4, R0             	MOV	r0x102B, R0
                                           _00059_DS_
000be6   981f     MOV	R0, #0x1f            	MOV	R0,# 0x1f
                                           	BANKSEL	r0x102B
000be7   38c4     SUB	R0, 0xc4             	SUB	R0, r0x102B
000be8   7803     JB	0x3, 0                	JB	PSW, 0
000be9   cc06     JMP	#0xc06               	JMP	_00062_DS_
000bea   9800     MOV	R0, #0               	MOV	R0,# 0x00
                                           	BANKSEL	STK01
000beb   51ef     MOV	0xef, R0             	MOV	STK01, R0
                                           	BANKSEL	r0x102B
000bec   0ec4     MOVZ	R0, 0xc4            	MOVZ	R0, r0x102B
                                           	BANKSEL	STK00
000bed   51f0     MOV	0xf0, R0             	MOV	STK00, R0
000bee   9803     MOV	R0, #0x3             	MOV	R0,# 0x03
000bef   9f0e     MOV	R7, #0xe             	TRAPPC1	_SPI_Write_2Byte
000bf0   5f73     MOV	0x73, R7             	TRAPPC2	_SPI_Write_2Byte
000bf1   e00e     MOVP	#0x0E               	PAGESEL	_SPI_Write_2Byte
000bf2   de03     CALL	#0xe03              	CALL	_SPI_Write_2Byte
000bf3   9f0b     MOV	R7, #0xb             	TRAPPC1	$+2
000bf4   5f73     MOV	0x73, R7             	TRAPPC2	$+1
000bf5   e00b     MOVP	#0x0B               	PAGESEL	$
000bf6   9800     MOV	R0, #0               	MOV	R0,# 0x00
000bf7   e100     MOVB	#0x00               	BANKSEL	STK01
000bf8   51ef     MOV	0xef, R0             	MOV	STK01, R0
000bf9   9837     MOV	R0, #0x37            	MOV	R0,# 0x37
                                           	BANKSEL	STK00
000bfa   51f0     MOV	0xf0, R0             	MOV	STK00, R0
000bfb   9803     MOV	R0, #0x3             	MOV	R0,# 0x03
000bfc   9f0e     MOV	R7, #0xe             	TRAPPC1	_SPI_Write_2Byte
000bfd   5f73     MOV	0x73, R7             	TRAPPC2	_SPI_Write_2Byte
000bfe   e00e     MOVP	#0x0E               	PAGESEL	_SPI_Write_2Byte
000bff   de03     CALL	#0xe03              	CALL	_SPI_Write_2Byte
000c00   9f0c     MOV	R7, #0xc             	TRAPPC1	$+2
000c01   5f73     MOV	0x73, R7             	TRAPPC2	$+1
000c02   e00c     MOVP	#0x0C               	PAGESEL	$
000c03   e100     MOVB	#0x00               	BANKSEL	r0x102B
000c04   07c4     DEC	0xc4                 	DEC	r0x102B
000c05   cbe6     JMP	#0xbe6               	JMP	_00059_DS_
                                           _00062_DS_
000c06   9830     MOV	R0, #0x30            	MOV	R0,# 0x30
                                           	BANKSEL	r0x102B
000c07   51c4     MOV	0xc4, R0             	MOV	r0x102B, R0
                                           _00063_DS_
000c08   981f     MOV	R0, #0x1f            	MOV	R0,# 0x1f
                                           	BANKSEL	r0x102B
000c09   38c4     SUB	R0, 0xc4             	SUB	R0, r0x102B
000c0a   7803     JB	0x3, 0                	JB	PSW, 0
000c0b   cc28     JMP	#0xc28               	JMP	_00067_DS_
000c0c   9800     MOV	R0, #0               	MOV	R0,# 0x00
                                           	BANKSEL	STK01
000c0d   51ef     MOV	0xef, R0             	MOV	STK01, R0
                                           	BANKSEL	r0x102B
000c0e   0ec4     MOVZ	R0, 0xc4            	MOVZ	R0, r0x102B
                                           	BANKSEL	STK00
000c0f   51f0     MOV	0xf0, R0             	MOV	STK00, R0
000c10   9804     MOV	R0, #0x4             	MOV	R0,# 0x04
000c11   9f0e     MOV	R7, #0xe             	TRAPPC1	_SPI_Write_2Byte
000c12   5f73     MOV	0x73, R7             	TRAPPC2	_SPI_Write_2Byte
000c13   e00e     MOVP	#0x0E               	PAGESEL	_SPI_Write_2Byte
000c14   de03     CALL	#0xe03              	CALL	_SPI_Write_2Byte
000c15   9f0c     MOV	R7, #0xc             	TRAPPC1	$+2
000c16   5f73     MOV	0x73, R7             	TRAPPC2	$+1
000c17   e00c     MOVP	#0x0C               	PAGESEL	$
000c18   9800     MOV	R0, #0               	MOV	R0,# 0x00
000c19   e100     MOVB	#0x00               	BANKSEL	STK01
000c1a   51ef     MOV	0xef, R0             	MOV	STK01, R0
000c1b   9837     MOV	R0, #0x37            	MOV	R0,# 0x37
                                           	BANKSEL	STK00
000c1c   51f0     MOV	0xf0, R0             	MOV	STK00, R0
000c1d   9804     MOV	R0, #0x4             	MOV	R0,# 0x04
000c1e   9f0e     MOV	R7, #0xe             	TRAPPC1	_SPI_Write_2Byte
000c1f   5f73     MOV	0x73, R7             	TRAPPC2	_SPI_Write_2Byte
000c20   e00e     MOVP	#0x0E               	PAGESEL	_SPI_Write_2Byte
000c21   de03     CALL	#0xe03              	CALL	_SPI_Write_2Byte
000c22   9f0c     MOV	R7, #0xc             	TRAPPC1	$+2
000c23   5f73     MOV	0x73, R7             	TRAPPC2	$+1
000c24   e00c     MOVP	#0x0C               	PAGESEL	$
000c25   e100     MOVB	#0x00               	BANKSEL	r0x102B
000c26   07c4     DEC	0xc4                 	DEC	r0x102B
000c27   cc08     JMP	#0xc08               	JMP	_00063_DS_
                                           _00067_DS_
000c28   0008     CRET                     	CRET	
                                           func._Led_RT_WaterOpen	.code
                                           _Led_RT_WaterOpen	;Function start
0002ec   981f     MOV	R0, #0x1f            	MOV	R0,# 0x1f
0002ed   e100     MOVB	#0x00               	BANKSEL	r0x102C
0002ee   51c5     MOV	0xc5, R0             	MOV	r0x102C, R0
                                           _00025_DS_
0002ef   9831     MOV	R0, #0x31            	MOV	R0,# 0x31
                                           	BANKSEL	r0x102C
0002f0   38c5     SUB	R0, 0xc5             	SUB	R0, r0x102C
0002f1   7003     JNB	0x3, 0               	JNB	PSW, 0
0002f2   c30f     JMP	#0x30f               	JMP	_00028_DS_
0002f3   9800     MOV	R0, #0               	MOV	R0,# 0x00
                                           	BANKSEL	STK01
0002f4   51ef     MOV	0xef, R0             	MOV	STK01, R0
                                           	BANKSEL	r0x102C
0002f5   0ec5     MOVZ	R0, 0xc5            	MOVZ	R0, r0x102C
                                           	BANKSEL	STK00
0002f6   51f0     MOV	0xf0, R0             	MOV	STK00, R0
0002f7   9803     MOV	R0, #0x3             	MOV	R0,# 0x03
0002f8   9f0e     MOV	R7, #0xe             	TRAPPC1	_SPI_Write_2Byte
0002f9   5f73     MOV	0x73, R7             	TRAPPC2	_SPI_Write_2Byte
0002fa   e00e     MOVP	#0x0E               	PAGESEL	_SPI_Write_2Byte
0002fb   de03     CALL	#0xe03              	CALL	_SPI_Write_2Byte
0002fc   9f02     MOV	R7, #0x2             	TRAPPC1	$+2
0002fd   5f73     MOV	0x73, R7             	TRAPPC2	$+1
0002fe   e002     MOVP	#0x02               	PAGESEL	$
0002ff   9800     MOV	R0, #0               	MOV	R0,# 0x00
000300   e100     MOVB	#0x00               	BANKSEL	STK01
000301   51ef     MOV	0xef, R0             	MOV	STK01, R0
000302   9837     MOV	R0, #0x37            	MOV	R0,# 0x37
                                           	BANKSEL	STK00
000303   51f0     MOV	0xf0, R0             	MOV	STK00, R0
000304   9803     MOV	R0, #0x3             	MOV	R0,# 0x03
000305   9f0e     MOV	R7, #0xe             	TRAPPC1	_SPI_Write_2Byte
000306   5f73     MOV	0x73, R7             	TRAPPC2	_SPI_Write_2Byte
000307   e00e     MOVP	#0x0E               	PAGESEL	_SPI_Write_2Byte
000308   de03     CALL	#0xe03              	CALL	_SPI_Write_2Byte
000309   9f03     MOV	R7, #0x3             	TRAPPC1	$+2
00030a   5f73     MOV	0x73, R7             	TRAPPC2	$+1
00030b   e003     MOVP	#0x03               	PAGESEL	$
00030c   e100     MOVB	#0x00               	BANKSEL	r0x102C
00030d   0bc5     INC	0xc5                 	INC	r0x102C
00030e   c2ef     JMP	#0x2ef               	JMP	_00025_DS_
                                           _00028_DS_
00030f   981f     MOV	R0, #0x1f            	MOV	R0,# 0x1f
                                           	BANKSEL	r0x102C
000310   51c5     MOV	0xc5, R0             	MOV	r0x102C, R0
                                           _00029_DS_
000311   9831     MOV	R0, #0x31            	MOV	R0,# 0x31
                                           	BANKSEL	r0x102C
000312   38c5     SUB	R0, 0xc5             	SUB	R0, r0x102C
000313   7003     JNB	0x3, 0               	JNB	PSW, 0
000314   c331     JMP	#0x331               	JMP	_00032_DS_
000315   9800     MOV	R0, #0               	MOV	R0,# 0x00
                                           	BANKSEL	STK01
000316   51ef     MOV	0xef, R0             	MOV	STK01, R0
                                           	BANKSEL	r0x102C
000317   0ec5     MOVZ	R0, 0xc5            	MOVZ	R0, r0x102C
                                           	BANKSEL	STK00
000318   51f0     MOV	0xf0, R0             	MOV	STK00, R0
000319   9804     MOV	R0, #0x4             	MOV	R0,# 0x04
00031a   9f0e     MOV	R7, #0xe             	TRAPPC1	_SPI_Write_2Byte
00031b   5f73     MOV	0x73, R7             	TRAPPC2	_SPI_Write_2Byte
00031c   e00e     MOVP	#0x0E               	PAGESEL	_SPI_Write_2Byte
00031d   de03     CALL	#0xe03              	CALL	_SPI_Write_2Byte
00031e   9f03     MOV	R7, #0x3             	TRAPPC1	$+2
00031f   5f73     MOV	0x73, R7             	TRAPPC2	$+1
000320   e003     MOVP	#0x03               	PAGESEL	$
000321   9800     MOV	R0, #0               	MOV	R0,# 0x00
000322   e100     MOVB	#0x00               	BANKSEL	STK01
000323   51ef     MOV	0xef, R0             	MOV	STK01, R0
000324   9837     MOV	R0, #0x37            	MOV	R0,# 0x37
                                           	BANKSEL	STK00
000325   51f0     MOV	0xf0, R0             	MOV	STK00, R0
000326   9804     MOV	R0, #0x4             	MOV	R0,# 0x04
000327   9f0e     MOV	R7, #0xe             	TRAPPC1	_SPI_Write_2Byte
000328   5f73     MOV	0x73, R7             	TRAPPC2	_SPI_Write_2Byte
000329   e00e     MOVP	#0x0E               	PAGESEL	_SPI_Write_2Byte
00032a   de03     CALL	#0xe03              	CALL	_SPI_Write_2Byte
00032b   9f03     MOV	R7, #0x3             	TRAPPC1	$+2
00032c   5f73     MOV	0x73, R7             	TRAPPC2	$+1
00032d   e003     MOVP	#0x03               	PAGESEL	$
00032e   e100     MOVB	#0x00               	BANKSEL	r0x102C
00032f   0bc5     INC	0xc5                 	INC	r0x102C
000330   c311     JMP	#0x311               	JMP	_00029_DS_
                                           _00032_DS_
000331   9802     MOV	R0, #0x2             	MOV	R0,# 0x02
                                           	BANKSEL	STK00
000332   51f0     MOV	0xf0, R0             	MOV	STK00, R0
000333   9800     MOV	R0, #0               	MOV	R0,# 0x00
000334   9f0f     MOV	R7, #0xf             	TRAPPC1	_delay_ms
000335   5f73     MOV	0x73, R7             	TRAPPC2	_delay_ms
000336   e00f     MOVP	#0x0F               	PAGESEL	_delay_ms
000337   df0e     CALL	#0xf0e              	CALL	_delay_ms
000338   9f03     MOV	R7, #0x3             	TRAPPC1	$+2
000339   5f73     MOV	0x73, R7             	TRAPPC2	$+1
00033a   e003     MOVP	#0x03               	PAGESEL	$
00033b   981f     MOV	R0, #0x1f            	MOV	R0,# 0x1f
00033c   e100     MOVB	#0x00               	BANKSEL	r0x102C
00033d   51c5     MOV	0xc5, R0             	MOV	r0x102C, R0
                                           _00033_DS_
00033e   9831     MOV	R0, #0x31            	MOV	R0,# 0x31
                                           	BANKSEL	r0x102C
00033f   38c5     SUB	R0, 0xc5             	SUB	R0, r0x102C
000340   7003     JNB	0x3, 0               	JNB	PSW, 0
000341   c369     JMP	#0x369               	JMP	_00036_DS_
000342   98ff     MOV	R0, #0xff            	MOV	R0,# 0xff
                                           	BANKSEL	STK01
000343   51ef     MOV	0xef, R0             	MOV	STK01, R0
                                           	BANKSEL	r0x102C
000344   0ec5     MOVZ	R0, 0xc5            	MOVZ	R0, r0x102C
                                           	BANKSEL	STK00
000345   51f0     MOV	0xf0, R0             	MOV	STK00, R0
000346   9803     MOV	R0, #0x3             	MOV	R0,# 0x03
000347   9f0e     MOV	R7, #0xe             	TRAPPC1	_SPI_Write_2Byte
000348   5f73     MOV	0x73, R7             	TRAPPC2	_SPI_Write_2Byte
000349   e00e     MOVP	#0x0E               	PAGESEL	_SPI_Write_2Byte
00034a   de03     CALL	#0xe03              	CALL	_SPI_Write_2Byte
00034b   9f03     MOV	R7, #0x3             	TRAPPC1	$+2
00034c   5f73     MOV	0x73, R7             	TRAPPC2	$+1
00034d   e003     MOVP	#0x03               	PAGESEL	$
00034e   9800     MOV	R0, #0               	MOV	R0,# 0x00
00034f   e100     MOVB	#0x00               	BANKSEL	STK01
000350   51ef     MOV	0xef, R0             	MOV	STK01, R0
000351   9837     MOV	R0, #0x37            	MOV	R0,# 0x37
                                           	BANKSEL	STK00
000352   51f0     MOV	0xf0, R0             	MOV	STK00, R0
000353   9803     MOV	R0, #0x3             	MOV	R0,# 0x03
000354   9f0e     MOV	R7, #0xe             	TRAPPC1	_SPI_Write_2Byte
000355   5f73     MOV	0x73, R7             	TRAPPC2	_SPI_Write_2Byte
000356   e00e     MOVP	#0x0E               	PAGESEL	_SPI_Write_2Byte
000357   de03     CALL	#0xe03              	CALL	_SPI_Write_2Byte
000358   9f03     MOV	R7, #0x3             	TRAPPC1	$+2
000359   5f73     MOV	0x73, R7             	TRAPPC2	$+1
00035a   e003     MOVP	#0x03               	PAGESEL	$
00035b   9805     MOV	R0, #0x5             	MOV	R0,# 0x05
00035c   e100     MOVB	#0x00               	BANKSEL	STK00
00035d   51f0     MOV	0xf0, R0             	MOV	STK00, R0
00035e   9800     MOV	R0, #0               	MOV	R0,# 0x00
00035f   9f0f     MOV	R7, #0xf             	TRAPPC1	_delay_ms
000360   5f73     MOV	0x73, R7             	TRAPPC2	_delay_ms
000361   e00f     MOVP	#0x0F               	PAGESEL	_delay_ms
000362   df0e     CALL	#0xf0e              	CALL	_delay_ms
000363   9f03     MOV	R7, #0x3             	TRAPPC1	$+2
000364   5f73     MOV	0x73, R7             	TRAPPC2	$+1
000365   e003     MOVP	#0x03               	PAGESEL	$
000366   e100     MOVB	#0x00               	BANKSEL	r0x102C
000367   0bc5     INC	0xc5                 	INC	r0x102C
000368   c33e     JMP	#0x33e               	JMP	_00033_DS_
                                           _00036_DS_
000369   981f     MOV	R0, #0x1f            	MOV	R0,# 0x1f
                                           	BANKSEL	r0x102C
00036a   51c5     MOV	0xc5, R0             	MOV	r0x102C, R0
                                           _00037_DS_
00036b   9831     MOV	R0, #0x31            	MOV	R0,# 0x31
                                           	BANKSEL	r0x102C
00036c   38c5     SUB	R0, 0xc5             	SUB	R0, r0x102C
00036d   7003     JNB	0x3, 0               	JNB	PSW, 0
00036e   c396     JMP	#0x396               	JMP	_00041_DS_
00036f   98ff     MOV	R0, #0xff            	MOV	R0,# 0xff
                                           	BANKSEL	STK01
000370   51ef     MOV	0xef, R0             	MOV	STK01, R0
                                           	BANKSEL	r0x102C
000371   0ec5     MOVZ	R0, 0xc5            	MOVZ	R0, r0x102C
                                           	BANKSEL	STK00
000372   51f0     MOV	0xf0, R0             	MOV	STK00, R0
000373   9804     MOV	R0, #0x4             	MOV	R0,# 0x04
000374   9f0e     MOV	R7, #0xe             	TRAPPC1	_SPI_Write_2Byte
000375   5f73     MOV	0x73, R7             	TRAPPC2	_SPI_Write_2Byte
000376   e00e     MOVP	#0x0E               	PAGESEL	_SPI_Write_2Byte
000377   de03     CALL	#0xe03              	CALL	_SPI_Write_2Byte
000378   9f03     MOV	R7, #0x3             	TRAPPC1	$+2
000379   5f73     MOV	0x73, R7             	TRAPPC2	$+1
00037a   e003     MOVP	#0x03               	PAGESEL	$
00037b   9800     MOV	R0, #0               	MOV	R0,# 0x00
00037c   e100     MOVB	#0x00               	BANKSEL	STK01
00037d   51ef     MOV	0xef, R0             	MOV	STK01, R0
00037e   9837     MOV	R0, #0x37            	MOV	R0,# 0x37
                                           	BANKSEL	STK00
00037f   51f0     MOV	0xf0, R0             	MOV	STK00, R0
000380   9804     MOV	R0, #0x4             	MOV	R0,# 0x04
000381   9f0e     MOV	R7, #0xe             	TRAPPC1	_SPI_Write_2Byte
000382   5f73     MOV	0x73, R7             	TRAPPC2	_SPI_Write_2Byte
000383   e00e     MOVP	#0x0E               	PAGESEL	_SPI_Write_2Byte
000384   de03     CALL	#0xe03              	CALL	_SPI_Write_2Byte
000385   9f03     MOV	R7, #0x3             	TRAPPC1	$+2
000386   5f73     MOV	0x73, R7             	TRAPPC2	$+1
000387   e003     MOVP	#0x03               	PAGESEL	$
000388   9805     MOV	R0, #0x5             	MOV	R0,# 0x05
000389   e100     MOVB	#0x00               	BANKSEL	STK00
00038a   51f0     MOV	0xf0, R0             	MOV	STK00, R0
00038b   9800     MOV	R0, #0               	MOV	R0,# 0x00
00038c   9f0f     MOV	R7, #0xf             	TRAPPC1	_delay_ms
00038d   5f73     MOV	0x73, R7             	TRAPPC2	_delay_ms
00038e   e00f     MOVP	#0x0F               	PAGESEL	_delay_ms
00038f   df0e     CALL	#0xf0e              	CALL	_delay_ms
000390   9f03     MOV	R7, #0x3             	TRAPPC1	$+2
000391   5f73     MOV	0x73, R7             	TRAPPC2	$+1
000392   e003     MOVP	#0x03               	PAGESEL	$
000393   e100     MOVB	#0x00               	BANKSEL	r0x102C
000394   0bc5     INC	0xc5                 	INC	r0x102C
000395   c36b     JMP	#0x36b               	JMP	_00037_DS_
                                           _00041_DS_
000396   0008     CRET                     	CRET	
                                           func._Led_RT_AllOpen	.code
                                           _Led_RT_AllOpen	;Function start
000c29   9830     MOV	R0, #0x30            	MOV	R0,# 0x30
000c2a   e100     MOVB	#0x00               	BANKSEL	r0x102D
000c2b   51c6     MOV	0xc6, R0             	MOV	r0x102D, R0
                                           _00007_DS_
000c2c   981f     MOV	R0, #0x1f            	MOV	R0,# 0x1f
                                           	BANKSEL	r0x102D
000c2d   38c6     SUB	R0, 0xc6             	SUB	R0, r0x102D
000c2e   7803     JB	0x3, 0                	JB	PSW, 0
000c2f   cc4c     JMP	#0xc4c               	JMP	_00010_DS_
000c30   98ff     MOV	R0, #0xff            	MOV	R0,# 0xff
                                           	BANKSEL	STK01
000c31   51ef     MOV	0xef, R0             	MOV	STK01, R0
                                           	BANKSEL	r0x102D
000c32   0ec6     MOVZ	R0, 0xc6            	MOVZ	R0, r0x102D
                                           	BANKSEL	STK00
000c33   51f0     MOV	0xf0, R0             	MOV	STK00, R0
000c34   9803     MOV	R0, #0x3             	MOV	R0,# 0x03
000c35   9f0e     MOV	R7, #0xe             	TRAPPC1	_SPI_Write_2Byte
000c36   5f73     MOV	0x73, R7             	TRAPPC2	_SPI_Write_2Byte
000c37   e00e     MOVP	#0x0E               	PAGESEL	_SPI_Write_2Byte
000c38   de03     CALL	#0xe03              	CALL	_SPI_Write_2Byte
000c39   9f0c     MOV	R7, #0xc             	TRAPPC1	$+2
000c3a   5f73     MOV	0x73, R7             	TRAPPC2	$+1
000c3b   e00c     MOVP	#0x0C               	PAGESEL	$
000c3c   9800     MOV	R0, #0               	MOV	R0,# 0x00
000c3d   e100     MOVB	#0x00               	BANKSEL	STK01
000c3e   51ef     MOV	0xef, R0             	MOV	STK01, R0
000c3f   9837     MOV	R0, #0x37            	MOV	R0,# 0x37
                                           	BANKSEL	STK00
000c40   51f0     MOV	0xf0, R0             	MOV	STK00, R0
000c41   9803     MOV	R0, #0x3             	MOV	R0,# 0x03
000c42   9f0e     MOV	R7, #0xe             	TRAPPC1	_SPI_Write_2Byte
000c43   5f73     MOV	0x73, R7             	TRAPPC2	_SPI_Write_2Byte
000c44   e00e     MOVP	#0x0E               	PAGESEL	_SPI_Write_2Byte
000c45   de03     CALL	#0xe03              	CALL	_SPI_Write_2Byte
000c46   9f0c     MOV	R7, #0xc             	TRAPPC1	$+2
000c47   5f73     MOV	0x73, R7             	TRAPPC2	$+1
000c48   e00c     MOVP	#0x0C               	PAGESEL	$
000c49   e100     MOVB	#0x00               	BANKSEL	r0x102D
000c4a   07c6     DEC	0xc6                 	DEC	r0x102D
000c4b   cc2c     JMP	#0xc2c               	JMP	_00007_DS_
                                           _00010_DS_
000c4c   9830     MOV	R0, #0x30            	MOV	R0,# 0x30
                                           	BANKSEL	r0x102D
000c4d   51c6     MOV	0xc6, R0             	MOV	r0x102D, R0
                                           _00011_DS_
000c4e   981f     MOV	R0, #0x1f            	MOV	R0,# 0x1f
                                           	BANKSEL	r0x102D
000c4f   38c6     SUB	R0, 0xc6             	SUB	R0, r0x102D
000c50   7803     JB	0x3, 0                	JB	PSW, 0
000c51   cc6e     JMP	#0xc6e               	JMP	_00015_DS_
000c52   98ff     MOV	R0, #0xff            	MOV	R0,# 0xff
                                           	BANKSEL	STK01
000c53   51ef     MOV	0xef, R0             	MOV	STK01, R0
                                           	BANKSEL	r0x102D
000c54   0ec6     MOVZ	R0, 0xc6            	MOVZ	R0, r0x102D
                                           	BANKSEL	STK00
000c55   51f0     MOV	0xf0, R0             	MOV	STK00, R0
000c56   9804     MOV	R0, #0x4             	MOV	R0,# 0x04
000c57   9f0e     MOV	R7, #0xe             	TRAPPC1	_SPI_Write_2Byte
000c58   5f73     MOV	0x73, R7             	TRAPPC2	_SPI_Write_2Byte
000c59   e00e     MOVP	#0x0E               	PAGESEL	_SPI_Write_2Byte
000c5a   de03     CALL	#0xe03              	CALL	_SPI_Write_2Byte
000c5b   9f0c     MOV	R7, #0xc             	TRAPPC1	$+2
000c5c   5f73     MOV	0x73, R7             	TRAPPC2	$+1
000c5d   e00c     MOVP	#0x0C               	PAGESEL	$
000c5e   9800     MOV	R0, #0               	MOV	R0,# 0x00
000c5f   e100     MOVB	#0x00               	BANKSEL	STK01
000c60   51ef     MOV	0xef, R0             	MOV	STK01, R0
000c61   9837     MOV	R0, #0x37            	MOV	R0,# 0x37
                                           	BANKSEL	STK00
000c62   51f0     MOV	0xf0, R0             	MOV	STK00, R0
000c63   9804     MOV	R0, #0x4             	MOV	R0,# 0x04
000c64   9f0e     MOV	R7, #0xe             	TRAPPC1	_SPI_Write_2Byte
000c65   5f73     MOV	0x73, R7             	TRAPPC2	_SPI_Write_2Byte
000c66   e00e     MOVP	#0x0E               	PAGESEL	_SPI_Write_2Byte
000c67   de03     CALL	#0xe03              	CALL	_SPI_Write_2Byte
000c68   9f0c     MOV	R7, #0xc             	TRAPPC1	$+2
000c69   5f73     MOV	0x73, R7             	TRAPPC2	$+1
000c6a   e00c     MOVP	#0x0C               	PAGESEL	$
000c6b   e100     MOVB	#0x00               	BANKSEL	r0x102D
000c6c   07c6     DEC	0xc6                 	DEC	r0x102D
000c6d   cc4e     JMP	#0xc4e               	JMP	_00011_DS_
                                           _00015_DS_
000c6e   0008     CRET                     	CRET	
                                           func._LED_Stop_AllClose	.code
                                           _LED_Stop_AllClose	;Function start
000fe4   98ff     MOV	R0, #0xff            	MOV	R0,# 0xff
000fe5   e100     MOVB	#0x00               	BANKSEL	_Stop_High_Addr
000fe6   51d9     MOV	0xd9, R0             	MOV	_Stop_High_Addr, R0
                                           	BANKSEL	_Stop_High_Addr
000fe7   51da     MOV	0xda, R0             	MOV	(_Stop_High_Addr + 1), R0
                                           	BANKSEL	_Stop_Low_Addr
000fe8   03c7     CLR	0xc7                 	CLR	_Stop_Low_Addr
                                           	BANKSEL	_Stop_Low_Addr
000fe9   03c8     CLR	0xc8                 	CLR	(_Stop_Low_Addr + 1)
000fea   0008     CRET                     	CRET	
                                           func._LED_Stop_PWMOpen	.code
                                           _LED_Stop_PWMOpen	;Function start
000fcc   98ff     MOV	R0, #0xff            	MOV	R0,# 0xff
000fcd   e100     MOVB	#0x00               	BANKSEL	_Stop_High_Addr
000fce   51d9     MOV	0xd9, R0             	MOV	_Stop_High_Addr, R0
                                           	BANKSEL	_Stop_High_Addr
000fcf   51da     MOV	0xda, R0             	MOV	(_Stop_High_Addr + 1), R0
000fd0   98ff     MOV	R0, #0xff            	MOV	R0,# 0xff
                                           	BANKSEL	_Stop_Low_Addr
000fd1   51c7     MOV	0xc7, R0             	MOV	_Stop_Low_Addr, R0
                                           	BANKSEL	_Stop_Low_Addr
000fd2   51c8     MOV	0xc8, R0             	MOV	(_Stop_Low_Addr + 1), R0
000fd3   0008     CRET                     	CRET	
                                           func._LED_Stop_AllOpen	.code
                                           _LED_Stop_AllOpen	;Function start
000feb   e100     MOVB	#0x00               	BANKSEL	_Stop_High_Addr
000fec   03d9     CLR	0xd9                 	CLR	_Stop_High_Addr
                                           	BANKSEL	_Stop_High_Addr
000fed   03da     CLR	0xda                 	CLR	(_Stop_High_Addr + 1)
000fee   98ff     MOV	R0, #0xff            	MOV	R0,# 0xff
                                           	BANKSEL	_Stop_Low_Addr
000fef   51c7     MOV	0xc7, R0             	MOV	_Stop_Low_Addr, R0
                                           	BANKSEL	_Stop_Low_Addr
000ff0   51c8     MOV	0xc8, R0             	MOV	(_Stop_Low_Addr + 1), R0
000ff1   0008     CRET                     	CRET	
                                           	.end
                                           	.radix dec
                                           	.include "KF8A100GQS.inc"
                                           func._PWM_Init	.code
                                           _PWM_Init	;Function start
                                           	TRAPPC1	_PWM67_Init
                                           	TRAPPC2	_PWM67_Init
                                           	PAGESEL	_PWM67_Init
                                           	CALL	_PWM67_Init
                                           	TRAPPC1	$+2
                                           	TRAPPC2	$+1
                                           	PAGESEL	$
                                           	CRET	
                                           func._PWM67_Init	.code
                                           _PWM67_Init	;Function start
                                           	MOV	R0,# 0x64
                                           	BANKSEL	_APFCTL2
                                           	MOV	_APFCTL2, R0
                                           	BANKSEL	_TR2_bits
                                           	SET	_TR2_bits, 0
                                           	BANKSEL	_TR2_bits
                                           	SET	_TR2_bits, 1
                                           	BANKSEL	_TR2_bits
                                           	SET	_TR2_bits, 3
                                           	BANKSEL	_TR6_bits
                                           	SET	_TR6_bits, 1
                                           	BANKSEL	_TR6_bits
                                           	SET	_TR6_bits, 5
                                           	BANKSEL	_TR9_bits
                                           	SET	_TR9_bits, 4
                                           	MOV	R0,# 0x01
                                           	BANKSEL	_PWM6L0
                                           	MOV	_PWM6L0, R0
                                           	MOV	R0,# 0x0a
                                           	BANKSEL	_PWM6H0
                                           	MOV	_PWM6H0, R0
                                           	MOV	R0,# 0x01
                                           	BANKSEL	_PWM6L1
                                           	MOV	_PWM6L1, R0
                                           	MOV	R0,# 0x0a
                                           	BANKSEL	_PWM6H1
                                           	MOV	_PWM6H1, R0
                                           	MOV	R0,# 0x01
                                           	BANKSEL	_PWM6L0
                                           	MOV	_PWM6L0, R0
                                           	MOV	R0,# 0x0a
                                           	BANKSEL	_PWM6H2
                                           	MOV	_PWM6H2, R0
                                           	MOV	R0,# 0x01
                                           	BANKSEL	_PWM6L3
                                           	MOV	_PWM6L3, R0
                                           	MOV	R0,# 0x0a
                                           	BANKSEL	_PWM6H3
                                           	MOV	_PWM6H3, R0
                                           	MOV	R0,# 0x01
                                           	BANKSEL	_PWM7L0
                                           	MOV	_PWM7L0, R0
                                           	MOV	R0,# 0x0a
                                           	BANKSEL	_PWM7H0
                                           	MOV	_PWM7H0, R0
                                           	MOV	R0,# 0x01
                                           	BANKSEL	_PWM7L1
                                           	MOV	_PWM7L1, R0
                                           	MOV	R0,# 0x0a
                                           	BANKSEL	_PWM7H1
                                           	MOV	_PWM7H1, R0
                                           	MOV	R0,# 0x01
                                           	BANKSEL	_PWM7L2
                                           	MOV	_PWM7L2, R0
                                           	MOV	R0,# 0x0a
                                           	BANKSEL	_PWM7H2
                                           	MOV	_PWM7H2, R0
                                           	MOV	R0,# 0x01
                                           	BANKSEL	_PWM7L3
                                           	MOV	_PWM7L3, R0
                                           	MOV	R0,# 0x0a
                                           	BANKSEL	_PWM7H3
                                           	MOV	_PWM7H3, R0
                                           	MOV	R0,# 0x63
                                           	BANKSEL	_PP60H
                                           	MOV	_PP60H, R0
                                           	MOV	R0,# 0x01
                                           	BANKSEL	_PP60L
                                           	MOV	_PP60L, R0
                                           	MOV	R0,# 0x63
                                           	BANKSEL	_PP70H
                                           	MOV	_PP70H, R0
                                           	MOV	R0,# 0x01
                                           	BANKSEL	_PP70L
                                           	MOV	_PP70L, R0
                                           	MOV	R0,# 0x63
                                           	BANKSEL	_PP61H
                                           	MOV	_PP61H, R0
                                           	MOV	R0,# 0x01
                                           	BANKSEL	_PP61L
                                           	MOV	_PP61L, R0
                                           	MOV	R0,# 0x63
                                           	BANKSEL	_PP71H
                                           	MOV	_PP71H, R0
                                           	MOV	R0,# 0x01
                                           	BANKSEL	_PP71L
                                           	MOV	_PP71L, R0
                                           	MOV	R0,# 0x0c
                                           	BANKSEL	_PWM6CTL0
                                           	MOV	_PWM6CTL0, R0
                                           	MOV	R0,# 0x0c
                                           	BANKSEL	_PWM7CTL0
                                           	MOV	_PWM7CTL0, R0
                                           	BANKSEL	_T2CTL0
                                           	CLR	_T2CTL0
                                           	MOV	R0,# 0x04
                                           	BANKSEL	_T2CTL1
                                           	MOV	_T2CTL1, R0
                                           	BANKSEL	_T4CTL0
                                           	CLR	_T4CTL0
                                           	MOV	R0,# 0x04
                                           	BANKSEL	_T4CTL1
                                           	MOV	_T4CTL1, R0
                                           	BANKSEL	_T5CTL0
                                           	CLR	_T5CTL0
                                           	MOV	R0,# 0x04
                                           	BANKSEL	_T5CTL1
                                           	MOV	_T5CTL1, R0
                                           	BANKSEL	_T6CTL0
                                           	CLR	_T6CTL0
                                           	MOV	R0,# 0x04
                                           	BANKSEL	_T6CTL1
                                           	MOV	_T6CTL1, R0
                                           	BANKSEL	_T2H
                                           	CLR	_T2H
                                           	BANKSEL	_T2L
                                           	CLR	_T2L
                                           	BANKSEL	_T5H
                                           	CLR	_T5H
                                           	BANKSEL	_T5L
                                           	CLR	_T5L
                                           	BANKSEL	_T4H
                                           	CLR	_T4H
                                           	BANKSEL	_T4L
                                           	CLR	_T4L
                                           	BANKSEL	_T6H
                                           	CLR	_T6H
                                           	BANKSEL	_T6L
                                           	CLR	_T6L
                                           	BANKSEL	_T2CTL0_bits
                                           	SET	_T2CTL0_bits, 2
                                           	BANKSEL	_T5CTL0_bits
                                           	SET	_T5CTL0_bits, 2
                                           	BANKSEL	_T4CTL0_bits
                                           	SET	_T4CTL0_bits, 2
                                           	BANKSEL	_T6CTL0_bits
                                           	SET	_T6CTL0_bits, 2
                                           	BANKSEL	_TR2_bits
                                           	CLR	_TR2_bits, 0
                                           	BANKSEL	_TR2_bits
                                           	CLR	_TR2_bits, 1
                                           	BANKSEL	_TR2_bits
                                           	CLR	_TR2_bits, 3
                                           	BANKSEL	_TR6_bits
                                           	CLR	_TR6_bits, 1
                                           	BANKSEL	_TR6_bits
                                           	CLR	_TR6_bits, 5
                                           	BANKSEL	_TR9_bits
                                           	CLR	_TR9_bits, 4
                                           	CRET	
                                           func._PWM5_Init	.code
                                           _PWM5_Init	;Function start
                                           	MOV	R0,# 0xe0
                                           	BANKSEL	_APFCTL5
                                           	MOV	_APFCTL5, R0
                                           	BANKSEL	_TR2_bits
                                           	SET	_TR2_bits, 4
                                           	BANKSEL	_TR6_bits
                                           	SET	_TR6_bits, 6
                                           	BANKSEL	_TR4_bits
                                           	SET	_TR4_bits, 5
                                           	MOV	R0,# 0x01
                                           	BANKSEL	_PWM5L0
                                           	MOV	_PWM5L0, R0
                                           	MOV	R0,# 0x01
                                           	BANKSEL	_PWM5H0
                                           	MOV	_PWM5H0, R0
                                           	MOV	R0,# 0x01
                                           	BANKSEL	_PWM5L1
                                           	MOV	_PWM5L1, R0
                                           	MOV	R0,# 0x01
                                           	BANKSEL	_PWM5H1
                                           	MOV	_PWM5H1, R0
                                           	MOV	R0,# 0x01
                                           	BANKSEL	_PWM5L2
                                           	MOV	_PWM5L2, R0
                                           	MOV	R0,# 0x01
                                           	BANKSEL	_PWM5H2
                                           	MOV	_PWM5H2, R0
                                           	MOV	R0,# 0x63
                                           	BANKSEL	_PP5H
                                           	MOV	_PP5H, R0
                                           	MOV	R0,# 0x01
                                           	BANKSEL	_PP5L
                                           	MOV	_PP5L, R0
                                           	MOV	R0,# 0x0c
                                           	BANKSEL	_PWM5CTL0
                                           	MOV	_PWM5CTL0, R0
                                           	BANKSEL	_PWM5CTL2
                                           	CLR	_PWM5CTL2
                                           	MOV	R0,# 0x1f
                                           	BANKSEL	_P5STRCTL0
                                           	MOV	_P5STRCTL0, R0
                                           	MOV	R0,# 0x0f
                                           	BANKSEL	_P5STRCTL1
                                           	MOV	_P5STRCTL1, R0
                                           	BANKSEL	_T10CTL0
                                           	CLR	_T10CTL0
                                           	MOV	R0,# 0x08
                                           	BANKSEL	_T10CTL1
                                           	MOV	_T10CTL1, R0
                                           	BANKSEL	_T10H
                                           	CLR	_T10H
                                           	BANKSEL	_T10L
                                           	CLR	_T10L
                                           	BANKSEL	_T10CTL1_bits
                                           	SET	_T10CTL1_bits, 2
                                           	BANKSEL	_TR2_bits
                                           	CLR	_TR2_bits, 4
                                           	BANKSEL	_TR6_bits
                                           	CLR	_TR6_bits, 6
                                           	BANKSEL	_TR4_bits
                                           	CLR	_TR4_bits, 5
                                           	CRET	
                                           func._PWM34_Init	.code
                                           _PWM34_Init	;Function start
                                           	MOV	R0,# 0xcd
                                           	BANKSEL	_APFCTL4
                                           	MOV	_APFCTL4, R0
                                           	MOV	R0,# 0x08
                                           	BANKSEL	_APFCTL3
                                           	MOV	_APFCTL3, R0
                                           	BANKSEL	_TR4_bits
                                           	SET	_TR4_bits, 3
                                           	BANKSEL	_TR6_bits
                                           	SET	_TR6_bits, 3
                                           	MOV	R0,# 0x01
                                           	BANKSEL	_PWM3L0
                                           	MOV	_PWM3L0, R0
                                           	MOV	R0,# 0x01
                                           	BANKSEL	_PWM3L1
                                           	MOV	_PWM3L1, R0
                                           	MOV	R0,# 0x63
                                           	BANKSEL	_PP3H
                                           	MOV	_PP3H, R0
                                           	MOV	R0,# 0x01
                                           	BANKSEL	_PP3L
                                           	MOV	_PP3L, R0
                                           	MOV	R0,# 0x01
                                           	BANKSEL	_PWM4L0
                                           	MOV	_PWM4L0, R0
                                           	MOV	R0,# 0x01
                                           	BANKSEL	_PWM4L1
                                           	MOV	_PWM4L1, R0
                                           	MOV	R0,# 0x63
                                           	BANKSEL	_PP4H
                                           	MOV	_PP4H, R0
                                           	MOV	R0,# 0x01
                                           	BANKSEL	_PP4L
                                           	MOV	_PP4L, R0
                                           	MOV	R0,# 0x0c
                                           	BANKSEL	_PWM4CTL0
                                           	MOV	_PWM4CTL0, R0
                                           	MOV	R0,# 0x18
                                           	BANKSEL	_P4ATRCTL
                                           	MOV	_P4ATRCTL, R0
                                           	MOV	R0,# 0x0c
                                           	BANKSEL	_PWM3CTL0
                                           	MOV	_PWM3CTL0, R0
                                           	MOV	R0,# 0x12
                                           	BANKSEL	_P3ATRCTL
                                           	MOV	_P3ATRCTL, R0
                                           	BANKSEL	_T8CTL
                                           	CLR	_T8CTL
                                           	MOV	R0,# 0x02
                                           	BANKSEL	_T8CTL1
                                           	MOV	_T8CTL1, R0
                                           	BANKSEL	_T8H
                                           	CLR	_T8H
                                           	BANKSEL	_T8L
                                           	CLR	_T8L
                                           	BANKSEL	_T8CTL_bits
                                           	SET	_T8CTL_bits, 2
                                           	BANKSEL	_T9CTL
                                           	CLR	_T9CTL
                                           	MOV	R0,# 0x02
                                           	BANKSEL	_T9CTL1
                                           	MOV	_T9CTL1, R0
                                           	BANKSEL	_T9H
                                           	CLR	_T9H
                                           	BANKSEL	_T9L
                                           	CLR	_T9L
                                           	BANKSEL	_T9CTL_bits
                                           	SET	_T9CTL_bits, 2
                                           	BANKSEL	_TR4_bits
                                           	CLR	_TR4_bits, 3
                                           	BANKSEL	_TR6_bits
                                           	CLR	_TR6_bits, 3
                                           	CRET	
                                           	.end
                                           	.radix dec
                                           	.include "KF8A100GQS.inc"
                                           func._Rt_Two_Init	.code
                                           _Rt_Two_Init	;Function start
0007c2   9801     MOV	R0, #0x1             	MOV	R0,# 0x01
0007c3   e100     MOVB	#0x00               	BANKSEL	STK01
0007c4   51ef     MOV	0xef, R0             	MOV	STK01, R0
0007c5   9800     MOV	R0, #0               	MOV	R0,# 0x00
                                           	BANKSEL	STK00
0007c6   51f0     MOV	0xf0, R0             	MOV	STK00, R0
0007c7   9804     MOV	R0, #0x4             	MOV	R0,# 0x04
0007c8   9f0e     MOV	R7, #0xe             	TRAPPC1	_SPI_Write_2Byte
0007c9   5f73     MOV	0x73, R7             	TRAPPC2	_SPI_Write_2Byte
0007ca   e00e     MOVP	#0x0E               	PAGESEL	_SPI_Write_2Byte
0007cb   de03     CALL	#0xe03              	CALL	_SPI_Write_2Byte
0007cc   9f07     MOV	R7, #0x7             	TRAPPC1	$+2
0007cd   5f73     MOV	0x73, R7             	TRAPPC2	$+1
0007ce   e007     MOVP	#0x07               	PAGESEL	$
0007cf   9802     MOV	R0, #0x2             	MOV	R0,# 0x02
0007d0   e100     MOVB	#0x00               	BANKSEL	r0x1007
0007d1   5193     MOV	0x93, R0             	MOV	r0x1007, R0
                                           _00095_DS_
                                           	BANKSEL	r0x1007
0007d2   0e93     MOVZ	R0, 0x93            	MOVZ	R0, r0x1007
0007d3   8080     ADD	R0, #0x80            	ADD	R0,# 0x80
0007d4   806c     ADD	R0, #0x6c            	ADD	R0,# 0x6c
0007d5   7003     JNB	0x3, 0               	JNB	PSW, 0
0007d6   c7e7     JMP	#0x7e7               	JMP	_00098_DS_
0007d7   98ff     MOV	R0, #0xff            	MOV	R0,# 0xff
                                           	BANKSEL	STK01
0007d8   51ef     MOV	0xef, R0             	MOV	STK01, R0
                                           	BANKSEL	r0x1007
0007d9   0e93     MOVZ	R0, 0x93            	MOVZ	R0, r0x1007
                                           	BANKSEL	r0x1008
0007da   5192     MOV	0x92, R0             	MOV	r0x1008, R0
                                           	BANKSEL	STK00
0007db   51f0     MOV	0xf0, R0             	MOV	STK00, R0
0007dc   9804     MOV	R0, #0x4             	MOV	R0,# 0x04
0007dd   9f0e     MOV	R7, #0xe             	TRAPPC1	_SPI_Write_2Byte
0007de   5f73     MOV	0x73, R7             	TRAPPC2	_SPI_Write_2Byte
0007df   e00e     MOVP	#0x0E               	PAGESEL	_SPI_Write_2Byte
0007e0   de03     CALL	#0xe03              	CALL	_SPI_Write_2Byte
0007e1   9f07     MOV	R7, #0x7             	TRAPPC1	$+2
0007e2   5f73     MOV	0x73, R7             	TRAPPC2	$+1
0007e3   e007     MOVP	#0x07               	PAGESEL	$
0007e4   e100     MOVB	#0x00               	BANKSEL	r0x1007
0007e5   0b93     INC	0x93                 	INC	r0x1007
0007e6   c7d2     JMP	#0x7d2               	JMP	_00095_DS_
                                           _00098_DS_
0007e7   981f     MOV	R0, #0x1f            	MOV	R0,# 0x1f
                                           	BANKSEL	r0x1007
0007e8   5193     MOV	0x93, R0             	MOV	r0x1007, R0
                                           _00099_DS_
                                           	BANKSEL	r0x1007
0007e9   0e93     MOVZ	R0, 0x93            	MOVZ	R0, r0x1007
0007ea   8080     ADD	R0, #0x80            	ADD	R0,# 0x80
0007eb   804f     ADD	R0, #0x4f            	ADD	R0,# 0x4f
0007ec   7003     JNB	0x3, 0               	JNB	PSW, 0
0007ed   c7fe     JMP	#0x7fe               	JMP	_00102_DS_
0007ee   9800     MOV	R0, #0               	MOV	R0,# 0x00
                                           	BANKSEL	STK01
0007ef   51ef     MOV	0xef, R0             	MOV	STK01, R0
                                           	BANKSEL	r0x1007
0007f0   0e93     MOVZ	R0, 0x93            	MOVZ	R0, r0x1007
                                           	BANKSEL	r0x1008
0007f1   5192     MOV	0x92, R0             	MOV	r0x1008, R0
                                           	BANKSEL	STK00
0007f2   51f0     MOV	0xf0, R0             	MOV	STK00, R0
0007f3   9804     MOV	R0, #0x4             	MOV	R0,# 0x04
0007f4   9f0e     MOV	R7, #0xe             	TRAPPC1	_SPI_Write_2Byte
0007f5   5f73     MOV	0x73, R7             	TRAPPC2	_SPI_Write_2Byte
0007f6   e00e     MOVP	#0x0E               	PAGESEL	_SPI_Write_2Byte
0007f7   de03     CALL	#0xe03              	CALL	_SPI_Write_2Byte
0007f8   9f07     MOV	R7, #0x7             	TRAPPC1	$+2
0007f9   5f73     MOV	0x73, R7             	TRAPPC2	$+1
0007fa   e007     MOVP	#0x07               	PAGESEL	$
0007fb   e100     MOVB	#0x00               	BANKSEL	r0x1007
0007fc   0b93     INC	0x93                 	INC	r0x1007
0007fd   c7e9     JMP	#0x7e9               	JMP	_00099_DS_
                                           _00102_DS_
0007fe   9800     MOV	R0, #0               	MOV	R0,# 0x00
                                           	BANKSEL	STK01
0007ff   51ef     MOV	0xef, R0             	MOV	STK01, R0
000800   9836     MOV	R0, #0x36            	MOV	R0,# 0x36
                                           	BANKSEL	STK00
000801   51f0     MOV	0xf0, R0             	MOV	STK00, R0
000802   9804     MOV	R0, #0x4             	MOV	R0,# 0x04
000803   9f0e     MOV	R7, #0xe             	TRAPPC1	_SPI_Write_2Byte
000804   5f73     MOV	0x73, R7             	TRAPPC2	_SPI_Write_2Byte
000805   e00e     MOVP	#0x0E               	PAGESEL	_SPI_Write_2Byte
000806   de03     CALL	#0xe03              	CALL	_SPI_Write_2Byte
000807   9f08     MOV	R7, #0x8             	TRAPPC1	$+2
000808   5f73     MOV	0x73, R7             	TRAPPC2	$+1
000809   e008     MOVP	#0x08               	PAGESEL	$
00080a   9800     MOV	R0, #0               	MOV	R0,# 0x00
00080b   e100     MOVB	#0x00               	BANKSEL	STK01
00080c   51ef     MOV	0xef, R0             	MOV	STK01, R0
00080d   9837     MOV	R0, #0x37            	MOV	R0,# 0x37
                                           	BANKSEL	STK00
00080e   51f0     MOV	0xf0, R0             	MOV	STK00, R0
00080f   9804     MOV	R0, #0x4             	MOV	R0,# 0x04
000810   9f0e     MOV	R7, #0xe             	TRAPPC1	_SPI_Write_2Byte
000811   5f73     MOV	0x73, R7             	TRAPPC2	_SPI_Write_2Byte
000812   e00e     MOVP	#0x0E               	PAGESEL	_SPI_Write_2Byte
000813   de03     CALL	#0xe03              	CALL	_SPI_Write_2Byte
000814   9f08     MOV	R7, #0x8             	TRAPPC1	$+2
000815   5f73     MOV	0x73, R7             	TRAPPC2	$+1
000816   e008     MOVP	#0x08               	PAGESEL	$
000817   9820     MOV	R0, #0x20            	MOV	R0,# 0x20
000818   e100     MOVB	#0x00               	BANKSEL	STK01
000819   51ef     MOV	0xef, R0             	MOV	STK01, R0
00081a   9801     MOV	R0, #0x1             	MOV	R0,# 0x01
                                           	BANKSEL	STK00
00081b   51f0     MOV	0xf0, R0             	MOV	STK00, R0
00081c   9804     MOV	R0, #0x4             	MOV	R0,# 0x04
00081d   9f0e     MOV	R7, #0xe             	TRAPPC1	_SPI_Write_2Byte
00081e   5f73     MOV	0x73, R7             	TRAPPC2	_SPI_Write_2Byte
00081f   e00e     MOVP	#0x0E               	PAGESEL	_SPI_Write_2Byte
000820   de03     CALL	#0xe03              	CALL	_SPI_Write_2Byte
000821   9f08     MOV	R7, #0x8             	TRAPPC1	$+2
000822   5f73     MOV	0x73, R7             	TRAPPC2	$+1
000823   e008     MOVP	#0x08               	PAGESEL	$
000824   0008     CRET                     	CRET	
                                           func._Rt_One_Init	.code
                                           _Rt_One_Init	;Function start
000825   9801     MOV	R0, #0x1             	MOV	R0,# 0x01
000826   e100     MOVB	#0x00               	BANKSEL	STK01
000827   51ef     MOV	0xef, R0             	MOV	STK01, R0
000828   9800     MOV	R0, #0               	MOV	R0,# 0x00
                                           	BANKSEL	STK00
000829   51f0     MOV	0xf0, R0             	MOV	STK00, R0
00082a   9803     MOV	R0, #0x3             	MOV	R0,# 0x03
00082b   9f0e     MOV	R7, #0xe             	TRAPPC1	_SPI_Write_2Byte
00082c   5f73     MOV	0x73, R7             	TRAPPC2	_SPI_Write_2Byte
00082d   e00e     MOVP	#0x0E               	PAGESEL	_SPI_Write_2Byte
00082e   de03     CALL	#0xe03              	CALL	_SPI_Write_2Byte
00082f   9f08     MOV	R7, #0x8             	TRAPPC1	$+2
000830   5f73     MOV	0x73, R7             	TRAPPC2	$+1
000831   e008     MOVP	#0x08               	PAGESEL	$
000832   9802     MOV	R0, #0x2             	MOV	R0,# 0x02
000833   e100     MOVB	#0x00               	BANKSEL	r0x1009
000834   5195     MOV	0x95, R0             	MOV	r0x1009, R0
                                           _00077_DS_
                                           	BANKSEL	r0x1009
000835   0e95     MOVZ	R0, 0x95            	MOVZ	R0, r0x1009
000836   8080     ADD	R0, #0x80            	ADD	R0,# 0x80
000837   806c     ADD	R0, #0x6c            	ADD	R0,# 0x6c
000838   7003     JNB	0x3, 0               	JNB	PSW, 0
000839   c84a     JMP	#0x84a               	JMP	_00080_DS_
00083a   98ff     MOV	R0, #0xff            	MOV	R0,# 0xff
                                           	BANKSEL	STK01
00083b   51ef     MOV	0xef, R0             	MOV	STK01, R0
                                           	BANKSEL	r0x1009
00083c   0e95     MOVZ	R0, 0x95            	MOVZ	R0, r0x1009
                                           	BANKSEL	r0x100A
00083d   5194     MOV	0x94, R0             	MOV	r0x100A, R0
                                           	BANKSEL	STK00
00083e   51f0     MOV	0xf0, R0             	MOV	STK00, R0
00083f   9803     MOV	R0, #0x3             	MOV	R0,# 0x03
000840   9f0e     MOV	R7, #0xe             	TRAPPC1	_SPI_Write_2Byte
000841   5f73     MOV	0x73, R7             	TRAPPC2	_SPI_Write_2Byte
000842   e00e     MOVP	#0x0E               	PAGESEL	_SPI_Write_2Byte
000843   de03     CALL	#0xe03              	CALL	_SPI_Write_2Byte
000844   9f08     MOV	R7, #0x8             	TRAPPC1	$+2
000845   5f73     MOV	0x73, R7             	TRAPPC2	$+1
000846   e008     MOVP	#0x08               	PAGESEL	$
000847   e100     MOVB	#0x00               	BANKSEL	r0x1009
000848   0b95     INC	0x95                 	INC	r0x1009
000849   c835     JMP	#0x835               	JMP	_00077_DS_
                                           _00080_DS_
00084a   981f     MOV	R0, #0x1f            	MOV	R0,# 0x1f
                                           	BANKSEL	r0x1009
00084b   5195     MOV	0x95, R0             	MOV	r0x1009, R0
                                           _00081_DS_
                                           	BANKSEL	r0x1009
00084c   0e95     MOVZ	R0, 0x95            	MOVZ	R0, r0x1009
00084d   8080     ADD	R0, #0x80            	ADD	R0,# 0x80
00084e   804f     ADD	R0, #0x4f            	ADD	R0,# 0x4f
00084f   7003     JNB	0x3, 0               	JNB	PSW, 0
000850   c861     JMP	#0x861               	JMP	_00084_DS_
000851   9800     MOV	R0, #0               	MOV	R0,# 0x00
                                           	BANKSEL	STK01
000852   51ef     MOV	0xef, R0             	MOV	STK01, R0
                                           	BANKSEL	r0x1009
000853   0e95     MOVZ	R0, 0x95            	MOVZ	R0, r0x1009
                                           	BANKSEL	r0x100A
000854   5194     MOV	0x94, R0             	MOV	r0x100A, R0
                                           	BANKSEL	STK00
000855   51f0     MOV	0xf0, R0             	MOV	STK00, R0
000856   9803     MOV	R0, #0x3             	MOV	R0,# 0x03
000857   9f0e     MOV	R7, #0xe             	TRAPPC1	_SPI_Write_2Byte
000858   5f73     MOV	0x73, R7             	TRAPPC2	_SPI_Write_2Byte
000859   e00e     MOVP	#0x0E               	PAGESEL	_SPI_Write_2Byte
00085a   de03     CALL	#0xe03              	CALL	_SPI_Write_2Byte
00085b   9f08     MOV	R7, #0x8             	TRAPPC1	$+2
00085c   5f73     MOV	0x73, R7             	TRAPPC2	$+1
00085d   e008     MOVP	#0x08               	PAGESEL	$
00085e   e100     MOVB	#0x00               	BANKSEL	r0x1009
00085f   0b95     INC	0x95                 	INC	r0x1009
000860   c84c     JMP	#0x84c               	JMP	_00081_DS_
                                           _00084_DS_
000861   9800     MOV	R0, #0               	MOV	R0,# 0x00
                                           	BANKSEL	STK01
000862   51ef     MOV	0xef, R0             	MOV	STK01, R0
000863   9836     MOV	R0, #0x36            	MOV	R0,# 0x36
                                           	BANKSEL	STK00
000864   51f0     MOV	0xf0, R0             	MOV	STK00, R0
000865   9803     MOV	R0, #0x3             	MOV	R0,# 0x03
000866   9f0e     MOV	R7, #0xe             	TRAPPC1	_SPI_Write_2Byte
000867   5f73     MOV	0x73, R7             	TRAPPC2	_SPI_Write_2Byte
000868   e00e     MOVP	#0x0E               	PAGESEL	_SPI_Write_2Byte
000869   de03     CALL	#0xe03              	CALL	_SPI_Write_2Byte
00086a   9f08     MOV	R7, #0x8             	TRAPPC1	$+2
00086b   5f73     MOV	0x73, R7             	TRAPPC2	$+1
00086c   e008     MOVP	#0x08               	PAGESEL	$
00086d   9800     MOV	R0, #0               	MOV	R0,# 0x00
00086e   e100     MOVB	#0x00               	BANKSEL	STK01
00086f   51ef     MOV	0xef, R0             	MOV	STK01, R0
000870   9837     MOV	R0, #0x37            	MOV	R0,# 0x37
                                           	BANKSEL	STK00
000871   51f0     MOV	0xf0, R0             	MOV	STK00, R0
000872   9803     MOV	R0, #0x3             	MOV	R0,# 0x03
000873   9f0e     MOV	R7, #0xe             	TRAPPC1	_SPI_Write_2Byte
000874   5f73     MOV	0x73, R7             	TRAPPC2	_SPI_Write_2Byte
000875   e00e     MOVP	#0x0E               	PAGESEL	_SPI_Write_2Byte
000876   de03     CALL	#0xe03              	CALL	_SPI_Write_2Byte
000877   9f08     MOV	R7, #0x8             	TRAPPC1	$+2
000878   5f73     MOV	0x73, R7             	TRAPPC2	$+1
000879   e008     MOVP	#0x08               	PAGESEL	$
00087a   9820     MOV	R0, #0x20            	MOV	R0,# 0x20
00087b   e100     MOVB	#0x00               	BANKSEL	STK01
00087c   51ef     MOV	0xef, R0             	MOV	STK01, R0
00087d   9801     MOV	R0, #0x1             	MOV	R0,# 0x01
                                           	BANKSEL	STK00
00087e   51f0     MOV	0xf0, R0             	MOV	STK00, R0
00087f   9803     MOV	R0, #0x3             	MOV	R0,# 0x03
000880   9f0e     MOV	R7, #0xe             	TRAPPC1	_SPI_Write_2Byte
000881   5f73     MOV	0x73, R7             	TRAPPC2	_SPI_Write_2Byte
000882   e00e     MOVP	#0x0E               	PAGESEL	_SPI_Write_2Byte
000883   de03     CALL	#0xe03              	CALL	_SPI_Write_2Byte
000884   9f08     MOV	R7, #0x8             	TRAPPC1	$+2
000885   5f73     MOV	0x73, R7             	TRAPPC2	$+1
000886   e008     MOVP	#0x08               	PAGESEL	$
000887   0008     CRET                     	CRET	
                                           func._Tail_Two_Init	.code
                                           _Tail_Two_Init	;Function start
000888   9801     MOV	R0, #0x1             	MOV	R0,# 0x01
000889   e100     MOVB	#0x00               	BANKSEL	STK01
00088a   51ef     MOV	0xef, R0             	MOV	STK01, R0
00088b   9800     MOV	R0, #0               	MOV	R0,# 0x00
                                           	BANKSEL	STK00
00088c   51f0     MOV	0xf0, R0             	MOV	STK00, R0
00088d   9802     MOV	R0, #0x2             	MOV	R0,# 0x02
00088e   9f0e     MOV	R7, #0xe             	TRAPPC1	_SPI_Write_2Byte
00088f   5f73     MOV	0x73, R7             	TRAPPC2	_SPI_Write_2Byte
000890   e00e     MOVP	#0x0E               	PAGESEL	_SPI_Write_2Byte
000891   de03     CALL	#0xe03              	CALL	_SPI_Write_2Byte
000892   9f08     MOV	R7, #0x8             	TRAPPC1	$+2
000893   5f73     MOV	0x73, R7             	TRAPPC2	$+1
000894   e008     MOVP	#0x08               	PAGESEL	$
000895   9802     MOV	R0, #0x2             	MOV	R0,# 0x02
000896   e100     MOVB	#0x00               	BANKSEL	r0x100B
000897   5197     MOV	0x97, R0             	MOV	r0x100B, R0
                                           _00059_DS_
                                           	BANKSEL	r0x100B
000898   0e97     MOVZ	R0, 0x97            	MOVZ	R0, r0x100B
000899   8080     ADD	R0, #0x80            	ADD	R0,# 0x80
00089a   806c     ADD	R0, #0x6c            	ADD	R0,# 0x6c
00089b   7003     JNB	0x3, 0               	JNB	PSW, 0
00089c   c8ad     JMP	#0x8ad               	JMP	_00062_DS_
00089d   98ff     MOV	R0, #0xff            	MOV	R0,# 0xff
                                           	BANKSEL	STK01
00089e   51ef     MOV	0xef, R0             	MOV	STK01, R0
                                           	BANKSEL	r0x100B
00089f   0e97     MOVZ	R0, 0x97            	MOVZ	R0, r0x100B
                                           	BANKSEL	r0x100C
0008a0   5196     MOV	0x96, R0             	MOV	r0x100C, R0
                                           	BANKSEL	STK00
0008a1   51f0     MOV	0xf0, R0             	MOV	STK00, R0
0008a2   9802     MOV	R0, #0x2             	MOV	R0,# 0x02
0008a3   9f0e     MOV	R7, #0xe             	TRAPPC1	_SPI_Write_2Byte
0008a4   5f73     MOV	0x73, R7             	TRAPPC2	_SPI_Write_2Byte
0008a5   e00e     MOVP	#0x0E               	PAGESEL	_SPI_Write_2Byte
0008a6   de03     CALL	#0xe03              	CALL	_SPI_Write_2Byte
0008a7   9f08     MOV	R7, #0x8             	TRAPPC1	$+2
0008a8   5f73     MOV	0x73, R7             	TRAPPC2	$+1
0008a9   e008     MOVP	#0x08               	PAGESEL	$
0008aa   e100     MOVB	#0x00               	BANKSEL	r0x100B
0008ab   0b97     INC	0x97                 	INC	r0x100B
0008ac   c898     JMP	#0x898               	JMP	_00059_DS_
                                           _00062_DS_
0008ad   981f     MOV	R0, #0x1f            	MOV	R0,# 0x1f
                                           	BANKSEL	r0x100B
0008ae   5197     MOV	0x97, R0             	MOV	r0x100B, R0
                                           _00063_DS_
                                           	BANKSEL	r0x100B
0008af   0e97     MOVZ	R0, 0x97            	MOVZ	R0, r0x100B
0008b0   8080     ADD	R0, #0x80            	ADD	R0,# 0x80
0008b1   804f     ADD	R0, #0x4f            	ADD	R0,# 0x4f
0008b2   7003     JNB	0x3, 0               	JNB	PSW, 0
0008b3   c8c4     JMP	#0x8c4               	JMP	_00066_DS_
0008b4   9800     MOV	R0, #0               	MOV	R0,# 0x00
                                           	BANKSEL	STK01
0008b5   51ef     MOV	0xef, R0             	MOV	STK01, R0
                                           	BANKSEL	r0x100B
0008b6   0e97     MOVZ	R0, 0x97            	MOVZ	R0, r0x100B
                                           	BANKSEL	r0x100C
0008b7   5196     MOV	0x96, R0             	MOV	r0x100C, R0
                                           	BANKSEL	STK00
0008b8   51f0     MOV	0xf0, R0             	MOV	STK00, R0
0008b9   9802     MOV	R0, #0x2             	MOV	R0,# 0x02
0008ba   9f0e     MOV	R7, #0xe             	TRAPPC1	_SPI_Write_2Byte
0008bb   5f73     MOV	0x73, R7             	TRAPPC2	_SPI_Write_2Byte
0008bc   e00e     MOVP	#0x0E               	PAGESEL	_SPI_Write_2Byte
0008bd   de03     CALL	#0xe03              	CALL	_SPI_Write_2Byte
0008be   9f08     MOV	R7, #0x8             	TRAPPC1	$+2
0008bf   5f73     MOV	0x73, R7             	TRAPPC2	$+1
0008c0   e008     MOVP	#0x08               	PAGESEL	$
0008c1   e100     MOVB	#0x00               	BANKSEL	r0x100B
0008c2   0b97     INC	0x97                 	INC	r0x100B
0008c3   c8af     JMP	#0x8af               	JMP	_00063_DS_
                                           _00066_DS_
0008c4   9800     MOV	R0, #0               	MOV	R0,# 0x00
                                           	BANKSEL	STK01
0008c5   51ef     MOV	0xef, R0             	MOV	STK01, R0
0008c6   9836     MOV	R0, #0x36            	MOV	R0,# 0x36
                                           	BANKSEL	STK00
0008c7   51f0     MOV	0xf0, R0             	MOV	STK00, R0
0008c8   9802     MOV	R0, #0x2             	MOV	R0,# 0x02
0008c9   9f0e     MOV	R7, #0xe             	TRAPPC1	_SPI_Write_2Byte
0008ca   5f73     MOV	0x73, R7             	TRAPPC2	_SPI_Write_2Byte
0008cb   e00e     MOVP	#0x0E               	PAGESEL	_SPI_Write_2Byte
0008cc   de03     CALL	#0xe03              	CALL	_SPI_Write_2Byte
0008cd   9f08     MOV	R7, #0x8             	TRAPPC1	$+2
0008ce   5f73     MOV	0x73, R7             	TRAPPC2	$+1
0008cf   e008     MOVP	#0x08               	PAGESEL	$
0008d0   9800     MOV	R0, #0               	MOV	R0,# 0x00
0008d1   e100     MOVB	#0x00               	BANKSEL	STK01
0008d2   51ef     MOV	0xef, R0             	MOV	STK01, R0
0008d3   9837     MOV	R0, #0x37            	MOV	R0,# 0x37
                                           	BANKSEL	STK00
0008d4   51f0     MOV	0xf0, R0             	MOV	STK00, R0
0008d5   9802     MOV	R0, #0x2             	MOV	R0,# 0x02
0008d6   9f0e     MOV	R7, #0xe             	TRAPPC1	_SPI_Write_2Byte
0008d7   5f73     MOV	0x73, R7             	TRAPPC2	_SPI_Write_2Byte
0008d8   e00e     MOVP	#0x0E               	PAGESEL	_SPI_Write_2Byte
0008d9   de03     CALL	#0xe03              	CALL	_SPI_Write_2Byte
0008da   9f08     MOV	R7, #0x8             	TRAPPC1	$+2
0008db   5f73     MOV	0x73, R7             	TRAPPC2	$+1
0008dc   e008     MOVP	#0x08               	PAGESEL	$
0008dd   9820     MOV	R0, #0x20            	MOV	R0,# 0x20
0008de   e100     MOVB	#0x00               	BANKSEL	STK01
0008df   51ef     MOV	0xef, R0             	MOV	STK01, R0
0008e0   9801     MOV	R0, #0x1             	MOV	R0,# 0x01
                                           	BANKSEL	STK00
0008e1   51f0     MOV	0xf0, R0             	MOV	STK00, R0
0008e2   9802     MOV	R0, #0x2             	MOV	R0,# 0x02
0008e3   9f0e     MOV	R7, #0xe             	TRAPPC1	_SPI_Write_2Byte
0008e4   5f73     MOV	0x73, R7             	TRAPPC2	_SPI_Write_2Byte
0008e5   e00e     MOVP	#0x0E               	PAGESEL	_SPI_Write_2Byte
0008e6   de03     CALL	#0xe03              	CALL	_SPI_Write_2Byte
0008e7   9f08     MOV	R7, #0x8             	TRAPPC1	$+2
0008e8   5f73     MOV	0x73, R7             	TRAPPC2	$+1
0008e9   e008     MOVP	#0x08               	PAGESEL	$
0008ea   0008     CRET                     	CRET	
                                           func._Tail_One_Init	.code
                                           _Tail_One_Init	;Function start
0008eb   9801     MOV	R0, #0x1             	MOV	R0,# 0x01
0008ec   e100     MOVB	#0x00               	BANKSEL	STK01
0008ed   51ef     MOV	0xef, R0             	MOV	STK01, R0
0008ee   9800     MOV	R0, #0               	MOV	R0,# 0x00
                                           	BANKSEL	STK00
0008ef   51f0     MOV	0xf0, R0             	MOV	STK00, R0
0008f0   9801     MOV	R0, #0x1             	MOV	R0,# 0x01
0008f1   9f0e     MOV	R7, #0xe             	TRAPPC1	_SPI_Write_2Byte
0008f2   5f73     MOV	0x73, R7             	TRAPPC2	_SPI_Write_2Byte
0008f3   e00e     MOVP	#0x0E               	PAGESEL	_SPI_Write_2Byte
0008f4   de03     CALL	#0xe03              	CALL	_SPI_Write_2Byte
0008f5   9f08     MOV	R7, #0x8             	TRAPPC1	$+2
0008f6   5f73     MOV	0x73, R7             	TRAPPC2	$+1
0008f7   e008     MOVP	#0x08               	PAGESEL	$
0008f8   9802     MOV	R0, #0x2             	MOV	R0,# 0x02
0008f9   e100     MOVB	#0x00               	BANKSEL	r0x100D
0008fa   5199     MOV	0x99, R0             	MOV	r0x100D, R0
                                           _00041_DS_
                                           	BANKSEL	r0x100D
0008fb   0e99     MOVZ	R0, 0x99            	MOVZ	R0, r0x100D
0008fc   8080     ADD	R0, #0x80            	ADD	R0,# 0x80
0008fd   806c     ADD	R0, #0x6c            	ADD	R0,# 0x6c
0008fe   7003     JNB	0x3, 0               	JNB	PSW, 0
0008ff   c910     JMP	#0x910               	JMP	_00044_DS_
000900   98ff     MOV	R0, #0xff            	MOV	R0,# 0xff
                                           	BANKSEL	STK01
000901   51ef     MOV	0xef, R0             	MOV	STK01, R0
                                           	BANKSEL	r0x100D
000902   0e99     MOVZ	R0, 0x99            	MOVZ	R0, r0x100D
                                           	BANKSEL	r0x100E
000903   5198     MOV	0x98, R0             	MOV	r0x100E, R0
                                           	BANKSEL	STK00
000904   51f0     MOV	0xf0, R0             	MOV	STK00, R0
000905   9801     MOV	R0, #0x1             	MOV	R0,# 0x01
000906   9f0e     MOV	R7, #0xe             	TRAPPC1	_SPI_Write_2Byte
000907   5f73     MOV	0x73, R7             	TRAPPC2	_SPI_Write_2Byte
000908   e00e     MOVP	#0x0E               	PAGESEL	_SPI_Write_2Byte
000909   de03     CALL	#0xe03              	CALL	_SPI_Write_2Byte
00090a   9f09     MOV	R7, #0x9             	TRAPPC1	$+2
00090b   5f73     MOV	0x73, R7             	TRAPPC2	$+1
00090c   e009     MOVP	#0x09               	PAGESEL	$
00090d   e100     MOVB	#0x00               	BANKSEL	r0x100D
00090e   0b99     INC	0x99                 	INC	r0x100D
00090f   c8fb     JMP	#0x8fb               	JMP	_00041_DS_
                                           _00044_DS_
000910   981f     MOV	R0, #0x1f            	MOV	R0,# 0x1f
                                           	BANKSEL	r0x100D
000911   5199     MOV	0x99, R0             	MOV	r0x100D, R0
                                           _00045_DS_
                                           	BANKSEL	r0x100D
000912   0e99     MOVZ	R0, 0x99            	MOVZ	R0, r0x100D
000913   8080     ADD	R0, #0x80            	ADD	R0,# 0x80
000914   804f     ADD	R0, #0x4f            	ADD	R0,# 0x4f
000915   7003     JNB	0x3, 0               	JNB	PSW, 0
000916   c927     JMP	#0x927               	JMP	_00048_DS_
000917   9800     MOV	R0, #0               	MOV	R0,# 0x00
                                           	BANKSEL	STK01
000918   51ef     MOV	0xef, R0             	MOV	STK01, R0
                                           	BANKSEL	r0x100D
000919   0e99     MOVZ	R0, 0x99            	MOVZ	R0, r0x100D
                                           	BANKSEL	r0x100E
00091a   5198     MOV	0x98, R0             	MOV	r0x100E, R0
                                           	BANKSEL	STK00
00091b   51f0     MOV	0xf0, R0             	MOV	STK00, R0
00091c   9801     MOV	R0, #0x1             	MOV	R0,# 0x01
00091d   9f0e     MOV	R7, #0xe             	TRAPPC1	_SPI_Write_2Byte
00091e   5f73     MOV	0x73, R7             	TRAPPC2	_SPI_Write_2Byte
00091f   e00e     MOVP	#0x0E               	PAGESEL	_SPI_Write_2Byte
000920   de03     CALL	#0xe03              	CALL	_SPI_Write_2Byte
000921   9f09     MOV	R7, #0x9             	TRAPPC1	$+2
000922   5f73     MOV	0x73, R7             	TRAPPC2	$+1
000923   e009     MOVP	#0x09               	PAGESEL	$
000924   e100     MOVB	#0x00               	BANKSEL	r0x100D
000925   0b99     INC	0x99                 	INC	r0x100D
000926   c912     JMP	#0x912               	JMP	_00045_DS_
                                           _00048_DS_
000927   9800     MOV	R0, #0               	MOV	R0,# 0x00
                                           	BANKSEL	STK01
000928   51ef     MOV	0xef, R0             	MOV	STK01, R0
000929   9836     MOV	R0, #0x36            	MOV	R0,# 0x36
                                           	BANKSEL	STK00
00092a   51f0     MOV	0xf0, R0             	MOV	STK00, R0
00092b   9801     MOV	R0, #0x1             	MOV	R0,# 0x01
00092c   9f0e     MOV	R7, #0xe             	TRAPPC1	_SPI_Write_2Byte
00092d   5f73     MOV	0x73, R7             	TRAPPC2	_SPI_Write_2Byte
00092e   e00e     MOVP	#0x0E               	PAGESEL	_SPI_Write_2Byte
00092f   de03     CALL	#0xe03              	CALL	_SPI_Write_2Byte
000930   9f09     MOV	R7, #0x9             	TRAPPC1	$+2
000931   5f73     MOV	0x73, R7             	TRAPPC2	$+1
000932   e009     MOVP	#0x09               	PAGESEL	$
000933   9800     MOV	R0, #0               	MOV	R0,# 0x00
000934   e100     MOVB	#0x00               	BANKSEL	STK01
000935   51ef     MOV	0xef, R0             	MOV	STK01, R0
000936   9837     MOV	R0, #0x37            	MOV	R0,# 0x37
                                           	BANKSEL	STK00
000937   51f0     MOV	0xf0, R0             	MOV	STK00, R0
000938   9801     MOV	R0, #0x1             	MOV	R0,# 0x01
000939   9f0e     MOV	R7, #0xe             	TRAPPC1	_SPI_Write_2Byte
00093a   5f73     MOV	0x73, R7             	TRAPPC2	_SPI_Write_2Byte
00093b   e00e     MOVP	#0x0E               	PAGESEL	_SPI_Write_2Byte
00093c   de03     CALL	#0xe03              	CALL	_SPI_Write_2Byte
00093d   9f09     MOV	R7, #0x9             	TRAPPC1	$+2
00093e   5f73     MOV	0x73, R7             	TRAPPC2	$+1
00093f   e009     MOVP	#0x09               	PAGESEL	$
000940   9820     MOV	R0, #0x20            	MOV	R0,# 0x20
000941   e100     MOVB	#0x00               	BANKSEL	STK01
000942   51ef     MOV	0xef, R0             	MOV	STK01, R0
000943   9801     MOV	R0, #0x1             	MOV	R0,# 0x01
                                           	BANKSEL	STK00
000944   51f0     MOV	0xf0, R0             	MOV	STK00, R0
000945   9801     MOV	R0, #0x1             	MOV	R0,# 0x01
000946   9f0e     MOV	R7, #0xe             	TRAPPC1	_SPI_Write_2Byte
000947   5f73     MOV	0x73, R7             	TRAPPC2	_SPI_Write_2Byte
000948   e00e     MOVP	#0x0E               	PAGESEL	_SPI_Write_2Byte
000949   de03     CALL	#0xe03              	CALL	_SPI_Write_2Byte
00094a   9f09     MOV	R7, #0x9             	TRAPPC1	$+2
00094b   5f73     MOV	0x73, R7             	TRAPPC2	$+1
00094c   e009     MOVP	#0x09               	PAGESEL	$
00094d   0008     CRET                     	CRET	
                                           func._IS31FL3265B_Init	.code
                                           _IS31FL3265B_Init	;Function start
000eea   9f0f     MOV	R7, #0xf             	TRAPPC1	_spi_init
000eeb   5f73     MOV	0x73, R7             	TRAPPC2	_spi_init
000eec   e00f     MOVP	#0x0F               	PAGESEL	_spi_init
000eed   df78     CALL	#0xf78              	CALL	_spi_init
000eee   9f0e     MOV	R7, #0xe             	TRAPPC1	$+2
000eef   5f73     MOV	0x73, R7             	TRAPPC2	$+1
000ef0   e00e     MOVP	#0x0E               	PAGESEL	$
000ef1   9f08     MOV	R7, #0x8             	TRAPPC1	_Tail_One_Init
000ef2   5f73     MOV	0x73, R7             	TRAPPC2	_Tail_One_Init
000ef3   e008     MOVP	#0x08               	PAGESEL	_Tail_One_Init
000ef4   d8eb     CALL	#0x8eb              	CALL	_Tail_One_Init
000ef5   9f0e     MOV	R7, #0xe             	TRAPPC1	$+2
000ef6   5f73     MOV	0x73, R7             	TRAPPC2	$+1
000ef7   e00e     MOVP	#0x0E               	PAGESEL	$
000ef8   9f08     MOV	R7, #0x8             	TRAPPC1	_Tail_Two_Init
000ef9   5f73     MOV	0x73, R7             	TRAPPC2	_Tail_Two_Init
000efa   e008     MOVP	#0x08               	PAGESEL	_Tail_Two_Init
000efb   d888     CALL	#0x888              	CALL	_Tail_Two_Init
000efc   9f0e     MOV	R7, #0xe             	TRAPPC1	$+2
000efd   5f73     MOV	0x73, R7             	TRAPPC2	$+1
000efe   e00e     MOVP	#0x0E               	PAGESEL	$
000eff   9f08     MOV	R7, #0x8             	TRAPPC1	_Rt_One_Init
000f00   5f73     MOV	0x73, R7             	TRAPPC2	_Rt_One_Init
000f01   e008     MOVP	#0x08               	PAGESEL	_Rt_One_Init
000f02   d825     CALL	#0x825              	CALL	_Rt_One_Init
000f03   9f0f     MOV	R7, #0xf             	TRAPPC1	$+2
000f04   5f73     MOV	0x73, R7             	TRAPPC2	$+1
000f05   e00f     MOVP	#0x0F               	PAGESEL	$
000f06   9f07     MOV	R7, #0x7             	TRAPPC1	_Rt_Two_Init
000f07   5f73     MOV	0x73, R7             	TRAPPC2	_Rt_Two_Init
000f08   e007     MOVP	#0x07               	PAGESEL	_Rt_Two_Init
000f09   d7c2     CALL	#0x7c2              	CALL	_Rt_Two_Init
000f0a   9f0f     MOV	R7, #0xf             	TRAPPC1	$+2
000f0b   5f73     MOV	0x73, R7             	TRAPPC2	$+1
000f0c   e00f     MOVP	#0x0F               	PAGESEL	$
000f0d   0008     CRET                     	CRET	
                                           func._SPI_Write_2Byte	.code
                                           _SPI_Write_2Byte	;Function start
000e03   e100     MOVB	#0x00               	BANKSEL	r0x1005
000e04   519b     MOV	0x9b, R0             	MOV	r0x1005, R0
                                           	BANKSEL	r0x1006
000e05   519a     MOV	0x9a, R0             	MOV	r0x1006, R0
                                           	BANKSEL	STK00
000e06   0ef0     MOVZ	R0, 0xf0            	MOVZ	R0, STK00
                                           	BANKSEL	_SPI_Write_2Byte_SPI_adr_1_1
000e07   5191     MOV	0x91, R0             	MOV	_SPI_Write_2Byte_SPI_adr_1_1, R0
                                           	BANKSEL	STK01
000e08   0eef     MOVZ	R0, 0xef            	MOVZ	R0, STK01
                                           	BANKSEL	_SPI_Write_2Byte_SPI_data_1_1
000e09   5190     MOV	0x90, R0             	MOV	_SPI_Write_2Byte_SPI_data_1_1, R0
                                           	BANKSEL	r0x1006
000e0a   0e9a     MOVZ	R0, 0x9a            	MOVZ	R0, r0x1006
000e0b   9f0f     MOV	R7, #0xf             	TRAPPC1	_Spi_CS_Low
000e0c   5f73     MOV	0x73, R7             	TRAPPC2	_Spi_CS_Low
000e0d   e00f     MOVP	#0x0F               	PAGESEL	_Spi_CS_Low
000e0e   df32     CALL	#0xf32              	CALL	_Spi_CS_Low
000e0f   9f0e     MOV	R7, #0xe             	TRAPPC1	$+2
000e10   5f73     MOV	0x73, R7             	TRAPPC2	$+1
000e11   e00e     MOVP	#0x0E               	PAGESEL	$
000e12   e100     MOVB	#0x00               	BANKSEL	_SPI_Write_2Byte_SPI_adr_1_1
000e13   0e91     MOVZ	R0, 0x91            	MOVZ	R0, _SPI_Write_2Byte_SPI_adr_1_1
000e14   e102     MOVB	#0x02               	BANKSEL	_SSCI2BUFR
000e15   5107     MOV	0x7, R0              	MOV	_SSCI2BUFR, R0
                                           _00027_DS_
000e16   e105     MOVB	#0x05               	BANKSEL	_EIF6_bits
000e17   7c1c     JB	0x1c, 4               	JB	_EIF6_bits, 4
000e18   ce16     JMP	#0xe16               	JMP	_00027_DS_
                                           	BANKSEL	_EIF6_bits
000e19   641c     CLR	0x1c, 4              	CLR	_EIF6_bits, 4
000e1a   e102     MOVB	#0x02               	BANKSEL	_SSCI2BUFR
000e1b   0e07     MOVZ	R0, 0x7             	MOVZ	R0, _SSCI2BUFR
000e1c   e100     MOVB	#0x00               	BANKSEL	_SPI_Write_2Byte_buf_1_1
000e1d   51db     MOV	0xdb, R0             	MOV	_SPI_Write_2Byte_buf_1_1, R0
                                           	BANKSEL	_SPI_Write_2Byte_buf_1_1
000e1e   03dc     CLR	0xdc                 	CLR	(_SPI_Write_2Byte_buf_1_1 + 1)
                                           	BANKSEL	_SPI_Write_2Byte_SPI_data_1_1
000e1f   0e90     MOVZ	R0, 0x90            	MOVZ	R0, _SPI_Write_2Byte_SPI_data_1_1
000e20   e102     MOVB	#0x02               	BANKSEL	_SSCI2BUFR
000e21   5107     MOV	0x7, R0              	MOV	_SSCI2BUFR, R0
                                           _00030_DS_
000e22   e105     MOVB	#0x05               	BANKSEL	_EIF6_bits
000e23   7c1c     JB	0x1c, 4               	JB	_EIF6_bits, 4
000e24   ce22     JMP	#0xe22               	JMP	_00030_DS_
                                           	BANKSEL	_EIF6_bits
000e25   641c     CLR	0x1c, 4              	CLR	_EIF6_bits, 4
000e26   e102     MOVB	#0x02               	BANKSEL	_SSCI2BUFR
000e27   0e07     MOVZ	R0, 0x7             	MOVZ	R0, _SSCI2BUFR
000e28   e100     MOVB	#0x00               	BANKSEL	_SPI_Write_2Byte_buf_1_1
000e29   51db     MOV	0xdb, R0             	MOV	_SPI_Write_2Byte_buf_1_1, R0
                                           	BANKSEL	_SPI_Write_2Byte_buf_1_1
000e2a   03dc     CLR	0xdc                 	CLR	(_SPI_Write_2Byte_buf_1_1 + 1)
                                           	BANKSEL	r0x1005
000e2b   0e9b     MOVZ	R0, 0x9b            	MOVZ	R0, r0x1005
                                           	BANKSEL	r0x1006
000e2c   519a     MOV	0x9a, R0             	MOV	r0x1006, R0
000e2d   9f0f     MOV	R7, #0xf             	TRAPPC1	_Spi_CS_High
000e2e   5f73     MOV	0x73, R7             	TRAPPC2	_Spi_CS_High
000e2f   e00f     MOVP	#0x0F               	PAGESEL	_Spi_CS_High
000e30   df55     CALL	#0xf55              	CALL	_Spi_CS_High
000e31   9f0e     MOV	R7, #0xe             	TRAPPC1	$+2
000e32   5f73     MOV	0x73, R7             	TRAPPC2	$+1
000e33   e00e     MOVP	#0x0E               	PAGESEL	$
000e34   0008     CRET                     	CRET	
                                           func._Spi_CS_Low	.code
                                           _Spi_CS_Low	;Function start
000f32   e100     MOVB	#0x00               	BANKSEL	r0x1004
000f33   519c     MOV	0x9c, R0             	MOV	r0x1004, R0
                                           	BANKSEL	r0x1004
000f34   0e9c     MOVZ	R0, 0x9c            	MOVZ	R0, r0x1004
000f35   8080     ADD	R0, #0x80            	ADD	R0,# 0x80
000f36   807f     ADD	R0, #0x7f            	ADD	R0,# 0x7f
000f37   7803     JB	0x3, 0                	JB	PSW, 0
000f38   cf54     JMP	#0xf54               	JMP	_00020_DS_
                                           	BANKSEL	r0x1004
000f39   0e9c     MOVZ	R0, 0x9c            	MOVZ	R0, r0x1004
000f3a   8080     ADD	R0, #0x80            	ADD	R0,# 0x80
000f3b   807b     ADD	R0, #0x7b            	ADD	R0,# 0x7b
000f3c   7003     JNB	0x3, 0               	JNB	PSW, 0
000f3d   cf54     JMP	#0xf54               	JMP	_00020_DS_
                                           	BANKSEL	r0x1004
000f3e   079c     DEC	0x9c                 	DEC	r0x1004
000f3f   990f     MOV	R1, #0xf             	MOV	R1,#high _00026_DS_
000f40   9847     MOV	R0, #0x47            	MOV	R0,#_00026_DS_
                                           	BANKSEL	r0x1004
000f41   209c     ADD	R0, 0x9c             	ADD	R0, r0x1004
000f42   7003     JNB	0x3, 0               	JNB	PSW, 0
000f43   ff11     INC	R1                   	INC	R1
000f44   5373     MOV	0x73, R1             	TRAPPC3	$
000f45   530a     MOV	0xa, R1              	MOV	PCH, R1
000f46   5102     MOV	0x2, R0              	MOV	PCL, R0
                                           _00026_DS_
000f47   cf4b     JMP	#0xf4b               	JMP	_00015_DS_
000f48   cf4d     JMP	#0xf4d               	JMP	_00016_DS_
000f49   cf50     JMP	#0xf50               	JMP	_00017_DS_
000f4a   cf53     JMP	#0xf53               	JMP	_00018_DS_
                                           _00015_DS_
                                           	BANKSEL	_P0LR_bits
000f4b   6445     CLR	0x45, 4              	CLR	_P0LR_bits, 4
000f4c   cf54     JMP	#0xf54               	JMP	_00020_DS_
                                           _00016_DS_
000f4d   e101     MOVB	#0x01               	BANKSEL	_P6LR_bits
000f4e   6246     CLR	0x46, 2              	CLR	_P6LR_bits, 2
000f4f   cf54     JMP	#0xf54               	JMP	_00020_DS_
                                           _00017_DS_
000f50   e104     MOVB	#0x04               	BANKSEL	_PALR_bits
000f51   6125     CLR	0x25, 1              	CLR	_PALR_bits, 1
000f52   cf54     JMP	#0xf54               	JMP	_00020_DS_
                                           _00018_DS_
                                           	BANKSEL	_P1LR_bits
000f53   6047     CLR	0x47, 0              	CLR	_P1LR_bits, 0
                                           _00020_DS_
000f54   0008     CRET                     	CRET	
                                           func._Spi_CS_High	.code
                                           _Spi_CS_High	;Function start
000f55   e100     MOVB	#0x00               	BANKSEL	r0x1004
000f56   519c     MOV	0x9c, R0             	MOV	r0x1004, R0
                                           	BANKSEL	r0x1004
000f57   0e9c     MOVZ	R0, 0x9c            	MOVZ	R0, r0x1004
000f58   8080     ADD	R0, #0x80            	ADD	R0,# 0x80
000f59   807f     ADD	R0, #0x7f            	ADD	R0,# 0x7f
000f5a   7803     JB	0x3, 0                	JB	PSW, 0
000f5b   cf77     JMP	#0xf77               	JMP	_00008_DS_
                                           	BANKSEL	r0x1004
000f5c   0e9c     MOVZ	R0, 0x9c            	MOVZ	R0, r0x1004
000f5d   8080     ADD	R0, #0x80            	ADD	R0,# 0x80
000f5e   807b     ADD	R0, #0x7b            	ADD	R0,# 0x7b
000f5f   7003     JNB	0x3, 0               	JNB	PSW, 0
000f60   cf77     JMP	#0xf77               	JMP	_00008_DS_
                                           	BANKSEL	r0x1004
000f61   079c     DEC	0x9c                 	DEC	r0x1004
000f62   990f     MOV	R1, #0xf             	MOV	R1,#high _00014_DS_
000f63   986a     MOV	R0, #0x6a            	MOV	R0,#_00014_DS_
                                           	BANKSEL	r0x1004
000f64   209c     ADD	R0, 0x9c             	ADD	R0, r0x1004
000f65   7003     JNB	0x3, 0               	JNB	PSW, 0
000f66   ff11     INC	R1                   	INC	R1
000f67   5373     MOV	0x73, R1             	TRAPPC3	$
000f68   530a     MOV	0xa, R1              	MOV	PCH, R1
000f69   5102     MOV	0x2, R0              	MOV	PCL, R0
                                           _00014_DS_
000f6a   cf6e     JMP	#0xf6e               	JMP	_00003_DS_
000f6b   cf70     JMP	#0xf70               	JMP	_00004_DS_
000f6c   cf73     JMP	#0xf73               	JMP	_00005_DS_
000f6d   cf76     JMP	#0xf76               	JMP	_00006_DS_
                                           _00003_DS_
                                           	BANKSEL	_P0LR_bits
000f6e   6c45     SET	0x45, 4              	SET	_P0LR_bits, 4
000f6f   cf77     JMP	#0xf77               	JMP	_00008_DS_
                                           _00004_DS_
000f70   e101     MOVB	#0x01               	BANKSEL	_P6LR_bits
000f71   6a46     SET	0x46, 2              	SET	_P6LR_bits, 2
000f72   cf77     JMP	#0xf77               	JMP	_00008_DS_
                                           _00005_DS_
000f73   e104     MOVB	#0x04               	BANKSEL	_PALR_bits
000f74   6925     SET	0x25, 1              	SET	_PALR_bits, 1
000f75   cf77     JMP	#0xf77               	JMP	_00008_DS_
                                           _00006_DS_
                                           	BANKSEL	_P1LR_bits
000f76   6847     SET	0x47, 0              	SET	_P1LR_bits, 0
                                           _00008_DS_
000f77   0008     CRET                     	CRET	
                                           func._spi_init	.code
                                           _spi_init	;Function start
000f78   e101     MOVB	#0x01               	BANKSEL	_TR9_bits
000f79   6a29     SET	0x29, 2              	SET	_TR9_bits, 2
                                           	BANKSEL	_TR9_bits
000f7a   6129     CLR	0x29, 1              	CLR	_TR9_bits, 1
000f7b   e100     MOVB	#0x00               	BANKSEL	_TR0_bits
000f7c   6325     CLR	0x25, 3              	CLR	_TR0_bits, 3
                                           	BANKSEL	_TR0_bits
000f7d   6425     CLR	0x25, 4              	CLR	_TR0_bits, 4
000f7e   e101     MOVB	#0x01               	BANKSEL	_TR6_bits
000f7f   6226     CLR	0x26, 2              	CLR	_TR6_bits, 2
000f80   986e     MOV	R0, #0x6e            	MOV	R0,# 0x6e
000f81   e104     MOVB	#0x04               	BANKSEL	_APFCTL9
000f82   5165     MOV	0x65, R0             	MOV	_APFCTL9, R0
000f83   e102     MOVB	#0x02               	BANKSEL	_SSCI2CTL0_bits
000f84   6506     CLR	0x6, 5               	CLR	_SSCI2CTL0_bits, 5
000f85   9801     MOV	R0, #0x1             	MOV	R0,# 0x01
                                           	BANKSEL	_SSCI2CTL0
000f86   5106     MOV	0x6, R0              	MOV	_SSCI2CTL0, R0
                                           	BANKSEL	_SSCI2CTL1
000f87   031f     CLR	0x1f                 	CLR	_SSCI2CTL1
                                           	BANKSEL	_SSCI2CTL2
000f88   0309     CLR	0x9                  	CLR	_SSCI2CTL2
000f89   9840     MOV	R0, #0x40            	MOV	R0,# 0x40
                                           	BANKSEL	_SSCI2STA
000f8a   5105     MOV	0x5, R0              	MOV	_SSCI2STA, R0
                                           	BANKSEL	_SSCI2CTL0_bits
000f8b   6d06     SET	0x6, 5               	SET	_SSCI2CTL0_bits, 5
000f8c   e100     MOVB	#0x00               	BANKSEL	_P1LR_bits
000f8d   6a47     SET	0x47, 2              	SET	_P1LR_bits, 2
000f8e   e101     MOVB	#0x01               	BANKSEL	_P5LR_bits
000f8f   6d45     SET	0x45, 5              	SET	_P5LR_bits, 5
000f90   e100     MOVB	#0x00               	BANKSEL	_P0LR_bits
000f91   6c45     SET	0x45, 4              	SET	_P0LR_bits, 4
000f92   e101     MOVB	#0x01               	BANKSEL	_P6LR_bits
000f93   6a46     SET	0x46, 2              	SET	_P6LR_bits, 2
000f94   e100     MOVB	#0x00               	BANKSEL	_P1LR_bits
000f95   6847     SET	0x47, 0              	SET	_P1LR_bits, 0
000f96   e104     MOVB	#0x04               	BANKSEL	_PALR_bits
000f97   6925     SET	0x25, 1              	SET	_PALR_bits, 1
000f98   0008     CRET                     	CRET	
                                           	.end
                                           	.radix dec
                                           	.include "KF8A100GQS.inc"
                                           func._Timer10_Init	.code
                                           _Timer10_Init	;Function start
                                           	MOV	R0,# 0x96
                                           	BANKSEL	_T10CTL0
                                           	MOV	_T10CTL0, R0
                                           	BANKSEL	_T10CTL1
                                           	CLR	_T10CTL1
                                           	BANKSEL	_T10H
                                           	CLR	_T10H
                                           	BANKSEL	_T10L
                                           	CLR	_T10L
                                           	MOV	R0,# 0x01
                                           	BANKSEL	_PP5H
                                           	MOV	_PP5H, R0
                                           	MOV	R0,# 0x8f
                                           	BANKSEL	_PP5L
                                           	MOV	_PP5L, R0
                                           	BANKSEL	_T10CTL1_bits
                                           	SET	_T10CTL1_bits, 2
                                           	BANKSEL	_EIF8_bits
                                           	CLR	_EIF8_bits, 5
                                           	BANKSEL	_EIE8_bits
                                           	SET	_EIE8_bits, 5
                                           	CRET	
                                           func._Timer8_Init	.code
                                           _Timer8_Init	;Function start
                                           	MOV	R0,# 0x4a
                                           	BANKSEL	_T8CTL
                                           	MOV	_T8CTL, R0
                                           	MOV	R0,# 0x01
                                           	BANKSEL	_T8CTL1
                                           	MOV	_T8CTL1, R0
                                           	BANKSEL	_T8H
                                           	CLR	_T8H
                                           	BANKSEL	_T8L
                                           	CLR	_T8L
                                           	MOV	R0,# 0x01
                                           	BANKSEL	_PP3H
                                           	MOV	_PP3H, R0
                                           	MOV	R0,# 0x8f
                                           	BANKSEL	_PP3L
                                           	MOV	_PP3L, R0
                                           	BANKSEL	_EIF8_bits
                                           	CLR	_EIF8_bits, 3
                                           	BANKSEL	_EIE8_bits
                                           	SET	_EIE8_bits, 3
                                           	BANKSEL	_T8CTL_bits
                                           	SET	_T8CTL_bits, 2
                                           	CRET	
                                           func._Timer5_Init	.code
                                           _Timer5_Init	;Function start
                                           	MOV	R0,# 0x4a
                                           	BANKSEL	_T5CTL0
                                           	MOV	_T5CTL0, R0
                                           	MOV	R0,# 0x02
                                           	BANKSEL	_T5CTL1
                                           	MOV	_T5CTL1, R0
                                           	BANKSEL	_T5H
                                           	CLR	_T5H
                                           	BANKSEL	_T5L
                                           	CLR	_T5L
                                           	MOV	R0,# 0x01
                                           	BANKSEL	_PP70H
                                           	MOV	_PP70H, R0
                                           	MOV	R0,# 0x8f
                                           	BANKSEL	_PP70L
                                           	MOV	_PP70L, R0
                                           	BANKSEL	_T5CTL0_bits
                                           	SET	_T5CTL0_bits, 2
                                           	BANKSEL	_EIF5_bits
                                           	CLR	_EIF5_bits, 5
                                           	BANKSEL	_EIE5_bits
                                           	SET	_EIE5_bits, 5
                                           	CRET	
                                           func._Timer3_Init	.code
                                           _Timer3_Init	;Function start
                                           	MOV	R0,# 0xb0
                                           	BANKSEL	_T3CTL
                                           	MOV	_T3CTL, R0
                                           	BANKSEL	_T3H
                                           	CLR	_T3H
                                           	BANKSEL	_T3L
                                           	CLR	_T3L
                                           	MOV	R0,# 0x07
                                           	BANKSEL	_T3REH
                                           	MOV	_T3REH, R0
                                           	MOV	R0,# 0xcf
                                           	BANKSEL	_T3REL
                                           	MOV	_T3REL, R0
                                           	BANKSEL	_T3CTL_bits
                                           	SET	_T3CTL_bits, 0
                                           	BANKSEL	_EIF1_bits
                                           	CLR	_EIF1_bits, 7
                                           	BANKSEL	_EIE1_bits
                                           	SET	_EIE1_bits, 7
                                           	CRET	
                                           func._Timer2_Init	.code
                                           _Timer2_Init	;Function start
000fa9   e100     MOVB	#0x00               	BANKSEL	_T2CTL0
000faa   0312     CLR	0x12                 	CLR	_T2CTL0
000fab   9802     MOV	R0, #0x2             	MOV	R0,# 0x02
                                           	BANKSEL	_T2CTL1
000fac   5151     MOV	0x51, R0             	MOV	_T2CTL1, R0
                                           	BANKSEL	_T2H
000fad   0341     CLR	0x41                 	CLR	_T2H
                                           	BANKSEL	_T2L
000fae   0311     CLR	0x11                 	CLR	_T2L
000faf   9811     MOV	R0, #0x11            	MOV	R0,# 0x11
                                           	BANKSEL	_PP60H
000fb0   5142     MOV	0x42, R0             	MOV	_PP60H, R0
000fb1   987f     MOV	R0, #0x7f            	MOV	R0,# 0x7f
                                           	BANKSEL	_PP60L
000fb2   5152     MOV	0x52, R0             	MOV	_PP60L, R0
                                           	BANKSEL	_T2CTL0_bits
000fb3   6a12     SET	0x12, 2              	SET	_T2CTL0_bits, 2
                                           	BANKSEL	_EIF1_bits
000fb4   610c     CLR	0xc, 1               	CLR	_EIF1_bits, 1
                                           	BANKSEL	_EIE1_bits
000fb5   692c     SET	0x2c, 1              	SET	_EIE1_bits, 1
000fb6   0008     CRET                     	CRET	
                                           func._Timer1_Init	.code
                                           _Timer1_Init	;Function start
000fb7   e101     MOVB	#0x01               	BANKSEL	_T1CTL2
000fb8   0318     CLR	0x18                 	CLR	_T1CTL2
000fb9   98f1     MOV	R0, #0xf1            	MOV	R0,# 0xf1
000fba   e100     MOVB	#0x00               	BANKSEL	_T1H
000fbb   510f     MOV	0xf, R0              	MOV	_T1H, R0
000fbc   98a9     MOV	R0, #0xa9            	MOV	R0,# 0xa9
                                           	BANKSEL	_T1L
000fbd   510e     MOV	0xe, R0              	MOV	_T1L, R0
000fbe   9801     MOV	R0, #0x1             	MOV	R0,# 0x01
                                           	BANKSEL	_T1CTL
000fbf   5110     MOV	0x10, R0             	MOV	_T1CTL, R0
                                           	BANKSEL	_EIF1_bits
000fc0   600c     CLR	0xc, 0               	CLR	_EIF1_bits, 0
                                           	BANKSEL	_EIE1_bits
000fc1   682c     SET	0x2c, 0              	SET	_EIE1_bits, 0
000fc2   0008     CRET                     	CRET	
                                           func._Timer0_Init	.code
                                           _Timer0_Init	;Function start
000fc3   0064     CWDT                     	CWDT 
000fc4   9803     MOV	R0, #0x3             	MOV	R0,# 0x03
000fc5   e100     MOVB	#0x00               	BANKSEL	_OPTR
000fc6   5121     MOV	0x21, R0             	MOV	_OPTR, R0
                                           	BANKSEL	_T0CTL
000fc7   034f     CLR	0x4f                 	CLR	_T0CTL
                                           	BANKSEL	_T0
000fc8   0301     CLR	0x1                  	CLR	_T0
                                           	BANKSEL	_INTCTL_bits
000fc9   620b     CLR	0xb, 2               	CLR	_INTCTL_bits, 2
                                           	BANKSEL	_INTCTL_bits
000fca   6d0b     SET	0xb, 5               	SET	_INTCTL_bits, 5
000fcb   0008     CRET                     	CRET	
                                           	.end
                                           	.radix dec
                                           	.include "KF8A100GQS.inc"
                                           ID_Work_0	.idata
                                           _PastMode
                                           	.db	0x00, 0x00
                                           ID_Work_1	.idata
                                           _NowMode
                                           	.db	0x00, 0x00
                                           ID_Work_2	.idata
                                           _ActMode
                                           	.db	0x00, 0x00
                                           ID_Work_3	.idata
                                           _RT_PastMode
                                           	.db	0x00, 0x00
                                           ID_Work_4	.idata
                                           _RT_NowMode
                                           	.db	0x00, 0x00
                                           ID_Work_5	.idata
                                           _RT_ActMode
                                           	.db	0x00, 0x00
                                           ID_Work_6	.idata
                                           _PWM_Timer_Flag
                                           	.db	0x00
                                           ID_Work_7	.idata
                                           _Stop_Low_Addr
                                           	.db	0x00, 0x00
                                           ID_Work_8	.idata
                                           _RT_EN_Status
                                           	.db	0x00
                                           func._Led_Hello_Check	.code
                                           _Led_Hello_Check	;Function start
000a69   e100     MOVB	#0x00               	BANKSEL	r0x101F
000a6a   0386     CLR	0x86                 	CLR	r0x101F
000a6b   e101     MOVB	#0x01               	BANKSEL	_P7_bits
000a6c   7907     JB	0x7, 1                	JB	_P7_bits, 1
000a6d   ca70     JMP	#0xa70               	JMP	_00230_DS_
000a6e   e100     MOVB	#0x00               	BANKSEL	r0x101F
000a6f   0b86     INC	0x86                 	INC	r0x101F
                                           _00230_DS_
000a70   e100     MOVB	#0x00               	BANKSEL	r0x101F
000a71   0e86     MOVZ	R0, 0x86            	MOVZ	R0, r0x101F
                                           	BANKSEL	_Tail_Status
000a72   518f     MOV	0x8f, R0             	MOV	_Tail_Status, R0
                                           	BANKSEL	r0x101F
000a73   0386     CLR	0x86                 	CLR	r0x101F
000a74   e101     MOVB	#0x01               	BANKSEL	_P7_bits
000a75   7a07     JB	0x7, 2                	JB	_P7_bits, 2
000a76   ca79     JMP	#0xa79               	JMP	_00231_DS_
000a77   e100     MOVB	#0x00               	BANKSEL	r0x101F
000a78   0b86     INC	0x86                 	INC	r0x101F
                                           _00231_DS_
000a79   e100     MOVB	#0x00               	BANKSEL	r0x101F
000a7a   0e86     MOVZ	R0, 0x86            	MOVZ	R0, r0x101F
                                           	BANKSEL	_Stop_Status
000a7b   518e     MOV	0x8e, R0             	MOV	_Stop_Status, R0
                                           	BANKSEL	r0x101F
000a7c   0386     CLR	0x86                 	CLR	r0x101F
000a7d   e104     MOVB	#0x04               	BANKSEL	_PA_bits
000a7e   7824     JB	0x24, 0               	JB	_PA_bits, 0
000a7f   ca82     JMP	#0xa82               	JMP	_00232_DS_
000a80   e100     MOVB	#0x00               	BANKSEL	r0x101F
000a81   0b86     INC	0x86                 	INC	r0x101F
                                           _00232_DS_
000a82   e100     MOVB	#0x00               	BANKSEL	r0x101F
000a83   0e86     MOVZ	R0, 0x86            	MOVZ	R0, r0x101F
                                           	BANKSEL	_RT_Status
000a84   518d     MOV	0x8d, R0             	MOV	_RT_Status, R0
                                           	BANKSEL	r0x101F
000a85   0386     CLR	0x86                 	CLR	r0x101F
000a86   e101     MOVB	#0x01               	BANKSEL	_P5_bits
000a87   7905     JB	0x5, 1                	JB	_P5_bits, 1
000a88   ca8b     JMP	#0xa8b               	JMP	_00233_DS_
000a89   e100     MOVB	#0x00               	BANKSEL	r0x101F
000a8a   0b86     INC	0x86                 	INC	r0x101F
                                           _00233_DS_
000a8b   e100     MOVB	#0x00               	BANKSEL	r0x101F
000a8c   0e86     MOVZ	R0, 0x86            	MOVZ	R0, r0x101F
                                           	BANKSEL	_RT_EN_Status
000a8d   5184     MOV	0x84, R0             	MOV	_RT_EN_Status, R0
                                           	BANKSEL	_Tail_Status
000a8e   0e8f     MOVZ	R0, 0x8f            	MOVZ	R0, _Tail_Status
000a8f   a801     XOR	R0, #0x1             	XOR	R0,# 0x01
000a90   7a03     JB	0x3, 2                	JB	PSW, 2
000a91   caa5     JMP	#0xaa5               	JMP	_00211_DS_
                                           	BANKSEL	_Stop_Status
000a92   0e8e     MOVZ	R0, 0x8e            	MOVZ	R0, _Stop_Status
000a93   a801     XOR	R0, #0x1             	XOR	R0,# 0x01
000a94   7a03     JB	0x3, 2                	JB	PSW, 2
000a95   caa5     JMP	#0xaa5               	JMP	_00211_DS_
                                           	BANKSEL	_RT_Status
000a96   0e8d     MOVZ	R0, 0x8d            	MOVZ	R0, _RT_Status
000a97   a801     XOR	R0, #0x1             	XOR	R0,# 0x01
000a98   7a03     JB	0x3, 2                	JB	PSW, 2
000a99   caa5     JMP	#0xaa5               	JMP	_00211_DS_
000a9a   9800     MOV	R0, #0               	MOV	R0,# 0x00
                                           	BANKSEL	_RT_EN_Status
000a9b   3084     ORL	R0, 0x84             	ORL	R0, _RT_EN_Status
000a9c   7a03     JB	0x3, 2                	JB	PSW, 2
000a9d   caa5     JMP	#0xaa5               	JMP	_00211_DS_
000a9e   9f05     MOV	R7, #0x5             	TRAPPC1	_Led_Hello
000a9f   5f73     MOV	0x73, R7             	TRAPPC2	_Led_Hello
000aa0   e005     MOVP	#0x05               	PAGESEL	_Led_Hello
000aa1   d55e     CALL	#0x55e              	CALL	_Led_Hello
000aa2   9f0a     MOV	R7, #0xa             	TRAPPC1	$+2
000aa3   5f73     MOV	0x73, R7             	TRAPPC2	$+1
000aa4   e00a     MOVP	#0x0A               	PAGESEL	$
                                           _00211_DS_
000aa5   e100     MOVB	#0x00               	BANKSEL	_Tail_Status
000aa6   0e8f     MOVZ	R0, 0x8f            	MOVZ	R0, _Tail_Status
000aa7   a801     XOR	R0, #0x1             	XOR	R0,# 0x01
000aa8   7a03     JB	0x3, 2                	JB	PSW, 2
000aa9   cabd     JMP	#0xabd               	JMP	_00220_DS_
                                           	BANKSEL	_Stop_Status
000aaa   0e8e     MOVZ	R0, 0x8e            	MOVZ	R0, _Stop_Status
000aab   a801     XOR	R0, #0x1             	XOR	R0,# 0x01
000aac   7a03     JB	0x3, 2                	JB	PSW, 2
000aad   cabd     JMP	#0xabd               	JMP	_00220_DS_
                                           	BANKSEL	_RT_Status
000aae   0e8d     MOVZ	R0, 0x8d            	MOVZ	R0, _RT_Status
000aaf   a801     XOR	R0, #0x1             	XOR	R0,# 0x01
000ab0   7a03     JB	0x3, 2                	JB	PSW, 2
000ab1   cabd     JMP	#0xabd               	JMP	_00220_DS_
                                           	BANKSEL	_RT_EN_Status
000ab2   0e84     MOVZ	R0, 0x84            	MOVZ	R0, _RT_EN_Status
000ab3   a801     XOR	R0, #0x1             	XOR	R0,# 0x01
000ab4   7a03     JB	0x3, 2                	JB	PSW, 2
000ab5   cabd     JMP	#0xabd               	JMP	_00220_DS_
000ab6   9f06     MOV	R7, #0x6             	TRAPPC1	_Led_Bye
000ab7   5f73     MOV	0x73, R7             	TRAPPC2	_Led_Bye
000ab8   e006     MOVP	#0x06               	PAGESEL	_Led_Bye
000ab9   d66a     CALL	#0x66a              	CALL	_Led_Bye
000aba   9f0a     MOV	R7, #0xa             	TRAPPC1	$+2
000abb   5f73     MOV	0x73, R7             	TRAPPC2	$+1
000abc   e00a     MOVP	#0x0A               	PAGESEL	$
                                           _00220_DS_
000abd   0008     CRET                     	CRET	
                                           func._Led_Bye	.code
                                           _Led_Bye	;Function start
00066a   9f0b     MOV	R7, #0xb             	TRAPPC1	_Led_Tail_AllOpen
00066b   5f73     MOV	0x73, R7             	TRAPPC2	_Led_Tail_AllOpen
00066c   e00b     MOVP	#0x0B               	PAGESEL	_Led_Tail_AllOpen
00066d   db9d     CALL	#0xb9d              	CALL	_Led_Tail_AllOpen
00066e   9f06     MOV	R7, #0x6             	TRAPPC1	$+2
00066f   5f73     MOV	0x73, R7             	TRAPPC2	$+1
000670   e006     MOVP	#0x06               	PAGESEL	$
000671   9f0f     MOV	R7, #0xf             	TRAPPC1	_LED_Stop_AllOpen
000672   5f73     MOV	0x73, R7             	TRAPPC2	_LED_Stop_AllOpen
000673   e00f     MOVP	#0x0F               	PAGESEL	_LED_Stop_AllOpen
000674   dfeb     CALL	#0xfeb              	CALL	_LED_Stop_AllOpen
000675   9f06     MOV	R7, #0x6             	TRAPPC1	$+2
000676   5f73     MOV	0x73, R7             	TRAPPC2	$+1
000677   e006     MOVP	#0x06               	PAGESEL	$
000678   98e8     MOV	R0, #0xe8            	MOV	R0,# 0xe8
000679   e100     MOVB	#0x00               	BANKSEL	STK00
00067a   51f0     MOV	0xf0, R0             	MOV	STK00, R0
00067b   9803     MOV	R0, #0x3             	MOV	R0,# 0x03
00067c   9f0f     MOV	R7, #0xf             	TRAPPC1	_delay_ms
00067d   5f73     MOV	0x73, R7             	TRAPPC2	_delay_ms
00067e   e00f     MOVP	#0x0F               	PAGESEL	_delay_ms
00067f   df0e     CALL	#0xf0e              	CALL	_delay_ms
000680   9f06     MOV	R7, #0x6             	TRAPPC1	$+2
000681   5f73     MOV	0x73, R7             	TRAPPC2	$+1
000682   e006     MOVP	#0x06               	PAGESEL	$
000683   9f02     MOV	R7, #0x2             	TRAPPC1	_Led_RT_WaterOpen
000684   5f73     MOV	0x73, R7             	TRAPPC2	_Led_RT_WaterOpen
000685   e002     MOVP	#0x02               	PAGESEL	_Led_RT_WaterOpen
000686   d2ec     CALL	#0x2ec              	CALL	_Led_RT_WaterOpen
000687   9f06     MOV	R7, #0x6             	TRAPPC1	$+2
000688   5f73     MOV	0x73, R7             	TRAPPC2	$+1
000689   e006     MOVP	#0x06               	PAGESEL	$
00068a   98c8     MOV	R0, #0xc8            	MOV	R0,# 0xc8
00068b   e100     MOVB	#0x00               	BANKSEL	STK00
00068c   51f0     MOV	0xf0, R0             	MOV	STK00, R0
00068d   9800     MOV	R0, #0               	MOV	R0,# 0x00
00068e   9f0f     MOV	R7, #0xf             	TRAPPC1	_delay_ms
00068f   5f73     MOV	0x73, R7             	TRAPPC2	_delay_ms
000690   e00f     MOVP	#0x0F               	PAGESEL	_delay_ms
000691   df0e     CALL	#0xf0e              	CALL	_delay_ms
000692   9f06     MOV	R7, #0x6             	TRAPPC1	$+2
000693   5f73     MOV	0x73, R7             	TRAPPC2	$+1
000694   e006     MOVP	#0x06               	PAGESEL	$
000695   9f0b     MOV	R7, #0xb             	TRAPPC1	_Led_RT_AllClose
000696   5f73     MOV	0x73, R7             	TRAPPC2	_Led_RT_AllClose
000697   e00b     MOVP	#0x0B               	PAGESEL	_Led_RT_AllClose
000698   dbe3     CALL	#0xbe3              	CALL	_Led_RT_AllClose
000699   9f06     MOV	R7, #0x6             	TRAPPC1	$+2
00069a   5f73     MOV	0x73, R7             	TRAPPC2	$+1
00069b   e006     MOVP	#0x06               	PAGESEL	$
00069c   98c8     MOV	R0, #0xc8            	MOV	R0,# 0xc8
00069d   e100     MOVB	#0x00               	BANKSEL	STK00
00069e   51f0     MOV	0xf0, R0             	MOV	STK00, R0
00069f   9800     MOV	R0, #0               	MOV	R0,# 0x00
0006a0   9f0f     MOV	R7, #0xf             	TRAPPC1	_delay_ms
0006a1   5f73     MOV	0x73, R7             	TRAPPC2	_delay_ms
0006a2   e00f     MOVP	#0x0F               	PAGESEL	_delay_ms
0006a3   df0e     CALL	#0xf0e              	CALL	_delay_ms
0006a4   9f06     MOV	R7, #0x6             	TRAPPC1	$+2
0006a5   5f73     MOV	0x73, R7             	TRAPPC2	$+1
0006a6   e006     MOVP	#0x06               	PAGESEL	$
0006a7   9f04     MOV	R7, #0x4             	TRAPPC1	_Tail_LowWater_Blinky
0006a8   5f73     MOV	0x73, R7             	TRAPPC2	_Tail_LowWater_Blinky
0006a9   e004     MOVP	#0x04               	PAGESEL	_Tail_LowWater_Blinky
0006aa   d435     CALL	#0x435              	CALL	_Tail_LowWater_Blinky
0006ab   9f06     MOV	R7, #0x6             	TRAPPC1	$+2
0006ac   5f73     MOV	0x73, R7             	TRAPPC2	$+1
0006ad   e006     MOVP	#0x06               	PAGESEL	$
0006ae   98c8     MOV	R0, #0xc8            	MOV	R0,# 0xc8
0006af   e100     MOVB	#0x00               	BANKSEL	STK00
0006b0   51f0     MOV	0xf0, R0             	MOV	STK00, R0
0006b1   9800     MOV	R0, #0               	MOV	R0,# 0x00
0006b2   9f0f     MOV	R7, #0xf             	TRAPPC1	_delay_ms
0006b3   5f73     MOV	0x73, R7             	TRAPPC2	_delay_ms
0006b4   e00f     MOVP	#0x0F               	PAGESEL	_delay_ms
0006b5   df0e     CALL	#0xf0e              	CALL	_delay_ms
0006b6   9f06     MOV	R7, #0x6             	TRAPPC1	$+2
0006b7   5f73     MOV	0x73, R7             	TRAPPC2	$+1
0006b8   e006     MOVP	#0x06               	PAGESEL	$
0006b9   9f05     MOV	R7, #0x5             	TRAPPC1	_Tail1_2_Stop_BackWater_Close
0006ba   5f73     MOV	0x73, R7             	TRAPPC2	_Tail1_2_Stop_BackWater_Close
0006bb   e005     MOVP	#0x05               	PAGESEL	_Tail1_2_Stop_BackWater_Close
0006bc   d5e8     CALL	#0x5e8              	CALL	_Tail1_2_Stop_BackWater_Close
0006bd   9f06     MOV	R7, #0x6             	TRAPPC1	$+2
0006be   5f73     MOV	0x73, R7             	TRAPPC2	$+1
0006bf   e006     MOVP	#0x06               	PAGESEL	$
0006c0   9f0c     MOV	R7, #0xc             	TRAPPC1	_Tail12_Breath_CloseTo10
0006c1   5f73     MOV	0x73, R7             	TRAPPC2	_Tail12_Breath_CloseTo10
0006c2   e00c     MOVP	#0x0C               	PAGESEL	_Tail12_Breath_CloseTo10
0006c3   dcb3     CALL	#0xcb3              	CALL	_Tail12_Breath_CloseTo10
0006c4   9f06     MOV	R7, #0x6             	TRAPPC1	$+2
0006c5   5f73     MOV	0x73, R7             	TRAPPC2	$+1
0006c6   e006     MOVP	#0x06               	PAGESEL	$
0006c7   9f00     MOV	R7, #0               	TRAPPC1	_Tail1_2_Stop_FullWater_Close
0006c8   5f73     MOV	0x73, R7             	TRAPPC2	_Tail1_2_Stop_FullWater_Close
0006c9   e000     MOVP	#0x00               	PAGESEL	_Tail1_2_Stop_FullWater_Close
0006ca   d010     CALL	#0x10               	CALL	_Tail1_2_Stop_FullWater_Close
0006cb   9f06     MOV	R7, #0x6             	TRAPPC1	$+2
0006cc   5f73     MOV	0x73, R7             	TRAPPC2	$+1
0006cd   e006     MOVP	#0x06               	PAGESEL	$
0006ce   98d0     MOV	R0, #0xd0            	MOV	R0,# 0xd0
0006cf   e100     MOVB	#0x00               	BANKSEL	STK00
0006d0   51f0     MOV	0xf0, R0             	MOV	STK00, R0
0006d1   9807     MOV	R0, #0x7             	MOV	R0,# 0x07
0006d2   9f0f     MOV	R7, #0xf             	TRAPPC1	_delay_ms
0006d3   5f73     MOV	0x73, R7             	TRAPPC2	_delay_ms
0006d4   e00f     MOVP	#0x0F               	PAGESEL	_delay_ms
0006d5   df0e     CALL	#0xf0e              	CALL	_delay_ms
0006d6   9f06     MOV	R7, #0x6             	TRAPPC1	$+2
0006d7   5f73     MOV	0x73, R7             	TRAPPC2	$+1
0006d8   e006     MOVP	#0x06               	PAGESEL	$
0006d9   9f0c     MOV	R7, #0xc             	TRAPPC1	_Tail12_Breath_Close
0006da   5f73     MOV	0x73, R7             	TRAPPC2	_Tail12_Breath_Close
0006db   e00c     MOVP	#0x0C               	PAGESEL	_Tail12_Breath_Close
0006dc   dcee     CALL	#0xcee              	CALL	_Tail12_Breath_Close
0006dd   9f06     MOV	R7, #0x6             	TRAPPC1	$+2
0006de   5f73     MOV	0x73, R7             	TRAPPC2	$+1
0006df   e006     MOVP	#0x06               	PAGESEL	$
                                           _00205_DS_
0006e0   c6e0     JMP	#0x6e0               	JMP	_00205_DS_
0006e1   0008     CRET                     	CRET	
                                           func._Led_Hello	.code
                                           _Led_Hello	;Function start
00055e   9f02     MOV	R7, #0x2             	TRAPPC1	_Led_RT_WaterOpen
00055f   5f73     MOV	0x73, R7             	TRAPPC2	_Led_RT_WaterOpen
000560   e002     MOVP	#0x02               	PAGESEL	_Led_RT_WaterOpen
000561   d2ec     CALL	#0x2ec              	CALL	_Led_RT_WaterOpen
000562   9f05     MOV	R7, #0x5             	TRAPPC1	$+2
000563   5f73     MOV	0x73, R7             	TRAPPC2	$+1
000564   e005     MOVP	#0x05               	PAGESEL	$
000565   98c8     MOV	R0, #0xc8            	MOV	R0,# 0xc8
000566   e100     MOVB	#0x00               	BANKSEL	STK00
000567   51f0     MOV	0xf0, R0             	MOV	STK00, R0
000568   9800     MOV	R0, #0               	MOV	R0,# 0x00
000569   9f0f     MOV	R7, #0xf             	TRAPPC1	_delay_ms
00056a   5f73     MOV	0x73, R7             	TRAPPC2	_delay_ms
00056b   e00f     MOVP	#0x0F               	PAGESEL	_delay_ms
00056c   df0e     CALL	#0xf0e              	CALL	_delay_ms
00056d   9f05     MOV	R7, #0x5             	TRAPPC1	$+2
00056e   5f73     MOV	0x73, R7             	TRAPPC2	$+1
00056f   e005     MOVP	#0x05               	PAGESEL	$
000570   9f0b     MOV	R7, #0xb             	TRAPPC1	_Led_RT_AllClose
000571   5f73     MOV	0x73, R7             	TRAPPC2	_Led_RT_AllClose
000572   e00b     MOVP	#0x0B               	PAGESEL	_Led_RT_AllClose
000573   dbe3     CALL	#0xbe3              	CALL	_Led_RT_AllClose
000574   9f05     MOV	R7, #0x5             	TRAPPC1	$+2
000575   5f73     MOV	0x73, R7             	TRAPPC2	$+1
000576   e005     MOVP	#0x05               	PAGESEL	$
000577   982c     MOV	R0, #0x2c            	MOV	R0,# 0x2c
000578   e100     MOVB	#0x00               	BANKSEL	STK00
000579   51f0     MOV	0xf0, R0             	MOV	STK00, R0
00057a   9801     MOV	R0, #0x1             	MOV	R0,# 0x01
00057b   9f0f     MOV	R7, #0xf             	TRAPPC1	_delay_ms
00057c   5f73     MOV	0x73, R7             	TRAPPC2	_delay_ms
00057d   e00f     MOVP	#0x0F               	PAGESEL	_delay_ms
00057e   df0e     CALL	#0xf0e              	CALL	_delay_ms
00057f   9f05     MOV	R7, #0x5             	TRAPPC1	$+2
000580   5f73     MOV	0x73, R7             	TRAPPC2	$+1
000581   e005     MOVP	#0x05               	PAGESEL	$
000582   9f02     MOV	R7, #0x2             	TRAPPC1	_Led_RT_WaterOpen
000583   5f73     MOV	0x73, R7             	TRAPPC2	_Led_RT_WaterOpen
000584   e002     MOVP	#0x02               	PAGESEL	_Led_RT_WaterOpen
000585   d2ec     CALL	#0x2ec              	CALL	_Led_RT_WaterOpen
000586   9f05     MOV	R7, #0x5             	TRAPPC1	$+2
000587   5f73     MOV	0x73, R7             	TRAPPC2	$+1
000588   e005     MOVP	#0x05               	PAGESEL	$
000589   98c8     MOV	R0, #0xc8            	MOV	R0,# 0xc8
00058a   e100     MOVB	#0x00               	BANKSEL	STK00
00058b   51f0     MOV	0xf0, R0             	MOV	STK00, R0
00058c   9800     MOV	R0, #0               	MOV	R0,# 0x00
00058d   9f0f     MOV	R7, #0xf             	TRAPPC1	_delay_ms
00058e   5f73     MOV	0x73, R7             	TRAPPC2	_delay_ms
00058f   e00f     MOVP	#0x0F               	PAGESEL	_delay_ms
000590   df0e     CALL	#0xf0e              	CALL	_delay_ms
000591   9f05     MOV	R7, #0x5             	TRAPPC1	$+2
000592   5f73     MOV	0x73, R7             	TRAPPC2	$+1
000593   e005     MOVP	#0x05               	PAGESEL	$
000594   9f0b     MOV	R7, #0xb             	TRAPPC1	_Led_RT_AllClose
000595   5f73     MOV	0x73, R7             	TRAPPC2	_Led_RT_AllClose
000596   e00b     MOVP	#0x0B               	PAGESEL	_Led_RT_AllClose
000597   dbe3     CALL	#0xbe3              	CALL	_Led_RT_AllClose
000598   9f05     MOV	R7, #0x5             	TRAPPC1	$+2
000599   5f73     MOV	0x73, R7             	TRAPPC2	$+1
00059a   e005     MOVP	#0x05               	PAGESEL	$
00059b   982c     MOV	R0, #0x2c            	MOV	R0,# 0x2c
00059c   e100     MOVB	#0x00               	BANKSEL	STK00
00059d   51f0     MOV	0xf0, R0             	MOV	STK00, R0
00059e   9801     MOV	R0, #0x1             	MOV	R0,# 0x01
00059f   9f0f     MOV	R7, #0xf             	TRAPPC1	_delay_ms
0005a0   5f73     MOV	0x73, R7             	TRAPPC2	_delay_ms
0005a1   e00f     MOVP	#0x0F               	PAGESEL	_delay_ms
0005a2   df0e     CALL	#0xf0e              	CALL	_delay_ms
0005a3   9f05     MOV	R7, #0x5             	TRAPPC1	$+2
0005a4   5f73     MOV	0x73, R7             	TRAPPC2	$+1
0005a5   e005     MOVP	#0x05               	PAGESEL	$
0005a6   9f0d     MOV	R7, #0xd             	TRAPPC1	_Tail12_Breath_Open
0005a7   5f73     MOV	0x73, R7             	TRAPPC2	_Tail12_Breath_Open
0005a8   e00d     MOVP	#0x0D               	PAGESEL	_Tail12_Breath_Open
0005a9   dd29     CALL	#0xd29              	CALL	_Tail12_Breath_Open
0005aa   9f05     MOV	R7, #0x5             	TRAPPC1	$+2
0005ab   5f73     MOV	0x73, R7             	TRAPPC2	$+1
0005ac   e005     MOVP	#0x05               	PAGESEL	$
0005ad   98c8     MOV	R0, #0xc8            	MOV	R0,# 0xc8
0005ae   e100     MOVB	#0x00               	BANKSEL	STK00
0005af   51f0     MOV	0xf0, R0             	MOV	STK00, R0
0005b0   9800     MOV	R0, #0               	MOV	R0,# 0x00
0005b1   9f0f     MOV	R7, #0xf             	TRAPPC1	_delay_ms
0005b2   5f73     MOV	0x73, R7             	TRAPPC2	_delay_ms
0005b3   e00f     MOVP	#0x0F               	PAGESEL	_delay_ms
0005b4   df0e     CALL	#0xf0e              	CALL	_delay_ms
0005b5   9f05     MOV	R7, #0x5             	TRAPPC1	$+2
0005b6   5f73     MOV	0x73, R7             	TRAPPC2	$+1
0005b7   e005     MOVP	#0x05               	PAGESEL	$
0005b8   9f0a     MOV	R7, #0xa             	TRAPPC1	_Tail_LowWater_Open
0005b9   5f73     MOV	0x73, R7             	TRAPPC2	_Tail_LowWater_Open
0005ba   e00a     MOVP	#0x0A               	PAGESEL	_Tail_LowWater_Open
0005bb   da0d     CALL	#0xa0d              	CALL	_Tail_LowWater_Open
0005bc   9f05     MOV	R7, #0x5             	TRAPPC1	$+2
0005bd   5f73     MOV	0x73, R7             	TRAPPC2	$+1
0005be   e005     MOVP	#0x05               	PAGESEL	$
0005bf   982c     MOV	R0, #0x2c            	MOV	R0,# 0x2c
0005c0   e100     MOVB	#0x00               	BANKSEL	STK00
0005c1   51f0     MOV	0xf0, R0             	MOV	STK00, R0
0005c2   9801     MOV	R0, #0x1             	MOV	R0,# 0x01
0005c3   9f0f     MOV	R7, #0xf             	TRAPPC1	_delay_ms
0005c4   5f73     MOV	0x73, R7             	TRAPPC2	_delay_ms
0005c5   e00f     MOVP	#0x0F               	PAGESEL	_delay_ms
0005c6   df0e     CALL	#0xf0e              	CALL	_delay_ms
0005c7   9f05     MOV	R7, #0x5             	TRAPPC1	$+2
0005c8   5f73     MOV	0x73, R7             	TRAPPC2	$+1
0005c9   e005     MOVP	#0x05               	PAGESEL	$
0005ca   9f03     MOV	R7, #0x3             	TRAPPC1	_Tail_HighWater_Open
0005cb   5f73     MOV	0x73, R7             	TRAPPC2	_Tail_HighWater_Open
0005cc   e003     MOVP	#0x03               	PAGESEL	_Tail_HighWater_Open
0005cd   d397     CALL	#0x397              	CALL	_Tail_HighWater_Open
0005ce   9f05     MOV	R7, #0x5             	TRAPPC1	$+2
0005cf   5f73     MOV	0x73, R7             	TRAPPC2	$+1
0005d0   e005     MOVP	#0x05               	PAGESEL	$
0005d1   9f09     MOV	R7, #0x9             	TRAPPC1	_Stop_HighBackWater_Open
0005d2   5f73     MOV	0x73, R7             	TRAPPC2	_Stop_HighBackWater_Open
0005d3   e009     MOVP	#0x09               	PAGESEL	_Stop_HighBackWater_Open
0005d4   d94e     CALL	#0x94e              	CALL	_Stop_HighBackWater_Open
0005d5   9f05     MOV	R7, #0x5             	TRAPPC1	$+2
0005d6   5f73     MOV	0x73, R7             	TRAPPC2	$+1
0005d7   e005     MOVP	#0x05               	PAGESEL	$
0005d8   9f0e     MOV	R7, #0xe             	TRAPPC1	_Tail1_FullBackWater_Open
0005d9   5f73     MOV	0x73, R7             	TRAPPC2	_Tail1_FullBackWater_Open
0005da   e00e     MOVP	#0x0E               	PAGESEL	_Tail1_FullBackWater_Open
0005db   de67     CALL	#0xe67              	CALL	_Tail1_FullBackWater_Open
0005dc   9f05     MOV	R7, #0x5             	TRAPPC1	$+2
0005dd   5f73     MOV	0x73, R7             	TRAPPC2	$+1
0005de   e005     MOVP	#0x05               	PAGESEL	$
0005df   9f0a     MOV	R7, #0xa             	TRAPPC1	_Tail2_Stop_FullWater_Open
0005e0   5f73     MOV	0x73, R7             	TRAPPC2	_Tail2_Stop_FullWater_Open
0005e1   e00a     MOVP	#0x0A               	PAGESEL	_Tail2_Stop_FullWater_Open
0005e2   dabe     CALL	#0xabe              	CALL	_Tail2_Stop_FullWater_Open
0005e3   9f05     MOV	R7, #0x5             	TRAPPC1	$+2
0005e4   5f73     MOV	0x73, R7             	TRAPPC2	$+1
0005e5   e005     MOVP	#0x05               	PAGESEL	$
                                           _00199_DS_
0005e6   c5e6     JMP	#0x5e6               	JMP	_00199_DS_
0005e7   0008     CRET                     	CRET	
                                           func._Timer_PWM_Callback	.code
                                           _Timer_PWM_Callback	;Function start
0006e2   9800     MOV	R0, #0               	MOV	R0,# 0x00
0006e3   e100     MOVB	#0x00               	BANKSEL	_PWM_Timer_Flag
0006e4   3085     ORL	R0, 0x85             	ORL	R0, _PWM_Timer_Flag
0006e5   7203     JNB	0x3, 2               	JNB	PSW, 2
0006e6   c71d     JMP	#0x71d               	JMP	_00169_DS_
                                           	BANKSEL	_PWM_Timer_Flag
0006e7   0385     CLR	0x85                 	CLR	_PWM_Timer_Flag
0006e8   98f1     MOV	R0, #0xf1            	MOV	R0,# 0xf1
                                           	BANKSEL	_T1H
0006e9   510f     MOV	0xf, R0              	MOV	_T1H, R0
0006ea   9860     MOV	R0, #0x60            	MOV	R0,# 0x60
                                           	BANKSEL	_T1L
0006eb   510e     MOV	0xe, R0              	MOV	_T1L, R0
                                           	BANKSEL	_Stop_High_Addr
0006ec   78d9     JB	0xd9, 0               	JB	_Stop_High_Addr, 0
0006ed   c6ef     JMP	#0x6ef               	JMP	_00234_DS_
                                           	BANKSEL	_P2LR_bits
0006ee   6346     CLR	0x46, 3              	CLR	_P2LR_bits, 3
                                           _00234_DS_
                                           	BANKSEL	_Stop_High_Addr
0006ef   79d9     JB	0xd9, 1               	JB	_Stop_High_Addr, 1
0006f0   c6f2     JMP	#0x6f2               	JMP	_00235_DS_
                                           	BANKSEL	_P2LR_bits
0006f1   6446     CLR	0x46, 4              	CLR	_P2LR_bits, 4
                                           _00235_DS_
                                           	BANKSEL	_Stop_High_Addr
0006f2   7ad9     JB	0xd9, 2               	JB	_Stop_High_Addr, 2
0006f3   c6f5     JMP	#0x6f5               	JMP	_00125_DS_
                                           	BANKSEL	_P2LR_bits
0006f4   6046     CLR	0x46, 0              	CLR	_P2LR_bits, 0
                                           _00125_DS_
                                           	BANKSEL	_Stop_High_Addr
0006f5   7bd9     JB	0xd9, 3               	JB	_Stop_High_Addr, 3
0006f6   c6f8     JMP	#0x6f8               	JMP	_00127_DS_
                                           	BANKSEL	_P2LR_bits
0006f7   6146     CLR	0x46, 1              	CLR	_P2LR_bits, 1
                                           _00127_DS_
                                           	BANKSEL	_Stop_High_Addr
0006f8   7cd9     JB	0xd9, 4               	JB	_Stop_High_Addr, 4
0006f9   c6fc     JMP	#0x6fc               	JMP	_00129_DS_
0006fa   e101     MOVB	#0x01               	BANKSEL	_P6LR_bits
0006fb   6146     CLR	0x46, 1              	CLR	_P6LR_bits, 1
                                           _00129_DS_
0006fc   e100     MOVB	#0x00               	BANKSEL	_Stop_High_Addr
0006fd   7dd9     JB	0xd9, 5               	JB	_Stop_High_Addr, 5
0006fe   c701     JMP	#0x701               	JMP	_00131_DS_
0006ff   e101     MOVB	#0x01               	BANKSEL	_P6LR_bits
000700   6346     CLR	0x46, 3              	CLR	_P6LR_bits, 3
                                           _00131_DS_
000701   e100     MOVB	#0x00               	BANKSEL	_Stop_High_Addr
000702   7ed9     JB	0xd9, 6               	JB	_Stop_High_Addr, 6
000703   c706     JMP	#0x706               	JMP	_00133_DS_
000704   e101     MOVB	#0x01               	BANKSEL	_P6LR_bits
000705   6546     CLR	0x46, 5              	CLR	_P6LR_bits, 5
                                           _00133_DS_
000706   e100     MOVB	#0x00               	BANKSEL	_Stop_High_Addr
000707   7fd9     JB	0xd9, 7               	JB	_Stop_High_Addr, 7
000708   c70b     JMP	#0x70b               	JMP	_00135_DS_
000709   e101     MOVB	#0x01               	BANKSEL	_P6LR_bits
00070a   6646     CLR	0x46, 6              	CLR	_P6LR_bits, 6
                                           _00135_DS_
00070b   e100     MOVB	#0x00               	BANKSEL	(_Stop_High_Addr + 1)
00070c   78da     JB	0xda, 0               	JB	(_Stop_High_Addr + 1), 0
00070d   c710     JMP	#0x710               	JMP	_00137_DS_
00070e   e101     MOVB	#0x01               	BANKSEL	_P9LR_bits
00070f   6549     CLR	0x49, 5              	CLR	_P9LR_bits, 5
                                           _00137_DS_
000710   e100     MOVB	#0x00               	BANKSEL	(_Stop_High_Addr + 1)
000711   79da     JB	0xda, 1               	JB	(_Stop_High_Addr + 1), 1
000712   c715     JMP	#0x715               	JMP	_00139_DS_
000713   e101     MOVB	#0x01               	BANKSEL	_P9LR_bits
000714   6449     CLR	0x49, 4              	CLR	_P9LR_bits, 4
                                           _00139_DS_
000715   e100     MOVB	#0x00               	BANKSEL	(_Stop_High_Addr + 1)
000716   7ada     JB	0xda, 2               	JB	(_Stop_High_Addr + 1), 2
000717   c719     JMP	#0x719               	JMP	_00141_DS_
                                           	BANKSEL	_P4LR_bits
000718   6349     CLR	0x49, 3              	CLR	_P4LR_bits, 3
                                           _00141_DS_
                                           	BANKSEL	(_Stop_High_Addr + 1)
000719   7bda     JB	0xda, 3               	JB	(_Stop_High_Addr + 1), 3
00071a   c753     JMP	#0x753               	JMP	_00171_DS_
                                           	BANKSEL	_P4LR_bits
00071b   6549     CLR	0x49, 5              	CLR	_P4LR_bits, 5
00071c   c753     JMP	#0x753               	JMP	_00171_DS_
                                           _00169_DS_
00071d   9801     MOV	R0, #0x1             	MOV	R0,# 0x01
                                           	BANKSEL	_PWM_Timer_Flag
00071e   5185     MOV	0x85, R0             	MOV	_PWM_Timer_Flag, R0
00071f   98ff     MOV	R0, #0xff            	MOV	R0,# 0xff
                                           	BANKSEL	_T1H
000720   510f     MOV	0xf, R0              	MOV	_T1H, R0
000721   9898     MOV	R0, #0x98            	MOV	R0,# 0x98
                                           	BANKSEL	_T1L
000722   510e     MOV	0xe, R0              	MOV	_T1L, R0
                                           	BANKSEL	_Stop_Low_Addr
000723   78c7     JB	0xc7, 0               	JB	_Stop_Low_Addr, 0
000724   c726     JMP	#0x726               	JMP	_00236_DS_
                                           	BANKSEL	_P2LR_bits
000725   6b46     SET	0x46, 3              	SET	_P2LR_bits, 3
                                           _00236_DS_
                                           	BANKSEL	_Stop_Low_Addr
000726   79c7     JB	0xc7, 1               	JB	_Stop_Low_Addr, 1
000727   c729     JMP	#0x729               	JMP	_00237_DS_
                                           	BANKSEL	_P2LR_bits
000728   6c46     SET	0x46, 4              	SET	_P2LR_bits, 4
                                           _00237_DS_
                                           	BANKSEL	_Stop_Low_Addr
000729   7ac7     JB	0xc7, 2               	JB	_Stop_Low_Addr, 2
00072a   c72c     JMP	#0x72c               	JMP	_00149_DS_
                                           	BANKSEL	_P2LR_bits
00072b   6846     SET	0x46, 0              	SET	_P2LR_bits, 0
                                           _00149_DS_
                                           	BANKSEL	_Stop_Low_Addr
00072c   7bc7     JB	0xc7, 3               	JB	_Stop_Low_Addr, 3
00072d   c72f     JMP	#0x72f               	JMP	_00151_DS_
                                           	BANKSEL	_P2LR_bits
00072e   6946     SET	0x46, 1              	SET	_P2LR_bits, 1
                                           _00151_DS_
                                           	BANKSEL	_Stop_Low_Addr
00072f   7cc7     JB	0xc7, 4               	JB	_Stop_Low_Addr, 4
000730   c733     JMP	#0x733               	JMP	_00153_DS_
000731   e101     MOVB	#0x01               	BANKSEL	_P6LR_bits
000732   6946     SET	0x46, 1              	SET	_P6LR_bits, 1
                                           _00153_DS_
000733   e100     MOVB	#0x00               	BANKSEL	_Stop_Low_Addr
000734   7dc7     JB	0xc7, 5               	JB	_Stop_Low_Addr, 5
000735   c738     JMP	#0x738               	JMP	_00155_DS_
000736   e101     MOVB	#0x01               	BANKSEL	_P6LR_bits
000737   6b46     SET	0x46, 3              	SET	_P6LR_bits, 3
                                           _00155_DS_
000738   e100     MOVB	#0x00               	BANKSEL	_Stop_Low_Addr
000739   7ec7     JB	0xc7, 6               	JB	_Stop_Low_Addr, 6
00073a   c73d     JMP	#0x73d               	JMP	_00157_DS_
00073b   e101     MOVB	#0x01               	BANKSEL	_P6LR_bits
00073c   6d46     SET	0x46, 5              	SET	_P6LR_bits, 5
                                           _00157_DS_
00073d   e100     MOVB	#0x00               	BANKSEL	_Stop_Low_Addr
00073e   7fc7     JB	0xc7, 7               	JB	_Stop_Low_Addr, 7
00073f   c742     JMP	#0x742               	JMP	_00159_DS_
000740   e101     MOVB	#0x01               	BANKSEL	_P6LR_bits
000741   6e46     SET	0x46, 6              	SET	_P6LR_bits, 6
                                           _00159_DS_
000742   e100     MOVB	#0x00               	BANKSEL	(_Stop_Low_Addr + 1)
000743   78c8     JB	0xc8, 0               	JB	(_Stop_Low_Addr + 1), 0
000744   c747     JMP	#0x747               	JMP	_00161_DS_
000745   e101     MOVB	#0x01               	BANKSEL	_P9LR_bits
000746   6d49     SET	0x49, 5              	SET	_P9LR_bits, 5
                                           _00161_DS_
000747   e100     MOVB	#0x00               	BANKSEL	(_Stop_Low_Addr + 1)
000748   79c8     JB	0xc8, 1               	JB	(_Stop_Low_Addr + 1), 1
000749   c74c     JMP	#0x74c               	JMP	_00163_DS_
00074a   e101     MOVB	#0x01               	BANKSEL	_P9LR_bits
00074b   6c49     SET	0x49, 4              	SET	_P9LR_bits, 4
                                           _00163_DS_
00074c   e100     MOVB	#0x00               	BANKSEL	(_Stop_Low_Addr + 1)
00074d   7ac8     JB	0xc8, 2               	JB	(_Stop_Low_Addr + 1), 2
00074e   c750     JMP	#0x750               	JMP	_00165_DS_
                                           	BANKSEL	_P4LR_bits
00074f   6b49     SET	0x49, 3              	SET	_P4LR_bits, 3
                                           _00165_DS_
                                           	BANKSEL	(_Stop_Low_Addr + 1)
000750   7bc8     JB	0xc8, 3               	JB	(_Stop_Low_Addr + 1), 3
000751   c753     JMP	#0x753               	JMP	_00171_DS_
                                           	BANKSEL	_P4LR_bits
000752   6d49     SET	0x49, 5              	SET	_P4LR_bits, 5
                                           _00171_DS_
000753   0008     CRET                     	CRET	
                                           func._Mode_Act	.code
                                           _Mode_Act	;Function start
0009af   e100     MOVB	#0x00               	BANKSEL	_ActMode
0009b0   0ecf     MOVZ	R0, 0xcf            	MOVZ	R0, _ActMode
0009b1   a801     XOR	R0, #0x1             	XOR	R0,# 0x01
0009b2   7a03     JB	0x3, 2                	JB	PSW, 2
0009b3   c9b8     JMP	#0x9b8               	JMP	_00116_DS_
                                           	BANKSEL	_ActMode
0009b4   0ed0     MOVZ	R0, 0xd0            	MOVZ	R0, (_ActMode + 1)
0009b5   a800     XOR	R0, #0               	XOR	R0,# 0x00
0009b6   7203     JNB	0x3, 2               	JNB	PSW, 2
0009b7   c9d1     JMP	#0x9d1               	JMP	_00104_DS_
                                           _00116_DS_
                                           	BANKSEL	_ActMode
0009b8   0ecf     MOVZ	R0, 0xcf            	MOVZ	R0, _ActMode
0009b9   a802     XOR	R0, #0x2             	XOR	R0,# 0x02
0009ba   7a03     JB	0x3, 2                	JB	PSW, 2
0009bb   c9c0     JMP	#0x9c0               	JMP	_00117_DS_
                                           	BANKSEL	_ActMode
0009bc   0ed0     MOVZ	R0, 0xd0            	MOVZ	R0, (_ActMode + 1)
0009bd   a800     XOR	R0, #0               	XOR	R0,# 0x00
0009be   7203     JNB	0x3, 2               	JNB	PSW, 2
0009bf   c9e0     JMP	#0x9e0               	JMP	_00105_DS_
                                           _00117_DS_
                                           	BANKSEL	_ActMode
0009c0   0ecf     MOVZ	R0, 0xcf            	MOVZ	R0, _ActMode
0009c1   a804     XOR	R0, #0x4             	XOR	R0,# 0x04
0009c2   7a03     JB	0x3, 2                	JB	PSW, 2
0009c3   c9c8     JMP	#0x9c8               	JMP	_00118_DS_
                                           	BANKSEL	_ActMode
0009c4   0ed0     MOVZ	R0, 0xd0            	MOVZ	R0, (_ActMode + 1)
0009c5   a800     XOR	R0, #0               	XOR	R0,# 0x00
0009c6   7203     JNB	0x3, 2               	JNB	PSW, 2
0009c7   c9ef     JMP	#0x9ef               	JMP	_00106_DS_
                                           _00118_DS_
                                           	BANKSEL	_ActMode
0009c8   0ecf     MOVZ	R0, 0xcf            	MOVZ	R0, _ActMode
0009c9   a808     XOR	R0, #0x8             	XOR	R0,# 0x08
0009ca   7a03     JB	0x3, 2                	JB	PSW, 2
0009cb   c9d0     JMP	#0x9d0               	JMP	_00119_DS_
                                           	BANKSEL	_ActMode
0009cc   0ed0     MOVZ	R0, 0xd0            	MOVZ	R0, (_ActMode + 1)
0009cd   a800     XOR	R0, #0               	XOR	R0,# 0x00
0009ce   7203     JNB	0x3, 2               	JNB	PSW, 2
0009cf   c9fe     JMP	#0x9fe               	JMP	_00107_DS_
                                           _00119_DS_
0009d0   ca0c     JMP	#0xa0c               	JMP	_00110_DS_
                                           _00104_DS_
0009d1   9f0b     MOV	R7, #0xb             	TRAPPC1	_Led_Tail_AllClose
0009d2   5f73     MOV	0x73, R7             	TRAPPC2	_Led_Tail_AllClose
0009d3   e00b     MOVP	#0x0B               	PAGESEL	_Led_Tail_AllClose
0009d4   db57     CALL	#0xb57              	CALL	_Led_Tail_AllClose
0009d5   9f09     MOV	R7, #0x9             	TRAPPC1	$+2
0009d6   5f73     MOV	0x73, R7             	TRAPPC2	$+1
0009d7   e009     MOVP	#0x09               	PAGESEL	$
0009d8   9f0f     MOV	R7, #0xf             	TRAPPC1	_LED_Stop_AllClose
0009d9   5f73     MOV	0x73, R7             	TRAPPC2	_LED_Stop_AllClose
0009da   e00f     MOVP	#0x0F               	PAGESEL	_LED_Stop_AllClose
0009db   dfe4     CALL	#0xfe4              	CALL	_LED_Stop_AllClose
0009dc   9f09     MOV	R7, #0x9             	TRAPPC1	$+2
0009dd   5f73     MOV	0x73, R7             	TRAPPC2	$+1
0009de   e009     MOVP	#0x09               	PAGESEL	$
0009df   ca0c     JMP	#0xa0c               	JMP	_00110_DS_
                                           _00105_DS_
0009e0   9f0b     MOV	R7, #0xb             	TRAPPC1	_Led_Tail_AllOpen
0009e1   5f73     MOV	0x73, R7             	TRAPPC2	_Led_Tail_AllOpen
0009e2   e00b     MOVP	#0x0B               	PAGESEL	_Led_Tail_AllOpen
0009e3   db9d     CALL	#0xb9d              	CALL	_Led_Tail_AllOpen
0009e4   9f09     MOV	R7, #0x9             	TRAPPC1	$+2
0009e5   5f73     MOV	0x73, R7             	TRAPPC2	$+1
0009e6   e009     MOVP	#0x09               	PAGESEL	$
0009e7   9f0f     MOV	R7, #0xf             	TRAPPC1	_LED_Stop_PWMOpen
0009e8   5f73     MOV	0x73, R7             	TRAPPC2	_LED_Stop_PWMOpen
0009e9   e00f     MOVP	#0x0F               	PAGESEL	_LED_Stop_PWMOpen
0009ea   dfcc     CALL	#0xfcc              	CALL	_LED_Stop_PWMOpen
0009eb   9f09     MOV	R7, #0x9             	TRAPPC1	$+2
0009ec   5f73     MOV	0x73, R7             	TRAPPC2	$+1
0009ed   e009     MOVP	#0x09               	PAGESEL	$
0009ee   ca0c     JMP	#0xa0c               	JMP	_00110_DS_
                                           _00106_DS_
0009ef   9f0b     MOV	R7, #0xb             	TRAPPC1	_Led_Tail_AllClose
0009f0   5f73     MOV	0x73, R7             	TRAPPC2	_Led_Tail_AllClose
0009f1   e00b     MOVP	#0x0B               	PAGESEL	_Led_Tail_AllClose
0009f2   db57     CALL	#0xb57              	CALL	_Led_Tail_AllClose
0009f3   9f09     MOV	R7, #0x9             	TRAPPC1	$+2
0009f4   5f73     MOV	0x73, R7             	TRAPPC2	$+1
0009f5   e009     MOVP	#0x09               	PAGESEL	$
0009f6   9f0f     MOV	R7, #0xf             	TRAPPC1	_LED_Stop_AllOpen
0009f7   5f73     MOV	0x73, R7             	TRAPPC2	_LED_Stop_AllOpen
0009f8   e00f     MOVP	#0x0F               	PAGESEL	_LED_Stop_AllOpen
0009f9   dfeb     CALL	#0xfeb              	CALL	_LED_Stop_AllOpen
0009fa   9f09     MOV	R7, #0x9             	TRAPPC1	$+2
0009fb   5f73     MOV	0x73, R7             	TRAPPC2	$+1
0009fc   e009     MOVP	#0x09               	PAGESEL	$
0009fd   ca0c     JMP	#0xa0c               	JMP	_00110_DS_
                                           _00107_DS_
0009fe   9f0b     MOV	R7, #0xb             	TRAPPC1	_Led_Tail_AllOpen
0009ff   5f73     MOV	0x73, R7             	TRAPPC2	_Led_Tail_AllOpen
000a00   e00b     MOVP	#0x0B               	PAGESEL	_Led_Tail_AllOpen
000a01   db9d     CALL	#0xb9d              	CALL	_Led_Tail_AllOpen
000a02   9f0a     MOV	R7, #0xa             	TRAPPC1	$+2
000a03   5f73     MOV	0x73, R7             	TRAPPC2	$+1
000a04   e00a     MOVP	#0x0A               	PAGESEL	$
000a05   9f0f     MOV	R7, #0xf             	TRAPPC1	_LED_Stop_AllOpen
000a06   5f73     MOV	0x73, R7             	TRAPPC2	_LED_Stop_AllOpen
000a07   e00f     MOVP	#0x0F               	PAGESEL	_LED_Stop_AllOpen
000a08   dfeb     CALL	#0xfeb              	CALL	_LED_Stop_AllOpen
000a09   9f0a     MOV	R7, #0xa             	TRAPPC1	$+2
000a0a   5f73     MOV	0x73, R7             	TRAPPC2	$+1
000a0b   e00a     MOVP	#0x0A               	PAGESEL	$
                                           _00110_DS_
000a0c   0008     CRET                     	CRET	
                                           func._Tail_Stop_Check_Input	.code
                                           _Tail_Stop_Check_Input	;Function start
0004cf   e100     MOVB	#0x00               	BANKSEL	r0x1020
0004d0   0387     CLR	0x87                 	CLR	r0x1020
0004d1   e101     MOVB	#0x01               	BANKSEL	_P7_bits
0004d2   7907     JB	0x7, 1                	JB	_P7_bits, 1
0004d3   c4d6     JMP	#0x4d6               	JMP	_00238_DS_
0004d4   e100     MOVB	#0x00               	BANKSEL	r0x1020
0004d5   0b87     INC	0x87                 	INC	r0x1020
                                           _00238_DS_
0004d6   e100     MOVB	#0x00               	BANKSEL	r0x1020
0004d7   0e87     MOVZ	R0, 0x87            	MOVZ	R0, r0x1020
                                           	BANKSEL	_Tail_Status
0004d8   518f     MOV	0x8f, R0             	MOV	_Tail_Status, R0
                                           	BANKSEL	r0x1020
0004d9   0387     CLR	0x87                 	CLR	r0x1020
0004da   e101     MOVB	#0x01               	BANKSEL	_P7_bits
0004db   7a07     JB	0x7, 2                	JB	_P7_bits, 2
0004dc   c4df     JMP	#0x4df               	JMP	_00239_DS_
0004dd   e100     MOVB	#0x00               	BANKSEL	r0x1020
0004de   0b87     INC	0x87                 	INC	r0x1020
                                           _00239_DS_
0004df   e100     MOVB	#0x00               	BANKSEL	r0x1020
0004e0   0e87     MOVZ	R0, 0x87            	MOVZ	R0, r0x1020
                                           	BANKSEL	_Stop_Status
0004e1   518e     MOV	0x8e, R0             	MOV	_Stop_Status, R0
0004e2   9800     MOV	R0, #0               	MOV	R0,# 0x00
                                           	BANKSEL	_Tail_Status
0004e3   308f     ORL	R0, 0x8f             	ORL	R0, _Tail_Status
0004e4   7a03     JB	0x3, 2                	JB	PSW, 2
0004e5   c4ff     JMP	#0x4ff               	JMP	_00070_DS_
0004e6   9800     MOV	R0, #0               	MOV	R0,# 0x00
                                           	BANKSEL	_Stop_Status
0004e7   308e     ORL	R0, 0x8e             	ORL	R0, _Stop_Status
0004e8   7a03     JB	0x3, 2                	JB	PSW, 2
0004e9   c4ff     JMP	#0x4ff               	JMP	_00070_DS_
                                           	BANKSEL	_NowMode
0004ea   0ed1     MOVZ	R0, 0xd1            	MOVZ	R0, _NowMode
                                           	BANKSEL	_PastMode
0004eb   51d3     MOV	0xd3, R0             	MOV	_PastMode, R0
                                           	BANKSEL	_NowMode
0004ec   0ed2     MOVZ	R0, 0xd2            	MOVZ	R0, (_NowMode + 1)
                                           	BANKSEL	_PastMode
0004ed   51d4     MOV	0xd4, R0             	MOV	(_PastMode + 1), R0
0004ee   9801     MOV	R0, #0x1             	MOV	R0,# 0x01
                                           	BANKSEL	_NowMode
0004ef   51d1     MOV	0xd1, R0             	MOV	_NowMode, R0
                                           	BANKSEL	_NowMode
0004f0   03d2     CLR	0xd2                 	CLR	(_NowMode + 1)
                                           	BANKSEL	_PastMode
0004f1   0ed3     MOVZ	R0, 0xd3            	MOVZ	R0, _PastMode
0004f2   a801     XOR	R0, #0x1             	XOR	R0,# 0x01
0004f3   7a03     JB	0x3, 2                	JB	PSW, 2
0004f4   c4fc     JMP	#0x4fc               	JMP	_00067_DS_
                                           	BANKSEL	_PastMode
0004f5   0ed4     MOVZ	R0, 0xd4            	MOVZ	R0, (_PastMode + 1)
0004f6   a800     XOR	R0, #0               	XOR	R0,# 0x00
0004f7   7a03     JB	0x3, 2                	JB	PSW, 2
0004f8   c4fc     JMP	#0x4fc               	JMP	_00067_DS_
                                           	BANKSEL	_ActMode
0004f9   03cf     CLR	0xcf                 	CLR	_ActMode
                                           	BANKSEL	_ActMode
0004fa   03d0     CLR	0xd0                 	CLR	(_ActMode + 1)
0004fb   c4ff     JMP	#0x4ff               	JMP	_00070_DS_
                                           _00067_DS_
0004fc   9801     MOV	R0, #0x1             	MOV	R0,# 0x01
                                           	BANKSEL	_ActMode
0004fd   51cf     MOV	0xcf, R0             	MOV	_ActMode, R0
                                           	BANKSEL	_ActMode
0004fe   03d0     CLR	0xd0                 	CLR	(_ActMode + 1)
                                           _00070_DS_
                                           	BANKSEL	_Tail_Status
0004ff   0e8f     MOVZ	R0, 0x8f            	MOVZ	R0, _Tail_Status
000500   a801     XOR	R0, #0x1             	XOR	R0,# 0x01
000501   7a03     JB	0x3, 2                	JB	PSW, 2
000502   c51c     JMP	#0x51c               	JMP	_00076_DS_
000503   9800     MOV	R0, #0               	MOV	R0,# 0x00
                                           	BANKSEL	_Stop_Status
000504   308e     ORL	R0, 0x8e             	ORL	R0, _Stop_Status
000505   7a03     JB	0x3, 2                	JB	PSW, 2
000506   c51c     JMP	#0x51c               	JMP	_00076_DS_
                                           	BANKSEL	_NowMode
000507   0ed1     MOVZ	R0, 0xd1            	MOVZ	R0, _NowMode
                                           	BANKSEL	_PastMode
000508   51d3     MOV	0xd3, R0             	MOV	_PastMode, R0
                                           	BANKSEL	_NowMode
000509   0ed2     MOVZ	R0, 0xd2            	MOVZ	R0, (_NowMode + 1)
                                           	BANKSEL	_PastMode
00050a   51d4     MOV	0xd4, R0             	MOV	(_PastMode + 1), R0
00050b   9802     MOV	R0, #0x2             	MOV	R0,# 0x02
                                           	BANKSEL	_NowMode
00050c   51d1     MOV	0xd1, R0             	MOV	_NowMode, R0
                                           	BANKSEL	_NowMode
00050d   03d2     CLR	0xd2                 	CLR	(_NowMode + 1)
                                           	BANKSEL	_PastMode
00050e   0ed3     MOVZ	R0, 0xd3            	MOVZ	R0, _PastMode
00050f   a802     XOR	R0, #0x2             	XOR	R0,# 0x02
000510   7a03     JB	0x3, 2                	JB	PSW, 2
000511   c519     JMP	#0x519               	JMP	_00073_DS_
                                           	BANKSEL	_PastMode
000512   0ed4     MOVZ	R0, 0xd4            	MOVZ	R0, (_PastMode + 1)
000513   a800     XOR	R0, #0               	XOR	R0,# 0x00
000514   7a03     JB	0x3, 2                	JB	PSW, 2
000515   c519     JMP	#0x519               	JMP	_00073_DS_
                                           	BANKSEL	_ActMode
000516   03cf     CLR	0xcf                 	CLR	_ActMode
                                           	BANKSEL	_ActMode
000517   03d0     CLR	0xd0                 	CLR	(_ActMode + 1)
000518   c51c     JMP	#0x51c               	JMP	_00076_DS_
                                           _00073_DS_
000519   9802     MOV	R0, #0x2             	MOV	R0,# 0x02
                                           	BANKSEL	_ActMode
00051a   51cf     MOV	0xcf, R0             	MOV	_ActMode, R0
                                           	BANKSEL	_ActMode
00051b   03d0     CLR	0xd0                 	CLR	(_ActMode + 1)
                                           _00076_DS_
00051c   9800     MOV	R0, #0               	MOV	R0,# 0x00
                                           	BANKSEL	_Tail_Status
00051d   308f     ORL	R0, 0x8f             	ORL	R0, _Tail_Status
00051e   7a03     JB	0x3, 2                	JB	PSW, 2
00051f   c539     JMP	#0x539               	JMP	_00082_DS_
                                           	BANKSEL	_Stop_Status
000520   0e8e     MOVZ	R0, 0x8e            	MOVZ	R0, _Stop_Status
000521   a801     XOR	R0, #0x1             	XOR	R0,# 0x01
000522   7a03     JB	0x3, 2                	JB	PSW, 2
000523   c539     JMP	#0x539               	JMP	_00082_DS_
                                           	BANKSEL	_NowMode
000524   0ed1     MOVZ	R0, 0xd1            	MOVZ	R0, _NowMode
                                           	BANKSEL	_PastMode
000525   51d3     MOV	0xd3, R0             	MOV	_PastMode, R0
                                           	BANKSEL	_NowMode
000526   0ed2     MOVZ	R0, 0xd2            	MOVZ	R0, (_NowMode + 1)
                                           	BANKSEL	_PastMode
000527   51d4     MOV	0xd4, R0             	MOV	(_PastMode + 1), R0
000528   9804     MOV	R0, #0x4             	MOV	R0,# 0x04
                                           	BANKSEL	_NowMode
000529   51d1     MOV	0xd1, R0             	MOV	_NowMode, R0
                                           	BANKSEL	_NowMode
00052a   03d2     CLR	0xd2                 	CLR	(_NowMode + 1)
                                           	BANKSEL	_PastMode
00052b   0ed3     MOVZ	R0, 0xd3            	MOVZ	R0, _PastMode
00052c   a804     XOR	R0, #0x4             	XOR	R0,# 0x04
00052d   7a03     JB	0x3, 2                	JB	PSW, 2
00052e   c536     JMP	#0x536               	JMP	_00079_DS_
                                           	BANKSEL	_PastMode
00052f   0ed4     MOVZ	R0, 0xd4            	MOVZ	R0, (_PastMode + 1)
000530   a800     XOR	R0, #0               	XOR	R0,# 0x00
000531   7a03     JB	0x3, 2                	JB	PSW, 2
000532   c536     JMP	#0x536               	JMP	_00079_DS_
                                           	BANKSEL	_ActMode
000533   03cf     CLR	0xcf                 	CLR	_ActMode
                                           	BANKSEL	_ActMode
000534   03d0     CLR	0xd0                 	CLR	(_ActMode + 1)
000535   c539     JMP	#0x539               	JMP	_00082_DS_
                                           _00079_DS_
000536   9804     MOV	R0, #0x4             	MOV	R0,# 0x04
                                           	BANKSEL	_ActMode
000537   51cf     MOV	0xcf, R0             	MOV	_ActMode, R0
                                           	BANKSEL	_ActMode
000538   03d0     CLR	0xd0                 	CLR	(_ActMode + 1)
                                           _00082_DS_
                                           	BANKSEL	_Tail_Status
000539   0e8f     MOVZ	R0, 0x8f            	MOVZ	R0, _Tail_Status
00053a   a801     XOR	R0, #0x1             	XOR	R0,# 0x01
00053b   7a03     JB	0x3, 2                	JB	PSW, 2
00053c   c556     JMP	#0x556               	JMP	_00088_DS_
                                           	BANKSEL	_Stop_Status
00053d   0e8e     MOVZ	R0, 0x8e            	MOVZ	R0, _Stop_Status
00053e   a801     XOR	R0, #0x1             	XOR	R0,# 0x01
00053f   7a03     JB	0x3, 2                	JB	PSW, 2
000540   c556     JMP	#0x556               	JMP	_00088_DS_
                                           	BANKSEL	_NowMode
000541   0ed1     MOVZ	R0, 0xd1            	MOVZ	R0, _NowMode
                                           	BANKSEL	_PastMode
000542   51d3     MOV	0xd3, R0             	MOV	_PastMode, R0
                                           	BANKSEL	_NowMode
000543   0ed2     MOVZ	R0, 0xd2            	MOVZ	R0, (_NowMode + 1)
                                           	BANKSEL	_PastMode
000544   51d4     MOV	0xd4, R0             	MOV	(_PastMode + 1), R0
000545   9808     MOV	R0, #0x8             	MOV	R0,# 0x08
                                           	BANKSEL	_NowMode
000546   51d1     MOV	0xd1, R0             	MOV	_NowMode, R0
                                           	BANKSEL	_NowMode
000547   03d2     CLR	0xd2                 	CLR	(_NowMode + 1)
                                           	BANKSEL	_PastMode
000548   0ed3     MOVZ	R0, 0xd3            	MOVZ	R0, _PastMode
000549   a808     XOR	R0, #0x8             	XOR	R0,# 0x08
00054a   7a03     JB	0x3, 2                	JB	PSW, 2
00054b   c553     JMP	#0x553               	JMP	_00085_DS_
                                           	BANKSEL	_PastMode
00054c   0ed4     MOVZ	R0, 0xd4            	MOVZ	R0, (_PastMode + 1)
00054d   a800     XOR	R0, #0               	XOR	R0,# 0x00
00054e   7a03     JB	0x3, 2                	JB	PSW, 2
00054f   c553     JMP	#0x553               	JMP	_00085_DS_
                                           	BANKSEL	_ActMode
000550   03cf     CLR	0xcf                 	CLR	_ActMode
                                           	BANKSEL	_ActMode
000551   03d0     CLR	0xd0                 	CLR	(_ActMode + 1)
000552   c556     JMP	#0x556               	JMP	_00088_DS_
                                           _00085_DS_
000553   9808     MOV	R0, #0x8             	MOV	R0,# 0x08
                                           	BANKSEL	_ActMode
000554   51cf     MOV	0xcf, R0             	MOV	_ActMode, R0
                                           	BANKSEL	_ActMode
000555   03d0     CLR	0xd0                 	CLR	(_ActMode + 1)
                                           _00088_DS_
000556   9f09     MOV	R7, #0x9             	TRAPPC1	_Mode_Act
000557   5f73     MOV	0x73, R7             	TRAPPC2	_Mode_Act
000558   e009     MOVP	#0x09               	PAGESEL	_Mode_Act
000559   d9af     CALL	#0x9af              	CALL	_Mode_Act
00055a   9f05     MOV	R7, #0x5             	TRAPPC1	$+2
00055b   5f73     MOV	0x73, R7             	TRAPPC2	$+1
00055c   e005     MOVP	#0x05               	PAGESEL	$
00055d   0008     CRET                     	CRET	
                                           func._RT_Mode_Act	.code
                                           _RT_Mode_Act	;Function start
000e35   e100     MOVB	#0x00               	BANKSEL	_RT_ActMode
000e36   0ec9     MOVZ	R0, 0xc9            	MOVZ	R0, _RT_ActMode
000e37   a801     XOR	R0, #0x1             	XOR	R0,# 0x01
000e38   7a03     JB	0x3, 2                	JB	PSW, 2
000e39   ce3e     JMP	#0xe3e               	JMP	_00063_DS_
                                           	BANKSEL	_RT_ActMode
000e3a   0eca     MOVZ	R0, 0xca            	MOVZ	R0, (_RT_ActMode + 1)
000e3b   a800     XOR	R0, #0               	XOR	R0,# 0x00
000e3c   7203     JNB	0x3, 2               	JNB	PSW, 2
000e3d   ce4f     JMP	#0xe4f               	JMP	_00053_DS_
                                           _00063_DS_
                                           	BANKSEL	_RT_ActMode
000e3e   0ec9     MOVZ	R0, 0xc9            	MOVZ	R0, _RT_ActMode
000e3f   a802     XOR	R0, #0x2             	XOR	R0,# 0x02
000e40   7a03     JB	0x3, 2                	JB	PSW, 2
000e41   ce46     JMP	#0xe46               	JMP	_00064_DS_
                                           	BANKSEL	_RT_ActMode
000e42   0eca     MOVZ	R0, 0xca            	MOVZ	R0, (_RT_ActMode + 1)
000e43   a800     XOR	R0, #0               	XOR	R0,# 0x00
000e44   7203     JNB	0x3, 2               	JNB	PSW, 2
000e45   ce57     JMP	#0xe57               	JMP	_00054_DS_
                                           _00064_DS_
                                           	BANKSEL	_RT_ActMode
000e46   0ec9     MOVZ	R0, 0xc9            	MOVZ	R0, _RT_ActMode
000e47   a804     XOR	R0, #0x4             	XOR	R0,# 0x04
000e48   7a03     JB	0x3, 2                	JB	PSW, 2
000e49   ce4e     JMP	#0xe4e               	JMP	_00065_DS_
                                           	BANKSEL	_RT_ActMode
000e4a   0eca     MOVZ	R0, 0xca            	MOVZ	R0, (_RT_ActMode + 1)
000e4b   a800     XOR	R0, #0               	XOR	R0,# 0x00
000e4c   7203     JNB	0x3, 2               	JNB	PSW, 2
000e4d   ce5f     JMP	#0xe5f               	JMP	_00055_DS_
                                           _00065_DS_
000e4e   ce66     JMP	#0xe66               	JMP	_00058_DS_
                                           _00053_DS_
000e4f   9f0b     MOV	R7, #0xb             	TRAPPC1	_Led_RT_AllClose
000e50   5f73     MOV	0x73, R7             	TRAPPC2	_Led_RT_AllClose
000e51   e00b     MOVP	#0x0B               	PAGESEL	_Led_RT_AllClose
000e52   dbe3     CALL	#0xbe3              	CALL	_Led_RT_AllClose
000e53   9f0e     MOV	R7, #0xe             	TRAPPC1	$+2
000e54   5f73     MOV	0x73, R7             	TRAPPC2	$+1
000e55   e00e     MOVP	#0x0E               	PAGESEL	$
000e56   ce66     JMP	#0xe66               	JMP	_00058_DS_
                                           _00054_DS_
000e57   9f0c     MOV	R7, #0xc             	TRAPPC1	_Led_RT_AllOpen
000e58   5f73     MOV	0x73, R7             	TRAPPC2	_Led_RT_AllOpen
000e59   e00c     MOVP	#0x0C               	PAGESEL	_Led_RT_AllOpen
000e5a   dc29     CALL	#0xc29              	CALL	_Led_RT_AllOpen
000e5b   9f0e     MOV	R7, #0xe             	TRAPPC1	$+2
000e5c   5f73     MOV	0x73, R7             	TRAPPC2	$+1
000e5d   e00e     MOVP	#0x0E               	PAGESEL	$
000e5e   ce66     JMP	#0xe66               	JMP	_00058_DS_
                                           _00055_DS_
000e5f   9f02     MOV	R7, #0x2             	TRAPPC1	_Led_RT_WaterOpen
000e60   5f73     MOV	0x73, R7             	TRAPPC2	_Led_RT_WaterOpen
000e61   e002     MOVP	#0x02               	PAGESEL	_Led_RT_WaterOpen
000e62   d2ec     CALL	#0x2ec              	CALL	_Led_RT_WaterOpen
000e63   9f0e     MOV	R7, #0xe             	TRAPPC1	$+2
000e64   5f73     MOV	0x73, R7             	TRAPPC2	$+1
000e65   e00e     MOVP	#0x0E               	PAGESEL	$
                                           _00058_DS_
000e66   0008     CRET                     	CRET	
                                           func._RT_Check_Input	.code
                                           _RT_Check_Input	;Function start
000754   e100     MOVB	#0x00               	BANKSEL	r0x1021
000755   0388     CLR	0x88                 	CLR	r0x1021
000756   e104     MOVB	#0x04               	BANKSEL	_PA_bits
000757   7824     JB	0x24, 0               	JB	_PA_bits, 0
000758   c75b     JMP	#0x75b               	JMP	_00240_DS_
000759   e100     MOVB	#0x00               	BANKSEL	r0x1021
00075a   0b88     INC	0x88                 	INC	r0x1021
                                           _00240_DS_
00075b   e100     MOVB	#0x00               	BANKSEL	r0x1021
00075c   0e88     MOVZ	R0, 0x88            	MOVZ	R0, r0x1021
                                           	BANKSEL	_RT_Status
00075d   518d     MOV	0x8d, R0             	MOV	_RT_Status, R0
                                           	BANKSEL	r0x1021
00075e   0388     CLR	0x88                 	CLR	r0x1021
00075f   e101     MOVB	#0x01               	BANKSEL	_P5_bits
000760   7905     JB	0x5, 1                	JB	_P5_bits, 1
000761   c764     JMP	#0x764               	JMP	_00241_DS_
000762   e100     MOVB	#0x00               	BANKSEL	r0x1021
000763   0b88     INC	0x88                 	INC	r0x1021
                                           _00241_DS_
000764   e100     MOVB	#0x00               	BANKSEL	r0x1021
000765   0e88     MOVZ	R0, 0x88            	MOVZ	R0, r0x1021
                                           	BANKSEL	_RT_EN_Status
000766   5184     MOV	0x84, R0             	MOV	_RT_EN_Status, R0
000767   9800     MOV	R0, #0               	MOV	R0,# 0x00
                                           	BANKSEL	_RT_Status
000768   308d     ORL	R0, 0x8d             	ORL	R0, _RT_Status
000769   7a03     JB	0x3, 2                	JB	PSW, 2
00076a   c780     JMP	#0x780               	JMP	_00030_DS_
                                           	BANKSEL	_RT_NowMode
00076b   0ecb     MOVZ	R0, 0xcb            	MOVZ	R0, _RT_NowMode
                                           	BANKSEL	_RT_PastMode
00076c   51cd     MOV	0xcd, R0             	MOV	_RT_PastMode, R0
                                           	BANKSEL	_RT_NowMode
00076d   0ecc     MOVZ	R0, 0xcc            	MOVZ	R0, (_RT_NowMode + 1)
                                           	BANKSEL	_RT_PastMode
00076e   51ce     MOV	0xce, R0             	MOV	(_RT_PastMode + 1), R0
00076f   9801     MOV	R0, #0x1             	MOV	R0,# 0x01
                                           	BANKSEL	_RT_NowMode
000770   51cb     MOV	0xcb, R0             	MOV	_RT_NowMode, R0
                                           	BANKSEL	_RT_NowMode
000771   03cc     CLR	0xcc                 	CLR	(_RT_NowMode + 1)
                                           	BANKSEL	_RT_PastMode
000772   0ecd     MOVZ	R0, 0xcd            	MOVZ	R0, _RT_PastMode
000773   a801     XOR	R0, #0x1             	XOR	R0,# 0x01
000774   7a03     JB	0x3, 2                	JB	PSW, 2
000775   c77d     JMP	#0x77d               	JMP	_00027_DS_
                                           	BANKSEL	_RT_PastMode
000776   0ece     MOVZ	R0, 0xce            	MOVZ	R0, (_RT_PastMode + 1)
000777   a800     XOR	R0, #0               	XOR	R0,# 0x00
000778   7a03     JB	0x3, 2                	JB	PSW, 2
000779   c77d     JMP	#0x77d               	JMP	_00027_DS_
                                           	BANKSEL	_RT_ActMode
00077a   03c9     CLR	0xc9                 	CLR	_RT_ActMode
                                           	BANKSEL	_RT_ActMode
00077b   03ca     CLR	0xca                 	CLR	(_RT_ActMode + 1)
00077c   c780     JMP	#0x780               	JMP	_00030_DS_
                                           _00027_DS_
00077d   9801     MOV	R0, #0x1             	MOV	R0,# 0x01
                                           	BANKSEL	_RT_ActMode
00077e   51c9     MOV	0xc9, R0             	MOV	_RT_ActMode, R0
                                           	BANKSEL	_RT_ActMode
00077f   03ca     CLR	0xca                 	CLR	(_RT_ActMode + 1)
                                           _00030_DS_
                                           	BANKSEL	_RT_Status
000780   0e8d     MOVZ	R0, 0x8d            	MOVZ	R0, _RT_Status
000781   a801     XOR	R0, #0x1             	XOR	R0,# 0x01
000782   7a03     JB	0x3, 2                	JB	PSW, 2
000783   c79d     JMP	#0x79d               	JMP	_00035_DS_
                                           	BANKSEL	_RT_EN_Status
000784   0e84     MOVZ	R0, 0x84            	MOVZ	R0, _RT_EN_Status
000785   a801     XOR	R0, #0x1             	XOR	R0,# 0x01
000786   7a03     JB	0x3, 2                	JB	PSW, 2
000787   c79d     JMP	#0x79d               	JMP	_00035_DS_
                                           	BANKSEL	_RT_NowMode
000788   0ecb     MOVZ	R0, 0xcb            	MOVZ	R0, _RT_NowMode
                                           	BANKSEL	_RT_PastMode
000789   51cd     MOV	0xcd, R0             	MOV	_RT_PastMode, R0
                                           	BANKSEL	_RT_NowMode
00078a   0ecc     MOVZ	R0, 0xcc            	MOVZ	R0, (_RT_NowMode + 1)
                                           	BANKSEL	_RT_PastMode
00078b   51ce     MOV	0xce, R0             	MOV	(_RT_PastMode + 1), R0
00078c   9802     MOV	R0, #0x2             	MOV	R0,# 0x02
                                           	BANKSEL	_RT_NowMode
00078d   51cb     MOV	0xcb, R0             	MOV	_RT_NowMode, R0
                                           	BANKSEL	_RT_NowMode
00078e   03cc     CLR	0xcc                 	CLR	(_RT_NowMode + 1)
                                           	BANKSEL	_RT_PastMode
00078f   0ecd     MOVZ	R0, 0xcd            	MOVZ	R0, _RT_PastMode
000790   a802     XOR	R0, #0x2             	XOR	R0,# 0x02
000791   7a03     JB	0x3, 2                	JB	PSW, 2
000792   c79a     JMP	#0x79a               	JMP	_00032_DS_
                                           	BANKSEL	_RT_PastMode
000793   0ece     MOVZ	R0, 0xce            	MOVZ	R0, (_RT_PastMode + 1)
000794   a800     XOR	R0, #0               	XOR	R0,# 0x00
000795   7a03     JB	0x3, 2                	JB	PSW, 2
000796   c79a     JMP	#0x79a               	JMP	_00032_DS_
                                           	BANKSEL	_RT_ActMode
000797   03c9     CLR	0xc9                 	CLR	_RT_ActMode
                                           	BANKSEL	_RT_ActMode
000798   03ca     CLR	0xca                 	CLR	(_RT_ActMode + 1)
000799   c79d     JMP	#0x79d               	JMP	_00035_DS_
                                           _00032_DS_
00079a   9802     MOV	R0, #0x2             	MOV	R0,# 0x02
                                           	BANKSEL	_RT_ActMode
00079b   51c9     MOV	0xc9, R0             	MOV	_RT_ActMode, R0
                                           	BANKSEL	_RT_ActMode
00079c   03ca     CLR	0xca                 	CLR	(_RT_ActMode + 1)
                                           _00035_DS_
                                           	BANKSEL	_RT_Status
00079d   0e8d     MOVZ	R0, 0x8d            	MOVZ	R0, _RT_Status
00079e   a801     XOR	R0, #0x1             	XOR	R0,# 0x01
00079f   7a03     JB	0x3, 2                	JB	PSW, 2
0007a0   c7ba     JMP	#0x7ba               	JMP	_00041_DS_
0007a1   9800     MOV	R0, #0               	MOV	R0,# 0x00
                                           	BANKSEL	_RT_EN_Status
0007a2   3084     ORL	R0, 0x84             	ORL	R0, _RT_EN_Status
0007a3   7a03     JB	0x3, 2                	JB	PSW, 2
0007a4   c7ba     JMP	#0x7ba               	JMP	_00041_DS_
                                           	BANKSEL	_RT_NowMode
0007a5   0ecb     MOVZ	R0, 0xcb            	MOVZ	R0, _RT_NowMode
                                           	BANKSEL	_RT_PastMode
0007a6   51cd     MOV	0xcd, R0             	MOV	_RT_PastMode, R0
                                           	BANKSEL	_RT_NowMode
0007a7   0ecc     MOVZ	R0, 0xcc            	MOVZ	R0, (_RT_NowMode + 1)
                                           	BANKSEL	_RT_PastMode
0007a8   51ce     MOV	0xce, R0             	MOV	(_RT_PastMode + 1), R0
0007a9   9804     MOV	R0, #0x4             	MOV	R0,# 0x04
                                           	BANKSEL	_RT_NowMode
0007aa   51cb     MOV	0xcb, R0             	MOV	_RT_NowMode, R0
                                           	BANKSEL	_RT_NowMode
0007ab   03cc     CLR	0xcc                 	CLR	(_RT_NowMode + 1)
                                           	BANKSEL	_RT_PastMode
0007ac   0ecd     MOVZ	R0, 0xcd            	MOVZ	R0, _RT_PastMode
0007ad   a804     XOR	R0, #0x4             	XOR	R0,# 0x04
0007ae   7a03     JB	0x3, 2                	JB	PSW, 2
0007af   c7b7     JMP	#0x7b7               	JMP	_00038_DS_
                                           	BANKSEL	_RT_PastMode
0007b0   0ece     MOVZ	R0, 0xce            	MOVZ	R0, (_RT_PastMode + 1)
0007b1   a800     XOR	R0, #0               	XOR	R0,# 0x00
0007b2   7a03     JB	0x3, 2                	JB	PSW, 2
0007b3   c7b7     JMP	#0x7b7               	JMP	_00038_DS_
                                           	BANKSEL	_RT_ActMode
0007b4   03c9     CLR	0xc9                 	CLR	_RT_ActMode
                                           	BANKSEL	_RT_ActMode
0007b5   03ca     CLR	0xca                 	CLR	(_RT_ActMode + 1)
0007b6   c7ba     JMP	#0x7ba               	JMP	_00041_DS_
                                           _00038_DS_
0007b7   9804     MOV	R0, #0x4             	MOV	R0,# 0x04
                                           	BANKSEL	_RT_ActMode
0007b8   51c9     MOV	0xc9, R0             	MOV	_RT_ActMode, R0
                                           	BANKSEL	_RT_ActMode
0007b9   03ca     CLR	0xca                 	CLR	(_RT_ActMode + 1)
                                           _00041_DS_
0007ba   9f0e     MOV	R7, #0xe             	TRAPPC1	_RT_Mode_Act
0007bb   5f73     MOV	0x73, R7             	TRAPPC2	_RT_Mode_Act
0007bc   e00e     MOVP	#0x0E               	PAGESEL	_RT_Mode_Act
0007bd   de35     CALL	#0xe35              	CALL	_RT_Mode_Act
0007be   9f07     MOV	R7, #0x7             	TRAPPC1	$+2
0007bf   5f73     MOV	0x73, R7             	TRAPPC2	$+1
0007c0   e007     MOVP	#0x07               	PAGESEL	$
0007c1   0008     CRET                     	CRET	
                                           func._delay_us	.code
                                           _delay_us	;Function start
                                           	BANKSEL	r0x1022
                                           	MOV	r0x1022, R0
                                           	BANKSEL	STK00
                                           	MOVZ	R0, STK00
                                           	BANKSEL	r0x1023
                                           	MOV	r0x1023, R0
                                           	BANKSEL	_delay_us_i_1_1
                                           	CLR	_delay_us_i_1_1
                                           	BANKSEL	_delay_us_i_1_1
                                           	CLR	(_delay_us_i_1_1 + 1)
                                           _00017_DS_
                                           	BANKSEL	r0x1022
                                           	MOVZ	R0, r0x1022
                                           	BANKSEL	_delay_us_i_1_1
                                           	SUB	R0, (_delay_us_i_1_1 + 1)
                                           	JB	PSW, 2
                                           	JMP	_00025_DS_
                                           	BANKSEL	r0x1023
                                           	MOVZ	R0, r0x1023
                                           	BANKSEL	_delay_us_i_1_1
                                           	SUB	R0, _delay_us_i_1_1
                                           _00025_DS_
                                           	JNB	PSW, 0
                                           	JMP	_00021_DS_
                                           	BANKSEL	_delay_us_i_1_1
                                           	INC	_delay_us_i_1_1
                                           	JB	PSW, 2
                                           	JMP	_00242_DS_
                                           	BANKSEL	_delay_us_i_1_1
                                           	INC	(_delay_us_i_1_1 + 1)
                                           _00242_DS_
                                           	JMP	_00017_DS_
                                           _00021_DS_
                                           	CRET	
                                           func._delay_ms	.code
                                           _delay_ms	;Function start
000f0e   e100     MOVB	#0x00               	BANKSEL	r0x101B
000f0f   518b     MOV	0x8b, R0             	MOV	r0x101B, R0
                                           	BANKSEL	STK00
000f10   0ef0     MOVZ	R0, 0xf0            	MOVZ	R0, STK00
                                           	BANKSEL	r0x101C
000f11   518c     MOV	0x8c, R0             	MOV	r0x101C, R0
                                           	BANKSEL	_delay_ms_i_1_1
000f12   03d7     CLR	0xd7                 	CLR	_delay_ms_i_1_1
                                           	BANKSEL	_delay_ms_i_1_1
000f13   03d8     CLR	0xd8                 	CLR	(_delay_ms_i_1_1 + 1)
                                           _00006_DS_
                                           	BANKSEL	r0x101B
000f14   0e8b     MOVZ	R0, 0x8b            	MOVZ	R0, r0x101B
                                           	BANKSEL	_delay_ms_i_1_1
000f15   38d8     SUB	R0, 0xd8             	SUB	R0, (_delay_ms_i_1_1 + 1)
000f16   7a03     JB	0x3, 2                	JB	PSW, 2
000f17   cf1a     JMP	#0xf1a               	JMP	_00016_DS_
                                           	BANKSEL	r0x101C
000f18   0e8c     MOVZ	R0, 0x8c            	MOVZ	R0, r0x101C
                                           	BANKSEL	_delay_ms_i_1_1
000f19   38d7     SUB	R0, 0xd7             	SUB	R0, _delay_ms_i_1_1
                                           _00016_DS_
000f1a   7003     JNB	0x3, 0               	JNB	PSW, 0
000f1b   cf31     JMP	#0xf31               	JMP	_00010_DS_
000f1c   98fa     MOV	R0, #0xfa            	MOV	R0,# 0xfa
                                           	BANKSEL	_delay_ms_j_1_1
000f1d   51d5     MOV	0xd5, R0             	MOV	_delay_ms_j_1_1, R0
                                           	BANKSEL	_delay_ms_j_1_1
000f1e   03d6     CLR	0xd6                 	CLR	(_delay_ms_j_1_1 + 1)
                                           _00003_DS_
                                           	BANKSEL	_delay_ms_j_1_1
000f1f   0ed5     MOVZ	R0, 0xd5            	MOVZ	R0, _delay_ms_j_1_1
                                           	BANKSEL	r0x101D
000f20   518a     MOV	0x8a, R0             	MOV	r0x101D, R0
                                           	BANKSEL	_delay_ms_j_1_1
000f21   0ed6     MOVZ	R0, 0xd6            	MOVZ	R0, (_delay_ms_j_1_1 + 1)
                                           	BANKSEL	r0x101E
000f22   5189     MOV	0x89, R0             	MOV	r0x101E, R0
000f23   98ff     MOV	R0, #0xff            	MOV	R0,# 0xff
                                           	BANKSEL	_delay_ms_j_1_1
000f24   21d5     ADD	0xd5, R0             	ADD	_delay_ms_j_1_1, R0
000f25   7003     JNB	0x3, 0               	JNB	PSW, 0
000f26   cf28     JMP	#0xf28               	JMP	_00243_DS_
                                           	BANKSEL	_delay_ms_j_1_1
000f27   07d6     DEC	0xd6                 	DEC	(_delay_ms_j_1_1 + 1)
                                           _00243_DS_
                                           	BANKSEL	r0x101D
000f28   0e8a     MOVZ	R0, 0x8a            	MOVZ	R0, r0x101D
                                           	BANKSEL	r0x101E
000f29   3089     ORL	R0, 0x89             	ORL	R0, r0x101E
000f2a   7a03     JB	0x3, 2                	JB	PSW, 2
000f2b   cf1f     JMP	#0xf1f               	JMP	_00003_DS_
                                           	BANKSEL	_delay_ms_i_1_1
000f2c   0bd7     INC	0xd7                 	INC	_delay_ms_i_1_1
000f2d   7a03     JB	0x3, 2                	JB	PSW, 2
000f2e   cf30     JMP	#0xf30               	JMP	_00244_DS_
                                           	BANKSEL	_delay_ms_i_1_1
000f2f   0bd8     INC	0xd8                 	INC	(_delay_ms_i_1_1 + 1)
                                           _00244_DS_
000f30   cf14     JMP	#0xf14               	JMP	_00006_DS_
                                           _00010_DS_
000f31   0008     CRET                     	CRET	
                                           func._Init_IO	.code
                                           _Init_IO	;Function start
000e96   98ff     MOV	R0, #0xff            	MOV	R0,# 0xff
000e97   e100     MOVB	#0x00               	BANKSEL	_TR0
000e98   5125     MOV	0x25, R0             	MOV	_TR0, R0
                                           	BANKSEL	_ANS0
000e99   034a     CLR	0x4a                 	CLR	_ANS0
000e9a   9802     MOV	R0, #0x2             	MOV	R0,# 0x02
                                           	BANKSEL	_TR1
000e9b   5127     MOV	0x27, R0             	MOV	_TR1, R0
                                           	BANKSEL	_ANS1
000e9c   034b     CLR	0x4b                 	CLR	_ANS1
                                           	BANKSEL	_P1LR
000e9d   0347     CLR	0x47                 	CLR	_P1LR
                                           	BANKSEL	_TR2
000e9e   0326     CLR	0x26                 	CLR	_TR2
                                           	BANKSEL	_ANS2
000e9f   034c     CLR	0x4c                 	CLR	_ANS2
                                           	BANKSEL	_P2LR
000ea0   0346     CLR	0x46                 	CLR	_P2LR
                                           	BANKSEL	_TR3
000ea1   0328     CLR	0x28                 	CLR	_TR3
                                           	BANKSEL	_ANS3
000ea2   034d     CLR	0x4d                 	CLR	_ANS3
                                           	BANKSEL	_P3LR
000ea3   0348     CLR	0x48                 	CLR	_P3LR
000ea4   9810     MOV	R0, #0x10            	MOV	R0,# 0x10
                                           	BANKSEL	_TR4
000ea5   5129     MOV	0x29, R0             	MOV	_TR4, R0
                                           	BANKSEL	_ANS4
000ea6   034e     CLR	0x4e                 	CLR	_ANS4
                                           	BANKSEL	_P4LR
000ea7   0349     CLR	0x49                 	CLR	_P4LR
000ea8   9802     MOV	R0, #0x2             	MOV	R0,# 0x02
000ea9   e101     MOVB	#0x01               	BANKSEL	_TR5
000eaa   5125     MOV	0x25, R0             	MOV	_TR5, R0
                                           	BANKSEL	_ANS5
000eab   034a     CLR	0x4a                 	CLR	_ANS5
                                           	BANKSEL	_P5LR
000eac   0345     CLR	0x45                 	CLR	_P5LR
                                           	BANKSEL	_TR6
000ead   0326     CLR	0x26                 	CLR	_TR6
                                           	BANKSEL	_ANS6
000eae   034b     CLR	0x4b                 	CLR	_ANS6
                                           	BANKSEL	_P6LR
000eaf   0346     CLR	0x46                 	CLR	_P6LR
000eb0   9806     MOV	R0, #0x6             	MOV	R0,# 0x06
                                           	BANKSEL	_TR7
000eb1   5127     MOV	0x27, R0             	MOV	_TR7, R0
                                           	BANKSEL	_ANS7
000eb2   034c     CLR	0x4c                 	CLR	_ANS7
                                           	BANKSEL	_P7LR
000eb3   0347     CLR	0x47                 	CLR	_P7LR
000eb4   e102     MOVB	#0x02               	BANKSEL	_PUR7
000eb5   0347     CLR	0x47                 	CLR	_PUR7
000eb6   980e     MOV	R0, #0xe             	MOV	R0,# 0x0e
000eb7   e101     MOVB	#0x01               	BANKSEL	_TR9
000eb8   5129     MOV	0x29, R0             	MOV	_TR9, R0
                                           	BANKSEL	_ANS9
000eb9   034e     CLR	0x4e                 	CLR	_ANS9
                                           	BANKSEL	_P9LR
000eba   0349     CLR	0x49                 	CLR	_P9LR
000ebb   9801     MOV	R0, #0x1             	MOV	R0,# 0x01
000ebc   e104     MOVB	#0x04               	BANKSEL	_TRA
000ebd   5126     MOV	0x26, R0             	MOV	_TRA, R0
                                           	BANKSEL	_ANSA
000ebe   0328     CLR	0x28                 	CLR	_ANSA
                                           	BANKSEL	_PALR
000ebf   0325     CLR	0x25                 	CLR	_PALR
                                           	BANKSEL	_PURA
000ec0   0327     CLR	0x27                 	CLR	_PURA
                                           	BANKSEL	_TRB
000ec1   032b     CLR	0x2b                 	CLR	_TRB
                                           	BANKSEL	_ANSB
000ec2   032d     CLR	0x2d                 	CLR	_ANSB
                                           	BANKSEL	_PBLR
000ec3   032a     CLR	0x2a                 	CLR	_PBLR
000ec4   0008     CRET                     	CRET	
                                           	.end
                                           	.radix dec
                                           	.include "KF8A100GQS.inc"
                                           	__config 0x8007, 0x6d4
                                           	.end
                                           	.radix dec
                                           	.include "KF8A100GQS.inc"
                                           	.type STK11, 108
                                           	.type STK10, 108
                                           	.type STK09, 108
                                           	.type STK08, 108
                                           	.type STK07, 108
                                           	.type STK06, 108
                                           	.type STK05, 108
                                           	.type STK04, 108
                                           	.type STK03, 108
                                           	.type STK02, 108
                                           	.type STK01, 108
                                           	.type STK00, 108
                                           sharebankTRAP .idata 0x73
                                           TRAPRx73
                                             .db 0x00
                                           TRAPRx74
                                             .db 0x00
                                           TRAPRx75
                                             .db 0x00
                                           TRAPRx76
                                             .db 0x00
                                           TRAPRx77
                                             .db 0x00
                                           ID_main_0	.idata
                                           _FistBootFlag
                                           	.db	0x01
                                           STARTUP	.code 0x0000
000000   0376     CLR	0x76                 	CLR 0x76
000001   0373     CLR	0x73                 	CLR 0x73
000002   e00f     MOVP	#0x0F               	PAGESEL	init_imp
000003   cfd4     JMP	#0xfd4               	JMP		init_imp
                                           INIT_IMP	.code
                                           init_imp
000fd4   e00e     MOVP	#0x0E               	PAGESEL	_startup
000fd5   dec5     CALL	#0xec5              	CALL	_startup
000fd6   e00f     MOVP	#0x0F               	PAGESEL	__gsinit_startup
000fd7   dfdc     CALL	#0xfdc              	CALL	__gsinit_startup
000fd8   9f0b     MOV	R7, #0xb             	TRAPPC1	_main
000fd9   5f73     MOV	0x73, R7             	TRAPPC2	_main
000fda   e00b     MOVP	#0x0B               	PAGESEL	_main
000fdb   cb10     JMP	#0xb10               	JMP		_main
                                           interrupt_0x04	.code	0x4
000004   f8c2     MOV	R2, R0               	MOV		R2,R0
000005   5617     MOV	R3, 0x17             	MOV		R3,BANK
000006   5003     MOV	R0, 0x3              	MOV		R0,PSW
000007   e100     MOVB	#0x00               	BANKSEL	I0PSW
000008   51df     MOV	0xdf, R0             	MOV		I0PSW,R0
000009   53dd     MOV	0xdd, R1             	MOV		I0R1,R1
00000a   5fde     MOV	0xde, R7             	MOV		I0R7,R7
00000b   6a76     SET	0x76, 2              	SET		TRAPRx76,2
00000c   9f0c     MOV	R7, #0xc             	TRAPPC1	interrupt_service_routine_0x04
00000d   5f75     MOV	0x75, R7             	TRAPPC2	interrupt_service_routine_0x04
00000e   e00c     MOVP	#0x0C               	PAGESEL	interrupt_service_routine_0x04
00000f   cc6f     JMP	#0xc6f               	JMP		interrupt_service_routine_0x04
                                           func._int_fun0	.code
                                           _int_fun0	;Function start
                                           interrupt_service_routine_0x04
000c6f   e100     MOVB	#0x00               	BANKSEL	r0x1001
000c70   0382     CLR	0x82                 	CLR	r0x1001
                                           	BANKSEL	_INTCTL_bits
000c71   7a0b     JB	0xb, 2                	JB	_INTCTL_bits, 2
000c72   cc74     JMP	#0xc74               	JMP	_00023_DS_
                                           	BANKSEL	r0x1001
000c73   0b82     INC	0x82                 	INC	r0x1001
                                           _00023_DS_
000c74   9800     MOV	R0, #0               	MOV	R0,# 0x00
                                           	BANKSEL	_INTCTL_bits
000c75   750b     JNB	0xb, 5               	JNB	_INTCTL_bits, 5
000c76   9801     MOV	R0, #0x1             	MOV	R0,# 0x01
                                           	BANKSEL	r0x1002
000c77   5181     MOV	0x81, R0             	MOV	r0x1002, R0
                                           	BANKSEL	r0x1002
000c78   0e81     MOVZ	R0, 0x81            	MOVZ	R0, r0x1002
                                           	BANKSEL	r0x1001
000c79   2982     AND	0x82, R0             	AND	r0x1001, R0
000c7a   9800     MOV	R0, #0               	MOV	R0,# 0x00
                                           	BANKSEL	r0x1001
000c7b   3082     ORL	R0, 0x82             	ORL	R0, r0x1001
000c7c   7203     JNB	0x3, 2               	JNB	PSW, 2
000c7d   cc81     JMP	#0xc81               	JMP	_00011_DS_
                                           	BANKSEL	_INTCTL_bits
000c7e   620b     CLR	0xb, 2               	CLR	_INTCTL_bits, 2
000c7f   9808     MOV	R0, #0x8             	MOV	R0,# 0x08
                                           	BANKSEL	_T0
000c80   5101     MOV	0x1, R0              	MOV	_T0, R0
                                           _00011_DS_
                                           	BANKSEL	r0x1001
000c81   0382     CLR	0x82                 	CLR	r0x1001
                                           	BANKSEL	_EIF1_bits
000c82   780c     JB	0xc, 0                	JB	_EIF1_bits, 0
000c83   cc85     JMP	#0xc85               	JMP	_00024_DS_
                                           	BANKSEL	r0x1001
000c84   0b82     INC	0x82                 	INC	r0x1001
                                           _00024_DS_
                                           	BANKSEL	r0x1003
000c85   0380     CLR	0x80                 	CLR	r0x1003
                                           	BANKSEL	_EIE1_bits
000c86   782c     JB	0x2c, 0               	JB	_EIE1_bits, 0
000c87   cc89     JMP	#0xc89               	JMP	_00025_DS_
                                           	BANKSEL	r0x1003
000c88   0b80     INC	0x80                 	INC	r0x1003
                                           _00025_DS_
                                           	BANKSEL	r0x1003
000c89   0e80     MOVZ	R0, 0x80            	MOVZ	R0, r0x1003
                                           	BANKSEL	r0x1001
000c8a   2982     AND	0x82, R0             	AND	r0x1001, R0
000c8b   9800     MOV	R0, #0               	MOV	R0,# 0x00
                                           	BANKSEL	r0x1001
000c8c   3082     ORL	R0, 0x82             	ORL	R0, r0x1001
000c8d   7203     JNB	0x3, 2               	JNB	PSW, 2
000c8e   cc97     JMP	#0xc97               	JMP	_00013_DS_
                                           	BANKSEL	_EIF1_bits
000c8f   600c     CLR	0xc, 0               	CLR	_EIF1_bits, 0
000c90   9f06     MOV	R7, #0x6             	TRAPPC1	_Timer_PWM_Callback
000c91   5f75     MOV	0x75, R7             	TRAPPC2	_Timer_PWM_Callback
000c92   e006     MOVP	#0x06               	PAGESEL	_Timer_PWM_Callback
000c93   d6e2     CALL	#0x6e2              	CALL	_Timer_PWM_Callback
000c94   9f0c     MOV	R7, #0xc             	TRAPPC1	$+2
000c95   5f75     MOV	0x75, R7             	TRAPPC2	$+1
000c96   e00c     MOVP	#0x0C               	PAGESEL	$
                                           _00013_DS_
000c97   e100     MOVB	#0x00               	BANKSEL	r0x1001
000c98   0382     CLR	0x82                 	CLR	r0x1001
                                           	BANKSEL	_EIF1_bits
000c99   790c     JB	0xc, 1                	JB	_EIF1_bits, 1
000c9a   cc9c     JMP	#0xc9c               	JMP	_00026_DS_
                                           	BANKSEL	r0x1001
000c9b   0b82     INC	0x82                 	INC	r0x1001
                                           _00026_DS_
                                           	BANKSEL	r0x1003
000c9c   0380     CLR	0x80                 	CLR	r0x1003
                                           	BANKSEL	_EIE1_bits
000c9d   792c     JB	0x2c, 1               	JB	_EIE1_bits, 1
000c9e   cca0     JMP	#0xca0               	JMP	_00027_DS_
                                           	BANKSEL	r0x1003
000c9f   0b80     INC	0x80                 	INC	r0x1003
                                           _00027_DS_
                                           	BANKSEL	r0x1003
000ca0   0e80     MOVZ	R0, 0x80            	MOVZ	R0, r0x1003
                                           	BANKSEL	r0x1001
000ca1   2982     AND	0x82, R0             	AND	r0x1001, R0
000ca2   9800     MOV	R0, #0               	MOV	R0,# 0x00
                                           	BANKSEL	r0x1001
000ca3   3082     ORL	R0, 0x82             	ORL	R0, r0x1001
000ca4   7203     JNB	0x3, 2               	JNB	PSW, 2
000ca5   cca7     JMP	#0xca7               	JMP	_00028_DS_
                                           	BANKSEL	_EIF1_bits
000ca6   610c     CLR	0xc, 1               	CLR	_EIF1_bits, 1
                                           _00028_DS_
                                           	BANKSEL	I0R1
000ca7   52dd     MOV	R1, 0xdd             	MOV	R1, I0R1
                                           	BANKSEL	I0R7
000ca8   5ede     MOV	R7, 0xde             	MOV	R7, I0R7
                                           	BANKSEL	I0PSW
000ca9   50df     MOV	R0, 0xdf             	MOV	R0, I0PSW
000caa   5103     MOV	0x3, R0              	MOV	PSW, R0
000cab   5073     MOV	R0, 0x73             	MOV	R0, TRAPRx73
000cac   7176     JNB	0x76, 1              	JNB	TRAPRx76, 1
000cad   5074     MOV	R0, 0x74             	MOV	R0, TRAPRx74
000cae   6276     CLR	0x76, 2              	CLR	TRAPRx76, 2
000caf   510a     MOV	0xa, R0              	MOV	PCH, R0
000cb0   5717     MOV	0x17, R3             	MOV	BANK, R3
000cb1   f8d0     MOV	R0, R2               	MOV	R0, R2
000cb2   0009     IRET                     	IRET	
                                           func._int_fun1	.code
                                           _int_fun1	;Function start
                                           interrupt_service_routine_0x14
                                           _00021_DS_
                                           	IRET	
                                           func._main	.code
                                           _main	;Function start
000b10   9878     MOV	R0, #0x78            	MOV	R0,# 0x78
000b11   e100     MOVB	#0x00               	BANKSEL	_SCLKCTL
000b12   5169     MOV	0x69, R0             	MOV	_SCLKCTL, R0
000b13   988e     MOV	R0, #0x8e            	MOV	R0,# 0x8e
                                           	BANKSEL	_HFCKCTL
000b14   516a     MOV	0x6a, R0             	MOV	_HFCKCTL, R0
000b15   9f0e     MOV	R7, #0xe             	TRAPPC1	_Init_IO
000b16   5f73     MOV	0x73, R7             	TRAPPC2	_Init_IO
000b17   e00e     MOVP	#0x0E               	PAGESEL	_Init_IO
000b18   de96     CALL	#0xe96              	CALL	_Init_IO
000b19   9f0b     MOV	R7, #0xb             	TRAPPC1	$+2
000b1a   5f73     MOV	0x73, R7             	TRAPPC2	$+1
000b1b   e00b     MOVP	#0x0B               	PAGESEL	$
000b1c   9f0e     MOV	R7, #0xe             	TRAPPC1	_IS31FL3265B_Init
000b1d   5f73     MOV	0x73, R7             	TRAPPC2	_IS31FL3265B_Init
000b1e   e00e     MOVP	#0x0E               	PAGESEL	_IS31FL3265B_Init
000b1f   deea     CALL	#0xeea              	CALL	_IS31FL3265B_Init
000b20   9f0b     MOV	R7, #0xb             	TRAPPC1	$+2
000b21   5f73     MOV	0x73, R7             	TRAPPC2	$+1
000b22   e00b     MOVP	#0x0B               	PAGESEL	$
000b23   9f0f     MOV	R7, #0xf             	TRAPPC1	_Timer0_Init
000b24   5f73     MOV	0x73, R7             	TRAPPC2	_Timer0_Init
000b25   e00f     MOVP	#0x0F               	PAGESEL	_Timer0_Init
000b26   dfc3     CALL	#0xfc3              	CALL	_Timer0_Init
000b27   9f0b     MOV	R7, #0xb             	TRAPPC1	$+2
000b28   5f73     MOV	0x73, R7             	TRAPPC2	$+1
000b29   e00b     MOVP	#0x0B               	PAGESEL	$
000b2a   9f0f     MOV	R7, #0xf             	TRAPPC1	_Timer1_Init
000b2b   5f73     MOV	0x73, R7             	TRAPPC2	_Timer1_Init
000b2c   e00f     MOVP	#0x0F               	PAGESEL	_Timer1_Init
000b2d   dfb7     CALL	#0xfb7              	CALL	_Timer1_Init
000b2e   9f0b     MOV	R7, #0xb             	TRAPPC1	$+2
000b2f   5f73     MOV	0x73, R7             	TRAPPC2	$+1
000b30   e00b     MOVP	#0x0B               	PAGESEL	$
000b31   9f0f     MOV	R7, #0xf             	TRAPPC1	_Timer2_Init
000b32   5f73     MOV	0x73, R7             	TRAPPC2	_Timer2_Init
000b33   e00f     MOVP	#0x0F               	PAGESEL	_Timer2_Init
000b34   dfa9     CALL	#0xfa9              	CALL	_Timer2_Init
000b35   9f0b     MOV	R7, #0xb             	TRAPPC1	$+2
000b36   5f73     MOV	0x73, R7             	TRAPPC2	$+1
000b37   e00b     MOVP	#0x0B               	PAGESEL	$
000b38   e100     MOVB	#0x00               	BANKSEL	_INTCTL_bits
000b39   6e0b     SET	0xb, 6               	SET	_INTCTL_bits, 6
                                           	BANKSEL	_INTCTL_bits
000b3a   6f0b     SET	0xb, 7               	SET	_INTCTL_bits, 7
000b3b   9800     MOV	R0, #0               	MOV	R0,# 0x00
                                           	BANKSEL	_FistBootFlag
000b3c   3083     ORL	R0, 0x83             	ORL	R0, _FistBootFlag
000b3d   7203     JNB	0x3, 2               	JNB	PSW, 2
000b3e   cb47     JMP	#0xb47               	JMP	_00004_DS_
                                           	BANKSEL	_FistBootFlag
000b3f   0383     CLR	0x83                 	CLR	_FistBootFlag
000b40   9f0a     MOV	R7, #0xa             	TRAPPC1	_Led_Hello_Check
000b41   5f73     MOV	0x73, R7             	TRAPPC2	_Led_Hello_Check
000b42   e00a     MOVP	#0x0A               	PAGESEL	_Led_Hello_Check
000b43   da69     CALL	#0xa69              	CALL	_Led_Hello_Check
000b44   9f0b     MOV	R7, #0xb             	TRAPPC1	$+2
000b45   5f73     MOV	0x73, R7             	TRAPPC2	$+1
000b46   e00b     MOVP	#0x0B               	PAGESEL	$
                                           _00004_DS_
000b47   9f04     MOV	R7, #0x4             	TRAPPC1	_Tail_Stop_Check_Input
000b48   5f73     MOV	0x73, R7             	TRAPPC2	_Tail_Stop_Check_Input
000b49   e004     MOVP	#0x04               	PAGESEL	_Tail_Stop_Check_Input
000b4a   d4cf     CALL	#0x4cf              	CALL	_Tail_Stop_Check_Input
000b4b   9f0b     MOV	R7, #0xb             	TRAPPC1	$+2
000b4c   5f73     MOV	0x73, R7             	TRAPPC2	$+1
000b4d   e00b     MOVP	#0x0B               	PAGESEL	$
000b4e   9f07     MOV	R7, #0x7             	TRAPPC1	_RT_Check_Input
000b4f   5f73     MOV	0x73, R7             	TRAPPC2	_RT_Check_Input
000b50   e007     MOVP	#0x07               	PAGESEL	_RT_Check_Input
000b51   d754     CALL	#0x754              	CALL	_RT_Check_Input
000b52   9f0b     MOV	R7, #0xb             	TRAPPC1	$+2
000b53   5f73     MOV	0x73, R7             	TRAPPC2	$+1
000b54   e00b     MOVP	#0x0B               	PAGESEL	$
000b55   cb47     JMP	#0xb47               	JMP	_00004_DS_
000b56   0008     CRET                     	CRET	
                                           	.end
                                           .config
008007   06d4     DECR	0xd4               
008008   ffff     NOPZ                    
                                           func.__divsint
000dd0   f7f8     JB	R0, 7                
000dd1   cde7     JMP	#0xde7              
000dd2   e100     MOVB	#0x00              
000dd3   77ef     JNB	0xef, 7             
000dd4   cdd6     JMP	#0xdd6              
000dd5   cde1     JMP	#0xde1              
000dd6   05ef     CPL	0xef                
000dd7   05ee     CPL	0xee                
000dd8   0bee     INC	0xee                
000dd9   7203     JNB	0x3, 2              
000dda   0bef     INC	0xef                
000ddb   05f0     CPL	0xf0                
000ddc   ff00     CPL	R0                  
000ddd   0bf0     INC	0xf0                
000dde   7203     JNB	0x3, 2              
000ddf   ff10     INC	R0                  
000de0   cdfe     JMP	#0xdfe              
000de1   05f0     CPL	0xf0                
000de2   ff00     CPL	R0                  
000de3   0bf0     INC	0xf0                
000de4   7203     JNB	0x3, 2              
000de5   ff10     INC	R0                  
000de6   cdf0     JMP	#0xdf0              
000de7   e100     MOVB	#0x00              
000de8   77ef     JNB	0xef, 7             
000de9   cdeb     JMP	#0xdeb              
000dea   cdfe     JMP	#0xdfe              
000deb   05ef     CPL	0xef                
000dec   05ee     CPL	0xee                
000ded   0bee     INC	0xee                
000dee   7203     JNB	0x3, 2              
000def   0bef     INC	0xef                
000df0   9f0d     MOV	R7, #0xd            
000df1   5f73     MOV	0x73, R7            
000df2   e00d     MOVP	#0x0D              
000df3   dd63     CALL	#0xd63             
000df4   9f0d     MOV	R7, #0xd            
000df5   5f73     MOV	0x73, R7            
000df6   e00d     MOVP	#0x0D              
000df7   e100     MOVB	#0x00              
000df8   05f0     CPL	0xf0                
000df9   ff00     CPL	R0                  
000dfa   0bf0     INC	0xf0                
000dfb   7203     JNB	0x3, 2              
000dfc   ff10     INC	R0                  
000dfd   ce02     JMP	#0xe02              
000dfe   9f0d     MOV	R7, #0xd            
000dff   5f73     MOV	0x73, R7            
000e00   e00d     MOVP	#0x0D              
000e01   dd63     CALL	#0xd63             
000e02   0008     CRET                    
                                           func.__hmulchar
000f99   e102     MOVB	#0x02              
000f9a   034f     CLR	0x4f                
000f9b   0350     CLR	0x50                
000f9c   0349     CLR	0x49                
000f9d   5148     MOV	0x48, R0            
000f9e   e100     MOVB	#0x00              
000f9f   50f0     MOV	R0, 0xf0            
000fa0   e102     MOVB	#0x02              
000fa1   514e     MOV	0x4e, R0            
000fa2   694f     SET	0x4f, 1             
000fa3   784f     JB	0x4f, 0              
000fa4   cfa3     JMP	#0xfa3              
000fa5   034f     CLR	0x4f                
000fa6   504d     MOV	R0, 0x4d            
000fa7   0008     CRET                    
000fa8   0008     CRET                    
                                           func.__gsinit_startup
000fdc   9f0d     MOV	R7, #0xd            
000fdd   5f73     MOV	0x73, R7            
000fde   e00d     MOVP	#0x0D              
000fdf   dd9b     CALL	#0xd9b             
000fe0   9f0f     MOV	R7, #0xf            
000fe1   5f73     MOV	0x73, R7            
000fe2   e00f     MOVP	#0x0F              
000fe3   0008     CRET                    
                                           func.__divuint
000d63   e100     MOVB	#0x00              
000d64   52ef     MOV	R1, 0xef            
000d65   32ee     ORL	R1, 0xee            
000d66   7203     JNB	0x3, 2              
000d67   cd9a     JMP	#0xd9a              
000d68   03ed     CLR	0xed                
000d69   03ec     CLR	0xec                
000d6a   03eb     CLR	0xeb                
000d6b   03ea     CLR	0xea                
000d6c   68ea     SET	0xea, 0             
000d6d   77ef     JNB	0xef, 7             
000d6e   cd76     JMP	#0xd76              
000d6f   6003     CLR	0x3, 0              
000d70   13ee     RLC	0xee                
000d71   13ef     RLC	0xef                
000d72   6003     CLR	0x3, 0              
000d73   13ea     RLC	0xea                
000d74   13eb     RLC	0xeb                
000d75   cd6d     JMP	#0xd6d              
000d76   52eb     MOV	R1, 0xeb            
000d77   32ea     ORL	R1, 0xea            
000d78   7203     JNB	0x3, 2              
000d79   cd97     JMP	#0xd97              
000d7a   52ef     MOV	R1, 0xef            
000d7b   f841     SUB	R1, R0              
000d7c   7a03     JB	0x3, 2               
000d7d   cd80     JMP	#0xd80              
000d7e   52ee     MOV	R1, 0xee            
000d7f   3af0     SUB	R1, 0xf0            
000d80   7803     JB	0x3, 0               
000d81   cd90     JMP	#0xd90              
000d82   52ea     MOV	R1, 0xea            
000d83   23ec     ADD	0xec, R1            
000d84   52eb     MOV	R1, 0xeb            
000d85   7003     JNB	0x3, 0              
000d86   ff11     INC	R1                  
000d87   23ed     ADD	0xed, R1            
000d88   52ee     MOV	R1, 0xee            
000d89   3af0     SUB	R1, 0xf0            
000d8a   53f0     MOV	0xf0, R1            
000d8b   7803     JB	0x3, 0               
000d8c   ff08     DEC	R0                  
000d8d   52ef     MOV	R1, 0xef            
000d8e   f841     SUB	R1, R0              
000d8f   f8c8     MOV	R0, R1              
000d90   6003     CLR	0x3, 0              
000d91   11ef     RRC	0xef                
000d92   11ee     RRC	0xee                
000d93   6003     CLR	0x3, 0              
000d94   11eb     RRC	0xeb                
000d95   11ea     RRC	0xea                
000d96   cd76     JMP	#0xd76              
000d97   50ec     MOV	R0, 0xec            
000d98   51f0     MOV	0xf0, R0            
000d99   50ed     MOV	R0, 0xed            
000d9a   0008     CRET                    
                                           _sartup_A100GQS
000ec5   e100     MOVB	#0x00              
000ec6   6f53     SET	0x53, 7             
000ec7   6853     SET	0x53, 0             
000ec8   e070     MOVP	#0x70              
000ec9   dffb     CALL	#0xffb             
000eca   e103     MOVB	#0x03              
000ecb   5161     MOV	0x61, R0            
000ecc   ffff     NOPZ                    
000ecd   ffff     NOPZ                    
000ece   dff8     CALL	#0xff8             
000ecf   5165     MOV	0x65, R0            
000ed0   ffff     NOPZ                    
000ed1   ffff     NOPZ                    
000ed2   e100     MOVB	#0x00              
000ed3   6753     CLR	0x53, 7             
000ed4   dffe     CALL	#0xffe             
000ed5   e100     MOVB	#0x00              
000ed6   5137     MOV	0x37, R0            
000ed7   ffff     NOPZ                    
000ed8   ffff     NOPZ                    
000ed9   dffd     CALL	#0xffd             
000eda   5130     MOV	0x30, R0            
000edb   ffff     NOPZ                    
000edc   ffff     NOPZ                    
000edd   dffc     CALL	#0xffc             
000ede   e101     MOVB	#0x01              
000edf   5132     MOV	0x32, R0            
000ee0   ffff     NOPZ                    
000ee1   ffff     NOPZ                    
000ee2   dffa     CALL	#0xffa             
000ee3   e102     MOVB	#0x02              
000ee4   513b     MOV	0x3b, R0            
000ee5   ffff     NOPZ                    
000ee6   dff9     CALL	#0xff9             
000ee7   513c     MOV	0x3c, R0            
000ee8   ffff     NOPZ                    
000ee9   0008     CRET                    
                                           .cinit
000d9b   e100     MOVB	#0x00              
000d9c   9880     MOV	R0, #0x80           
000d9d   9903     MOV	R1, #0x3            
000d9e   e00d     MOVP	#0x0D              
000d9f   ddca     CALL	#0xdca             
000da0   9886     MOV	R0, #0x86           
000da1   9941     MOV	R1, #0x41           
000da2   e00d     MOVP	#0x0D              
000da3   ddca     CALL	#0xdca             
000da4   98d5     MOV	R0, #0xd5           
000da5   991c     MOV	R1, #0x1c           
000da6   e00d     MOVP	#0x0D              
000da7   ddca     CALL	#0xdca             
000da8   9800     MOV	R0, #0              
000da9   5173     MOV	0x73, R0            
000daa   5174     MOV	0x74, R0            
000dab   5175     MOV	0x75, R0            
000dac   5176     MOV	0x76, R0            
000dad   5177     MOV	0x77, R0            
000dae   9801     MOV	R0, #0x1            
000daf   5183     MOV	0x83, R0            
000db0   9800     MOV	R0, #0              
000db1   5184     MOV	0x84, R0            
000db2   9800     MOV	R0, #0              
000db3   5185     MOV	0x85, R0            
000db4   9800     MOV	R0, #0              
000db5   51c7     MOV	0xc7, R0            
000db6   51c8     MOV	0xc8, R0            
000db7   9800     MOV	R0, #0              
000db8   51c9     MOV	0xc9, R0            
000db9   51ca     MOV	0xca, R0            
000dba   9800     MOV	R0, #0              
000dbb   51cb     MOV	0xcb, R0            
000dbc   51cc     MOV	0xcc, R0            
000dbd   9800     MOV	R0, #0              
000dbe   51cd     MOV	0xcd, R0            
000dbf   51ce     MOV	0xce, R0            
000dc0   9800     MOV	R0, #0              
000dc1   51cf     MOV	0xcf, R0            
000dc2   51d0     MOV	0xd0, R0            
000dc3   9800     MOV	R0, #0              
000dc4   51d1     MOV	0xd1, R0            
000dc5   51d2     MOV	0xd2, R0            
000dc6   9800     MOV	R0, #0              
000dc7   51d3     MOV	0xd3, R0            
000dc8   51d4     MOV	0xd4, R0            
000dc9   0008     CRET                    
000dca   020a     CLR	R2                  
000dcb   f750     ST	[R0], R2             
000dcc   ff10     INC	R0                  
000dcd   ff59     DECJZ	R1                
000dce   cdcb     JMP	#0xdcb              
000dcf   0008     CRET                    
