gplink-2.0.0
Copyright (c) IDE Tool Project
 
 
Address  Value    Disassembly              Source
-------  -----    -----------              ------
                                           	.radix dec
                                           	.include "KF8A100GQS.inc"
                                           func._IS31FL3265B_Init	.code
                                           _IS31FL3265B_Init	;Function start
000c92   e100     MOVB	#0x00               	BANKSEL	_P1LR_bits
000c93   6a47     SET	0x47, 2              	SET	_P1LR_bits, 2
000c94   e101     MOVB	#0x01               	BANKSEL	_P5LR_bits
000c95   6d45     SET	0x45, 5              	SET	_P5LR_bits, 5
000c96   e100     MOVB	#0x00               	BANKSEL	_P0LR_bits
000c97   6c45     SET	0x45, 4              	SET	_P0LR_bits, 4
000c98   e101     MOVB	#0x01               	BANKSEL	_P6LR_bits
000c99   6a46     SET	0x46, 2              	SET	_P6LR_bits, 2
000c9a   e100     MOVB	#0x00               	BANKSEL	_P1LR_bits
000c9b   6847     SET	0x47, 0              	SET	_P1LR_bits, 0
000c9c   e104     MOVB	#0x04               	BANKSEL	_PALR_bits
000c9d   6925     SET	0x25, 1              	SET	_PALR_bits, 1
000c9e   9802     MOV	R0, #0x2             	MOV	R0,# 0x02
000c9f   e100     MOVB	#0x00               	BANKSEL	r0x1005
000ca0   51af     MOV	0xaf, R0             	MOV	r0x1005, R0
                                           _00058_DS_
000ca1   9814     MOV	R0, #0x14            	MOV	R0,# 0x14
                                           	BANKSEL	r0x1005
000ca2   38af     SUB	R0, 0xaf             	SUB	R0, r0x1005
000ca3   7003     JNB	0x3, 0               	JNB	PSW, 0
000ca4   ccb4     JMP	#0xcb4               	JMP	_00061_DS_
000ca5   98ff     MOV	R0, #0xff            	MOV	R0,# 0xff
                                           	BANKSEL	STK01
000ca6   51d1     MOV	0xd1, R0             	MOV	STK01, R0
                                           	BANKSEL	r0x1005
000ca7   0eaf     MOVZ	R0, 0xaf            	MOVZ	R0, r0x1005
                                           	BANKSEL	STK00
000ca8   51d2     MOV	0xd2, R0             	MOV	STK00, R0
000ca9   980f     MOV	R0, #0xf             	MOV	R0,# 0x0f
000caa   9f0e     MOV	R7, #0xe             	TRAPPC1	_SPI_Write_1Byte
000cab   5f73     MOV	0x73, R7             	TRAPPC2	_SPI_Write_1Byte
000cac   e00e     MOVP	#0x0E               	PAGESEL	_SPI_Write_1Byte
000cad   dee1     CALL	#0xee1              	CALL	_SPI_Write_1Byte
000cae   9f0c     MOV	R7, #0xc             	TRAPPC1	$+2
000caf   5f73     MOV	0x73, R7             	TRAPPC2	$+1
000cb0   e00c     MOVP	#0x0C               	PAGESEL	$
000cb1   e100     MOVB	#0x00               	BANKSEL	r0x1005
000cb2   0baf     INC	0xaf                 	INC	r0x1005
000cb3   cca1     JMP	#0xca1               	JMP	_00058_DS_
                                           _00061_DS_
000cb4   981f     MOV	R0, #0x1f            	MOV	R0,# 0x1f
                                           	BANKSEL	r0x1005
000cb5   51af     MOV	0xaf, R0             	MOV	r0x1005, R0
                                           _00062_DS_
000cb6   9831     MOV	R0, #0x31            	MOV	R0,# 0x31
                                           	BANKSEL	r0x1005
000cb7   38af     SUB	R0, 0xaf             	SUB	R0, r0x1005
000cb8   7003     JNB	0x3, 0               	JNB	PSW, 0
000cb9   ccc9     JMP	#0xcc9               	JMP	_00065_DS_
000cba   9800     MOV	R0, #0               	MOV	R0,# 0x00
                                           	BANKSEL	STK01
000cbb   51d1     MOV	0xd1, R0             	MOV	STK01, R0
                                           	BANKSEL	r0x1005
000cbc   0eaf     MOVZ	R0, 0xaf            	MOVZ	R0, r0x1005
                                           	BANKSEL	STK00
000cbd   51d2     MOV	0xd2, R0             	MOV	STK00, R0
000cbe   980f     MOV	R0, #0xf             	MOV	R0,# 0x0f
000cbf   9f0e     MOV	R7, #0xe             	TRAPPC1	_SPI_Write_1Byte
000cc0   5f73     MOV	0x73, R7             	TRAPPC2	_SPI_Write_1Byte
000cc1   e00e     MOVP	#0x0E               	PAGESEL	_SPI_Write_1Byte
000cc2   dee1     CALL	#0xee1              	CALL	_SPI_Write_1Byte
000cc3   9f0c     MOV	R7, #0xc             	TRAPPC1	$+2
000cc4   5f73     MOV	0x73, R7             	TRAPPC2	$+1
000cc5   e00c     MOVP	#0x0C               	PAGESEL	$
000cc6   e100     MOVB	#0x00               	BANKSEL	r0x1005
000cc7   0baf     INC	0xaf                 	INC	r0x1005
000cc8   ccb6     JMP	#0xcb6               	JMP	_00062_DS_
                                           _00065_DS_
000cc9   9820     MOV	R0, #0x20            	MOV	R0,# 0x20
                                           	BANKSEL	STK01
000cca   51d1     MOV	0xd1, R0             	MOV	STK01, R0
000ccb   9801     MOV	R0, #0x1             	MOV	R0,# 0x01
                                           	BANKSEL	STK00
000ccc   51d2     MOV	0xd2, R0             	MOV	STK00, R0
000ccd   980f     MOV	R0, #0xf             	MOV	R0,# 0x0f
000cce   9f0e     MOV	R7, #0xe             	TRAPPC1	_SPI_Write_1Byte
000ccf   5f73     MOV	0x73, R7             	TRAPPC2	_SPI_Write_1Byte
000cd0   e00e     MOVP	#0x0E               	PAGESEL	_SPI_Write_1Byte
000cd1   dee1     CALL	#0xee1              	CALL	_SPI_Write_1Byte
000cd2   9f0c     MOV	R7, #0xc             	TRAPPC1	$+2
000cd3   5f73     MOV	0x73, R7             	TRAPPC2	$+1
000cd4   e00c     MOVP	#0x0C               	PAGESEL	$
000cd5   9801     MOV	R0, #0x1             	MOV	R0,# 0x01
000cd6   e100     MOVB	#0x00               	BANKSEL	STK01
000cd7   51d1     MOV	0xd1, R0             	MOV	STK01, R0
000cd8   9800     MOV	R0, #0               	MOV	R0,# 0x00
                                           	BANKSEL	STK00
000cd9   51d2     MOV	0xd2, R0             	MOV	STK00, R0
000cda   980f     MOV	R0, #0xf             	MOV	R0,# 0x0f
000cdb   9f0e     MOV	R7, #0xe             	TRAPPC1	_SPI_Write_1Byte
000cdc   5f73     MOV	0x73, R7             	TRAPPC2	_SPI_Write_1Byte
000cdd   e00e     MOVP	#0x0E               	PAGESEL	_SPI_Write_1Byte
000cde   dee1     CALL	#0xee1              	CALL	_SPI_Write_1Byte
000cdf   9f0c     MOV	R7, #0xc             	TRAPPC1	$+2
000ce0   5f73     MOV	0x73, R7             	TRAPPC2	$+1
000ce1   e00c     MOVP	#0x0C               	PAGESEL	$
000ce2   9800     MOV	R0, #0               	MOV	R0,# 0x00
000ce3   e100     MOVB	#0x00               	BANKSEL	STK01
000ce4   51d1     MOV	0xd1, R0             	MOV	STK01, R0
000ce5   9837     MOV	R0, #0x37            	MOV	R0,# 0x37
                                           	BANKSEL	STK00
000ce6   51d2     MOV	0xd2, R0             	MOV	STK00, R0
000ce7   980f     MOV	R0, #0xf             	MOV	R0,# 0x0f
000ce8   9f0e     MOV	R7, #0xe             	TRAPPC1	_SPI_Write_1Byte
000ce9   5f73     MOV	0x73, R7             	TRAPPC2	_SPI_Write_1Byte
000cea   e00e     MOVP	#0x0E               	PAGESEL	_SPI_Write_1Byte
000ceb   dee1     CALL	#0xee1              	CALL	_SPI_Write_1Byte
000cec   9f0c     MOV	R7, #0xc             	TRAPPC1	$+2
000ced   5f73     MOV	0x73, R7             	TRAPPC2	$+1
000cee   e00c     MOVP	#0x0C               	PAGESEL	$
000cef   9800     MOV	R0, #0               	MOV	R0,# 0x00
000cf0   e100     MOVB	#0x00               	BANKSEL	STK01
000cf1   51d1     MOV	0xd1, R0             	MOV	STK01, R0
000cf2   9836     MOV	R0, #0x36            	MOV	R0,# 0x36
                                           	BANKSEL	STK00
000cf3   51d2     MOV	0xd2, R0             	MOV	STK00, R0
000cf4   980f     MOV	R0, #0xf             	MOV	R0,# 0x0f
000cf5   9f0e     MOV	R7, #0xe             	TRAPPC1	_SPI_Write_1Byte
000cf6   5f73     MOV	0x73, R7             	TRAPPC2	_SPI_Write_1Byte
000cf7   e00e     MOVP	#0x0E               	PAGESEL	_SPI_Write_1Byte
000cf8   dee1     CALL	#0xee1              	CALL	_SPI_Write_1Byte
000cf9   9f0c     MOV	R7, #0xc             	TRAPPC1	$+2
000cfa   5f73     MOV	0x73, R7             	TRAPPC2	$+1
000cfb   e00c     MOVP	#0x0C               	PAGESEL	$
000cfc   0008     CRET                     	CRET	
                                           func._SPI_Write_1Byte	.code
                                           _SPI_Write_1Byte	;Function start
000ee1   e100     MOVB	#0x00               	BANKSEL	r0x1004
000ee2   51b0     MOV	0xb0, R0             	MOV	r0x1004, R0
                                           	BANKSEL	STK00
000ee3   0ed2     MOVZ	R0, 0xd2            	MOVZ	R0, STK00
                                           	BANKSEL	_SPI_Write_1Byte_SPI_adr_1_1
000ee4   51ae     MOV	0xae, R0             	MOV	_SPI_Write_1Byte_SPI_adr_1_1, R0
                                           	BANKSEL	STK01
000ee5   0ed1     MOVZ	R0, 0xd1            	MOVZ	R0, STK01
                                           	BANKSEL	_SPI_Write_1Byte_SPI_data_1_1
000ee6   51ad     MOV	0xad, R0             	MOV	_SPI_Write_1Byte_SPI_data_1_1, R0
                                           	BANKSEL	r0x1004
000ee7   78b0     JB	0xb0, 0               	JB	r0x1004, 0
000ee8   ceea     JMP	#0xeea               	JMP	_00076_DS_
                                           	BANKSEL	_P0LR_bits
000ee9   6445     CLR	0x45, 4              	CLR	_P0LR_bits, 4
                                           _00076_DS_
                                           	BANKSEL	r0x1004
000eea   79b0     JB	0xb0, 1               	JB	r0x1004, 1
000eeb   ceee     JMP	#0xeee               	JMP	_00077_DS_
000eec   e101     MOVB	#0x01               	BANKSEL	_P6LR_bits
000eed   6246     CLR	0x46, 2              	CLR	_P6LR_bits, 2
                                           _00077_DS_
000eee   e100     MOVB	#0x00               	BANKSEL	r0x1004
000eef   7ab0     JB	0xb0, 2               	JB	r0x1004, 2
000ef0   cef2     JMP	#0xef2               	JMP	_00027_DS_
                                           	BANKSEL	_P1LR_bits
000ef1   6047     CLR	0x47, 0              	CLR	_P1LR_bits, 0
                                           _00027_DS_
                                           	BANKSEL	r0x1004
000ef2   7bb0     JB	0xb0, 3               	JB	r0x1004, 3
000ef3   cef6     JMP	#0xef6               	JMP	_00029_DS_
000ef4   e104     MOVB	#0x04               	BANKSEL	_PALR_bits
000ef5   6125     CLR	0x25, 1              	CLR	_PALR_bits, 1
                                           _00029_DS_
000ef6   e100     MOVB	#0x00               	BANKSEL	_SPI_Write_1Byte_SPI_adr_1_1
000ef7   0eae     MOVZ	R0, 0xae            	MOVZ	R0, _SPI_Write_1Byte_SPI_adr_1_1
000ef8   e102     MOVB	#0x02               	BANKSEL	_SSCI2BUFR
000ef9   5107     MOV	0x7, R0              	MOV	_SSCI2BUFR, R0
                                           _00030_DS_
000efa   e105     MOVB	#0x05               	BANKSEL	_EIF6_bits
000efb   7c1c     JB	0x1c, 4               	JB	_EIF6_bits, 4
000efc   cefa     JMP	#0xefa               	JMP	_00030_DS_
                                           	BANKSEL	_EIF6_bits
000efd   641c     CLR	0x1c, 4              	CLR	_EIF6_bits, 4
000efe   e102     MOVB	#0x02               	BANKSEL	_SSCI2BUFR
000eff   0e07     MOVZ	R0, 0x7             	MOVZ	R0, _SSCI2BUFR
000f00   e100     MOVB	#0x00               	BANKSEL	_SPI_Write_1Byte_buf_1_1
000f01   51bd     MOV	0xbd, R0             	MOV	_SPI_Write_1Byte_buf_1_1, R0
                                           	BANKSEL	_SPI_Write_1Byte_buf_1_1
000f02   03be     CLR	0xbe                 	CLR	(_SPI_Write_1Byte_buf_1_1 + 1)
                                           	BANKSEL	_SPI_Write_1Byte_SPI_data_1_1
000f03   0ead     MOVZ	R0, 0xad            	MOVZ	R0, _SPI_Write_1Byte_SPI_data_1_1
000f04   e102     MOVB	#0x02               	BANKSEL	_SSCI2BUFR
000f05   5107     MOV	0x7, R0              	MOV	_SSCI2BUFR, R0
                                           _00033_DS_
000f06   e105     MOVB	#0x05               	BANKSEL	_EIF6_bits
000f07   7c1c     JB	0x1c, 4               	JB	_EIF6_bits, 4
000f08   cf06     JMP	#0xf06               	JMP	_00033_DS_
                                           	BANKSEL	_EIF6_bits
000f09   641c     CLR	0x1c, 4              	CLR	_EIF6_bits, 4
000f0a   e102     MOVB	#0x02               	BANKSEL	_SSCI2BUFR
000f0b   0e07     MOVZ	R0, 0x7             	MOVZ	R0, _SSCI2BUFR
000f0c   e100     MOVB	#0x00               	BANKSEL	_SPI_Write_1Byte_buf_1_1
000f0d   51bd     MOV	0xbd, R0             	MOV	_SPI_Write_1Byte_buf_1_1, R0
                                           	BANKSEL	_SPI_Write_1Byte_buf_1_1
000f0e   03be     CLR	0xbe                 	CLR	(_SPI_Write_1Byte_buf_1_1 + 1)
                                           	BANKSEL	r0x1004
000f0f   78b0     JB	0xb0, 0               	JB	r0x1004, 0
000f10   cf12     JMP	#0xf12               	JMP	_00078_DS_
                                           	BANKSEL	_P0LR_bits
000f11   6c45     SET	0x45, 4              	SET	_P0LR_bits, 4
                                           _00078_DS_
                                           	BANKSEL	r0x1004
000f12   79b0     JB	0xb0, 1               	JB	r0x1004, 1
000f13   cf16     JMP	#0xf16               	JMP	_00079_DS_
000f14   e101     MOVB	#0x01               	BANKSEL	_P6LR_bits
000f15   6a46     SET	0x46, 2              	SET	_P6LR_bits, 2
                                           _00079_DS_
000f16   e100     MOVB	#0x00               	BANKSEL	r0x1004
000f17   7ab0     JB	0xb0, 2               	JB	r0x1004, 2
000f18   cf1a     JMP	#0xf1a               	JMP	_00041_DS_
                                           	BANKSEL	_P1LR_bits
000f19   6847     SET	0x47, 0              	SET	_P1LR_bits, 0
                                           _00041_DS_
                                           	BANKSEL	r0x1004
000f1a   7bb0     JB	0xb0, 3               	JB	r0x1004, 3
000f1b   cf1e     JMP	#0xf1e               	JMP	_00044_DS_
000f1c   e104     MOVB	#0x04               	BANKSEL	_PALR_bits
000f1d   6925     SET	0x25, 1              	SET	_PALR_bits, 1
                                           _00044_DS_
000f1e   0008     CRET                     	CRET	
                                           func._delay_10us	.code
                                           _delay_10us	;Function start
                                           	BANKSEL	r0x1006
                                           	MOV	r0x1006, R0
                                           	BANKSEL	STK00
                                           	MOVZ	R0, STK00
                                           	BANKSEL	r0x1007
                                           	MOV	r0x1007, R0
                                           _00015_DS_
                                           	BANKSEL	r0x1007
                                           	MOVZ	R0, r0x1007
                                           	BANKSEL	r0x1008
                                           	MOV	r0x1008, R0
                                           	BANKSEL	r0x1006
                                           	MOVZ	R0, r0x1006
                                           	BANKSEL	r0x1009
                                           	MOV	r0x1009, R0
                                           	MOV	R0,# 0xff
                                           	BANKSEL	r0x1007
                                           	ADD	r0x1007, R0
                                           	JNB	PSW, 0
                                           	JMP	_00080_DS_
                                           	BANKSEL	r0x1006
                                           	DEC	r0x1006
                                           _00080_DS_
                                           	BANKSEL	r0x1008
                                           	MOVZ	R0, r0x1008
                                           	BANKSEL	r0x1009
                                           	ORL	R0, r0x1009
                                           	JB	PSW, 2
                                           	JMP	_00015_DS_
                                           	CRET	
                                           func._SPI_Read_1Byte	.code
                                           _SPI_Read_1Byte	;Function start
                                           	BANKSEL	_SSCI2BUFR
                                           	MOV	_SSCI2BUFR, R0
                                           _00003_DS_
                                           	BANKSEL	_EIF6_bits
                                           	JB	_EIF6_bits, 4
                                           	JMP	_00003_DS_
                                           	BANKSEL	_EIF6_bits
                                           	CLR	_EIF6_bits, 4
                                           	NOP 
                                           	NOP 
                                           	NOP 
                                           	NOP 
                                           	NOP 
                                           	NOP 
                                           	NOP 
                                           	NOP 
                                           	BANKSEL	_SSCI2BUFR
                                           	CLR	_SSCI2BUFR
                                           _00006_DS_
                                           	BANKSEL	_EIF6_bits
                                           	JB	_EIF6_bits, 4
                                           	JMP	_00006_DS_
                                           	BANKSEL	_EIF6_bits
                                           	CLR	_EIF6_bits, 4
                                           	BANKSEL	_SSCI2BUFR
                                           	MOVZ	R0, _SSCI2BUFR
                                           	CRET	
                                           func._Init_SPI	.code
                                           _Init_SPI	;Function start
000fe5   e101     MOVB	#0x01               	BANKSEL	_TR9_bits
000fe6   6a29     SET	0x29, 2              	SET	_TR9_bits, 2
                                           	BANKSEL	_TR9_bits
000fe7   6129     CLR	0x29, 1              	CLR	_TR9_bits, 1
000fe8   e100     MOVB	#0x00               	BANKSEL	_TR0_bits
000fe9   6325     CLR	0x25, 3              	CLR	_TR0_bits, 3
                                           	BANKSEL	_TR0_bits
000fea   6425     CLR	0x25, 4              	CLR	_TR0_bits, 4
000feb   e101     MOVB	#0x01               	BANKSEL	_TR6_bits
000fec   6226     CLR	0x26, 2              	CLR	_TR6_bits, 2
000fed   986e     MOV	R0, #0x6e            	MOV	R0,# 0x6e
000fee   e104     MOVB	#0x04               	BANKSEL	_APFCTL9
000fef   5165     MOV	0x65, R0             	MOV	_APFCTL9, R0
000ff0   e102     MOVB	#0x02               	BANKSEL	_SSCI2CTL0_bits
000ff1   6506     CLR	0x6, 5               	CLR	_SSCI2CTL0_bits, 5
000ff2   9801     MOV	R0, #0x1             	MOV	R0,# 0x01
                                           	BANKSEL	_SSCI2CTL0
000ff3   5106     MOV	0x6, R0              	MOV	_SSCI2CTL0, R0
                                           	BANKSEL	_SSCI2CTL1
000ff4   031f     CLR	0x1f                 	CLR	_SSCI2CTL1
                                           	BANKSEL	_SSCI2CTL2
000ff5   0309     CLR	0x9                  	CLR	_SSCI2CTL2
000ff6   9840     MOV	R0, #0x40            	MOV	R0,# 0x40
                                           	BANKSEL	_SSCI2STA
000ff7   5105     MOV	0x5, R0              	MOV	_SSCI2STA, R0
                                           	BANKSEL	_SSCI2CTL0_bits
000ff8   6d06     SET	0x6, 5               	SET	_SSCI2CTL0_bits, 5
000ff9   0008     CRET                     	CRET	
                                           	.end
                                           	.radix dec
                                           	.include "KF8A100GQS.inc"
                                           func._Init_T2	.code
                                           _Init_T2	;Function start
00708a   9802     MOV	R0, #0x2             	MOV	R0,# 0x02
00708b   e100     MOVB	#0x00               	BANKSEL	_T2CTL1
00708c   5151     MOV	0x51, R0             	MOV	_T2CTL1, R0
                                           	BANKSEL	_T2H
00708d   0341     CLR	0x41                 	CLR	_T2H
                                           	BANKSEL	_T2L
00708e   0311     CLR	0x11                 	CLR	_T2L
00708f   9803     MOV	R0, #0x3             	MOV	R0,# 0x03
                                           	BANKSEL	_PP60H
007090   5142     MOV	0x42, R0             	MOV	_PP60H, R0
007091   98e8     MOV	R0, #0xe8            	MOV	R0,# 0xe8
                                           	BANKSEL	_PP60L
007092   5152     MOV	0x52, R0             	MOV	_PP60L, R0
007093   9803     MOV	R0, #0x3             	MOV	R0,# 0x03
                                           	BANKSEL	_T2CTL0
007094   5112     MOV	0x12, R0             	MOV	_T2CTL0, R0
                                           	BANKSEL	_T2CTL0_bits
007095   6a12     SET	0x12, 2              	SET	_T2CTL0_bits, 2
                                           	BANKSEL	_EIF1_bits
007096   610c     CLR	0xc, 1               	CLR	_EIF1_bits, 1
                                           	BANKSEL	_EIE1_bits
007097   692c     SET	0x2c, 1              	SET	_EIE1_bits, 1
007098   0008     CRET                     	CRET	
                                           func._Init_T1	.code
                                           _Init_T1	;Function start
007099   e101     MOVB	#0x01               	BANKSEL	_T1CTL2
00709a   0318     CLR	0x18                 	CLR	_T1CTL2
00709b   98f1     MOV	R0, #0xf1            	MOV	R0,# 0xf1
00709c   e100     MOVB	#0x00               	BANKSEL	_T1H
00709d   510f     MOV	0xf, R0              	MOV	_T1H, R0
00709e   98a9     MOV	R0, #0xa9            	MOV	R0,# 0xa9
                                           	BANKSEL	_T1L
00709f   510e     MOV	0xe, R0              	MOV	_T1L, R0
0070a0   9801     MOV	R0, #0x1             	MOV	R0,# 0x01
                                           	BANKSEL	_T1CTL
0070a1   5110     MOV	0x10, R0             	MOV	_T1CTL, R0
                                           	BANKSEL	_EIF1_bits
0070a2   600c     CLR	0xc, 0               	CLR	_EIF1_bits, 0
                                           	BANKSEL	_EIE1_bits
0070a3   682c     SET	0x2c, 0              	SET	_EIE1_bits, 0
0070a4   0008     CRET                     	CRET	
                                           func._Init_T0	.code
                                           _Init_T0	;Function start
0070a5   9883     MOV	R0, #0x83            	MOV	R0,# 0x83
0070a6   e100     MOVB	#0x00               	BANKSEL	_OPTR
0070a7   5121     MOV	0x21, R0             	MOV	_OPTR, R0
                                           	BANKSEL	_T0CTL
0070a8   034f     CLR	0x4f                 	CLR	_T0CTL
                                           	BANKSEL	_T0
0070a9   0301     CLR	0x1                  	CLR	_T0
                                           	BANKSEL	_INTCTL_bits
0070aa   620b     CLR	0xb, 2               	CLR	_INTCTL_bits, 2
                                           	BANKSEL	_INTCTL_bits
0070ab   6d0b     SET	0xb, 5               	SET	_INTCTL_bits, 5
0070ac   0008     CRET                     	CRET	
                                           func._Init_IO	.code
                                           _Init_IO	;Function start
000f1f   98ff     MOV	R0, #0xff            	MOV	R0,# 0xff
000f20   e100     MOVB	#0x00               	BANKSEL	_TR0
000f21   5125     MOV	0x25, R0             	MOV	_TR0, R0
                                           	BANKSEL	_ANS0
000f22   034a     CLR	0x4a                 	CLR	_ANS0
000f23   9802     MOV	R0, #0x2             	MOV	R0,# 0x02
                                           	BANKSEL	_TR1
000f24   5127     MOV	0x27, R0             	MOV	_TR1, R0
                                           	BANKSEL	_ANS1
000f25   034b     CLR	0x4b                 	CLR	_ANS1
                                           	BANKSEL	_P1LR
000f26   0347     CLR	0x47                 	CLR	_P1LR
                                           	BANKSEL	_TR2
000f27   0326     CLR	0x26                 	CLR	_TR2
                                           	BANKSEL	_ANS2
000f28   034c     CLR	0x4c                 	CLR	_ANS2
                                           	BANKSEL	_P2LR
000f29   0346     CLR	0x46                 	CLR	_P2LR
                                           	BANKSEL	_TR3
000f2a   0328     CLR	0x28                 	CLR	_TR3
                                           	BANKSEL	_ANS3
000f2b   034d     CLR	0x4d                 	CLR	_ANS3
                                           	BANKSEL	_P3LR
000f2c   0348     CLR	0x48                 	CLR	_P3LR
000f2d   9810     MOV	R0, #0x10            	MOV	R0,# 0x10
                                           	BANKSEL	_TR4
000f2e   5129     MOV	0x29, R0             	MOV	_TR4, R0
                                           	BANKSEL	_ANS4
000f2f   034e     CLR	0x4e                 	CLR	_ANS4
                                           	BANKSEL	_P4LR
000f30   0349     CLR	0x49                 	CLR	_P4LR
000f31   9802     MOV	R0, #0x2             	MOV	R0,# 0x02
000f32   e101     MOVB	#0x01               	BANKSEL	_TR5
000f33   5125     MOV	0x25, R0             	MOV	_TR5, R0
                                           	BANKSEL	_ANS5
000f34   034a     CLR	0x4a                 	CLR	_ANS5
                                           	BANKSEL	_P5LR
000f35   0345     CLR	0x45                 	CLR	_P5LR
                                           	BANKSEL	_TR6
000f36   0326     CLR	0x26                 	CLR	_TR6
                                           	BANKSEL	_ANS6
000f37   034b     CLR	0x4b                 	CLR	_ANS6
                                           	BANKSEL	_P6LR
000f38   0346     CLR	0x46                 	CLR	_P6LR
000f39   9806     MOV	R0, #0x6             	MOV	R0,# 0x06
                                           	BANKSEL	_TR7
000f3a   5127     MOV	0x27, R0             	MOV	_TR7, R0
                                           	BANKSEL	_ANS7
000f3b   034c     CLR	0x4c                 	CLR	_ANS7
                                           	BANKSEL	_P7LR
000f3c   0347     CLR	0x47                 	CLR	_P7LR
000f3d   980e     MOV	R0, #0xe             	MOV	R0,# 0x0e
                                           	BANKSEL	_TR9
000f3e   5129     MOV	0x29, R0             	MOV	_TR9, R0
                                           	BANKSEL	_ANS9
000f3f   034e     CLR	0x4e                 	CLR	_ANS9
                                           	BANKSEL	_P9LR
000f40   0349     CLR	0x49                 	CLR	_P9LR
000f41   9801     MOV	R0, #0x1             	MOV	R0,# 0x01
000f42   e104     MOVB	#0x04               	BANKSEL	_TRA
000f43   5126     MOV	0x26, R0             	MOV	_TRA, R0
                                           	BANKSEL	_ANSA
000f44   0328     CLR	0x28                 	CLR	_ANSA
                                           	BANKSEL	_PALR
000f45   0325     CLR	0x25                 	CLR	_PALR
                                           	BANKSEL	_TRB
000f46   032b     CLR	0x2b                 	CLR	_TRB
                                           	BANKSEL	_ANSB
000f47   032d     CLR	0x2d                 	CLR	_ANSB
                                           	BANKSEL	_PBLR
000f48   032a     CLR	0x2a                 	CLR	_PBLR
000f49   9801     MOV	R0, #0x1             	MOV	R0,# 0x01
000f4a   e100     MOVB	#0x00               	BANKSEL	STK00
000f4b   51d2     MOV	0xd2, R0             	MOV	STK00, R0
000f4c   9800     MOV	R0, #0               	MOV	R0,# 0x00
000f4d   9f0f     MOV	R7, #0xf             	TRAPPC1	_delay_10ms
000f4e   5f73     MOV	0x73, R7             	TRAPPC2	_delay_10ms
000f4f   e00f     MOVP	#0x0F               	PAGESEL	_delay_10ms
000f50   df55     CALL	#0xf55              	CALL	_delay_10ms
000f51   9f0f     MOV	R7, #0xf             	TRAPPC1	$+2
000f52   5f73     MOV	0x73, R7             	TRAPPC2	$+1
000f53   e00f     MOVP	#0x0F               	PAGESEL	$
000f54   0008     CRET                     	CRET	
                                           func._delay_10ms	.code
                                           _delay_10ms	;Function start
000f55   e100     MOVB	#0x00               	BANKSEL	r0x1000
000f56   51ab     MOV	0xab, R0             	MOV	r0x1000, R0
                                           	BANKSEL	STK00
000f57   0ed2     MOVZ	R0, 0xd2            	MOVZ	R0, STK00
                                           	BANKSEL	r0x1001
000f58   51ac     MOV	0xac, R0             	MOV	r0x1001, R0
                                           _00004_DS_
                                           	BANKSEL	r0x1001
000f59   0eac     MOVZ	R0, 0xac            	MOVZ	R0, r0x1001
                                           	BANKSEL	r0x1002
000f5a   51aa     MOV	0xaa, R0             	MOV	r0x1002, R0
                                           	BANKSEL	r0x1000
000f5b   0eab     MOVZ	R0, 0xab            	MOVZ	R0, r0x1000
                                           	BANKSEL	r0x1003
000f5c   51a9     MOV	0xa9, R0             	MOV	r0x1003, R0
000f5d   98ff     MOV	R0, #0xff            	MOV	R0,# 0xff
                                           	BANKSEL	r0x1001
000f5e   21ac     ADD	0xac, R0             	ADD	r0x1001, R0
000f5f   7003     JNB	0x3, 0               	JNB	PSW, 0
000f60   cf62     JMP	#0xf62               	JMP	_00022_DS_
                                           	BANKSEL	r0x1000
000f61   07ab     DEC	0xab                 	DEC	r0x1000
                                           _00022_DS_
                                           	BANKSEL	r0x1002
000f62   0eaa     MOVZ	R0, 0xaa            	MOVZ	R0, r0x1002
                                           	BANKSEL	r0x1003
000f63   30a9     ORL	R0, 0xa9             	ORL	R0, r0x1003
000f64   7203     JNB	0x3, 2               	JNB	PSW, 2
000f65   cf79     JMP	#0xf79               	JMP	_00007_DS_
000f66   98c4     MOV	R0, #0xc4            	MOV	R0,# 0xc4
                                           	BANKSEL	r0x1002
000f67   51aa     MOV	0xaa, R0             	MOV	r0x1002, R0
000f68   9809     MOV	R0, #0x9             	MOV	R0,# 0x09
                                           	BANKSEL	r0x1003
000f69   51a9     MOV	0xa9, R0             	MOV	r0x1003, R0
                                           _00001_DS_
                                           	BANKSEL	r0x1002
000f6a   0eaa     MOVZ	R0, 0xaa            	MOVZ	R0, r0x1002
                                           	BANKSEL	r0x1004
000f6b   51a8     MOV	0xa8, R0             	MOV	r0x1004, R0
                                           	BANKSEL	r0x1003
000f6c   0ea9     MOVZ	R0, 0xa9            	MOVZ	R0, r0x1003
                                           	BANKSEL	r0x1005
000f6d   51a7     MOV	0xa7, R0             	MOV	r0x1005, R0
000f6e   98ff     MOV	R0, #0xff            	MOV	R0,# 0xff
                                           	BANKSEL	r0x1002
000f6f   21aa     ADD	0xaa, R0             	ADD	r0x1002, R0
000f70   7003     JNB	0x3, 0               	JNB	PSW, 0
000f71   cf73     JMP	#0xf73               	JMP	_00023_DS_
                                           	BANKSEL	r0x1003
000f72   07a9     DEC	0xa9                 	DEC	r0x1003
                                           _00023_DS_
                                           	BANKSEL	r0x1004
000f73   0ea8     MOVZ	R0, 0xa8            	MOVZ	R0, r0x1004
                                           	BANKSEL	r0x1005
000f74   30a7     ORL	R0, 0xa7             	ORL	R0, r0x1005
000f75   7203     JNB	0x3, 2               	JNB	PSW, 2
000f76   cf59     JMP	#0xf59               	JMP	_00004_DS_
000f77   0000     NOP                      	NOP 
000f78   cf6a     JMP	#0xf6a               	JMP	_00001_DS_
                                           _00007_DS_
000f79   0008     CRET                     	CRET	
                                           	.end
                                           	.radix dec
                                           	.include "KF8A100GQS.inc"
                                           ID_LED_0	.idata
                                           _statu_o
                                           	.db	0x00
                                           ID_LED_1	.idata
                                           _Tail_o
                                           	.db	0x00
                                           ID_LED_2	.idata
                                           _RT_EN_o
                                           	.db	0x00
                                           ID_LED_3	.idata
                                           _huxi_c
                                           	.db	0x00
                                           ID_LED_4	.idata
                                           _Liushui_l
                                           	.db	0xff
                                           ID_LED_5	.idata
                                           _stop_l
                                           	.db	0xff
                                           func._check_input	.code
                                           _check_input	;Function start
0005e0   e100     MOVB	#0x00               	BANKSEL	r0x1017
0005e1   0393     CLR	0x93                 	CLR	r0x1017
0005e2   e101     MOVB	#0x01               	BANKSEL	_P7_bits
0005e3   7907     JB	0x7, 1                	JB	_P7_bits, 1
0005e4   c5e8     JMP	#0x5e8               	JMP	_00425_DS_
0005e5   9810     MOV	R0, #0x10            	MOV	R0,# 0x10
0005e6   e100     MOVB	#0x00               	BANKSEL	r0x1017
0005e7   5193     MOV	0x93, R0             	MOV	r0x1017, R0
                                           _00425_DS_
0005e8   e104     MOVB	#0x04               	BANKSEL	_PA_bits
0005e9   7824     JB	0x24, 0               	JB	_PA_bits, 0
0005ea   c5ee     JMP	#0x5ee               	JMP	_00427_DS_
0005eb   9808     MOV	R0, #0x8             	MOV	R0,# 0x08
0005ec   e100     MOVB	#0x00               	BANKSEL	r0x1017
0005ed   2193     ADD	0x93, R0             	ADD	r0x1017, R0
                                           _00427_DS_
0005ee   e101     MOVB	#0x01               	BANKSEL	_P7_bits
0005ef   7a07     JB	0x7, 2                	JB	_P7_bits, 2
0005f0   c5f4     JMP	#0x5f4               	JMP	_00429_DS_
0005f1   9804     MOV	R0, #0x4             	MOV	R0,# 0x04
0005f2   e100     MOVB	#0x00               	BANKSEL	r0x1017
0005f3   2193     ADD	0x93, R0             	ADD	r0x1017, R0
                                           _00429_DS_
0005f4   e101     MOVB	#0x01               	BANKSEL	_P5_bits
0005f5   7905     JB	0x5, 1                	JB	_P5_bits, 1
0005f6   c5fa     JMP	#0x5fa               	JMP	_00431_DS_
0005f7   e100     MOVB	#0x00               	BANKSEL	r0x1017
0005f8   0b93     INC	0x93                 	INC	r0x1017
                                           	BANKSEL	r0x1017
0005f9   0b93     INC	0x93                 	INC	r0x1017
                                           _00431_DS_
0005fa   9800     MOV	R0, #0               	MOV	R0,# 0x00
0005fb   e101     MOVB	#0x01               	BANKSEL	_P5_bits
0005fc   7105     JNB	0x5, 1               	JNB	_P5_bits, 1
0005fd   9801     MOV	R0, #0x1             	MOV	R0,# 0x01
0005fe   e100     MOVB	#0x00               	BANKSEL	r0x1018
0005ff   5191     MOV	0x91, R0             	MOV	r0x1018, R0
                                           	BANKSEL	_RT_EN_o
000600   0e8e     MOVZ	R0, 0x8e            	MOVZ	R0, _RT_EN_o
                                           	BANKSEL	r0x1019
000601   5192     MOV	0x92, R0             	MOV	r0x1019, R0
                                           	BANKSEL	r0x1018
000602   0e91     MOVZ	R0, 0x91            	MOVZ	R0, r0x1018
000603   8080     ADD	R0, #0x80            	ADD	R0,# 0x80
                                           	BANKSEL	r0x101A
000604   5190     MOV	0x90, R0             	MOV	r0x101A, R0
                                           	BANKSEL	r0x1019
000605   0e92     MOVZ	R0, 0x92            	MOVZ	R0, r0x1019
000606   8080     ADD	R0, #0x80            	ADD	R0,# 0x80
                                           	BANKSEL	r0x101A
000607   3890     SUB	R0, 0x90             	SUB	R0, r0x101A
000608   7003     JNB	0x3, 0               	JNB	PSW, 0
000609   c610     JMP	#0x610               	JMP	_00433_DS_
                                           	BANKSEL	_RT_cnt
00060a   03bb     CLR	0xbb                 	CLR	_RT_cnt
                                           	BANKSEL	_RT_cnt
00060b   03bc     CLR	0xbc                 	CLR	(_RT_cnt + 1)
                                           	BANKSEL	_RT_ctl
00060c   03b9     CLR	0xb9                 	CLR	_RT_ctl
                                           	BANKSEL	_RT_ctl
00060d   03ba     CLR	0xba                 	CLR	(_RT_ctl + 1)
                                           	BANKSEL	_RT_ctl_1
00060e   03b7     CLR	0xb7                 	CLR	_RT_ctl_1
                                           	BANKSEL	_RT_ctl_1
00060f   03b8     CLR	0xb8                 	CLR	(_RT_ctl_1 + 1)
                                           _00433_DS_
                                           	BANKSEL	r0x1019
000610   0392     CLR	0x92                 	CLR	r0x1019
000611   e101     MOVB	#0x01               	BANKSEL	_P5_bits
000612   7905     JB	0x5, 1                	JB	_P5_bits, 1
000613   c616     JMP	#0x616               	JMP	_00518_DS_
000614   e100     MOVB	#0x00               	BANKSEL	r0x1019
000615   0b92     INC	0x92                 	INC	r0x1019
                                           _00518_DS_
000616   e100     MOVB	#0x00               	BANKSEL	r0x1019
000617   0e92     MOVZ	R0, 0x92            	MOVZ	R0, r0x1019
                                           	BANKSEL	_RT_EN_o
000618   518e     MOV	0x8e, R0             	MOV	_RT_EN_o, R0
                                           	BANKSEL	r0x1017
000619   0e93     MOVZ	R0, 0x93            	MOVZ	R0, r0x1017
                                           	BANKSEL	_statu_o
00061a   188f     XOR	R0, 0x8f             	XOR	R0, _statu_o
00061b   7203     JNB	0x3, 2               	JNB	PSW, 2
00061c   c6ec     JMP	#0x6ec               	JMP	_00481_DS_
                                           	BANKSEL	r0x1017
00061d   0e93     MOVZ	R0, 0x93            	MOVZ	R0, r0x1017
                                           	BANKSEL	_statu_o
00061e   518f     MOV	0x8f, R0             	MOV	_statu_o, R0
00061f   9804     MOV	R0, #0x4             	MOV	R0,# 0x04
                                           	BANKSEL	r0x1017
000620   3893     SUB	R0, 0x93             	SUB	R0, r0x1017
000621   7003     JNB	0x3, 0               	JNB	PSW, 0
000622   c628     JMP	#0x628               	JMP	_00477_DS_
                                           	BANKSEL	_Mode
000623   0384     CLR	0x84                 	CLR	_Mode
                                           	BANKSEL	_mode_tail
000624   0389     CLR	0x89                 	CLR	_mode_tail
                                           	BANKSEL	_mode_rt
000625   038a     CLR	0x8a                 	CLR	_mode_rt
                                           	BANKSEL	_mode_stop
000626   0388     CLR	0x88                 	CLR	_mode_stop
000627   c6e2     JMP	#0x6e2               	JMP	_00478_DS_
                                           _00477_DS_
000628   9808     MOV	R0, #0x8             	MOV	R0,# 0x08
                                           	BANKSEL	r0x1017
000629   3893     SUB	R0, 0x93             	SUB	R0, r0x1017
00062a   7003     JNB	0x3, 0               	JNB	PSW, 0
00062b   c632     JMP	#0x632               	JMP	_00474_DS_
                                           	BANKSEL	_Mode
00062c   0384     CLR	0x84                 	CLR	_Mode
                                           	BANKSEL	_mode_tail
00062d   0389     CLR	0x89                 	CLR	_mode_tail
                                           	BANKSEL	_mode_rt
00062e   038a     CLR	0x8a                 	CLR	_mode_rt
00062f   9801     MOV	R0, #0x1             	MOV	R0,# 0x01
                                           	BANKSEL	_mode_stop
000630   5188     MOV	0x88, R0             	MOV	_mode_stop, R0
000631   c6e2     JMP	#0x6e2               	JMP	_00478_DS_
                                           _00474_DS_
000632   980c     MOV	R0, #0xc             	MOV	R0,# 0x0c
                                           	BANKSEL	r0x1017
000633   3893     SUB	R0, 0x93             	SUB	R0, r0x1017
000634   7003     JNB	0x3, 0               	JNB	PSW, 0
000635   c641     JMP	#0x641               	JMP	_00471_DS_
                                           	BANKSEL	_Mode
000636   0384     CLR	0x84                 	CLR	_Mode
                                           	BANKSEL	_mode_tail
000637   0389     CLR	0x89                 	CLR	_mode_tail
                                           	BANKSEL	_mode_stop
000638   0388     CLR	0x88                 	CLR	_mode_stop
                                           	BANKSEL	r0x1017
000639   7993     JB	0x93, 1               	JB	r0x1017, 1
00063a   c63e     JMP	#0x63e               	JMP	_00435_DS_
00063b   9801     MOV	R0, #0x1             	MOV	R0,# 0x01
                                           	BANKSEL	_mode_rt
00063c   518a     MOV	0x8a, R0             	MOV	_mode_rt, R0
00063d   c6e2     JMP	#0x6e2               	JMP	_00478_DS_
                                           _00435_DS_
00063e   9802     MOV	R0, #0x2             	MOV	R0,# 0x02
                                           	BANKSEL	_mode_rt
00063f   518a     MOV	0x8a, R0             	MOV	_mode_rt, R0
000640   c6e2     JMP	#0x6e2               	JMP	_00478_DS_
                                           _00471_DS_
000641   9810     MOV	R0, #0x10            	MOV	R0,# 0x10
                                           	BANKSEL	r0x1017
000642   3893     SUB	R0, 0x93             	SUB	R0, r0x1017
000643   7003     JNB	0x3, 0               	JNB	PSW, 0
000644   c651     JMP	#0x651               	JMP	_00468_DS_
                                           	BANKSEL	_Mode
000645   0384     CLR	0x84                 	CLR	_Mode
                                           	BANKSEL	_mode_tail
000646   0389     CLR	0x89                 	CLR	_mode_tail
000647   9801     MOV	R0, #0x1             	MOV	R0,# 0x01
                                           	BANKSEL	_mode_stop
000648   5188     MOV	0x88, R0             	MOV	_mode_stop, R0
                                           	BANKSEL	r0x1017
000649   7993     JB	0x93, 1               	JB	r0x1017, 1
00064a   c64e     JMP	#0x64e               	JMP	_00438_DS_
00064b   9801     MOV	R0, #0x1             	MOV	R0,# 0x01
                                           	BANKSEL	_mode_rt
00064c   518a     MOV	0x8a, R0             	MOV	_mode_rt, R0
00064d   c6e2     JMP	#0x6e2               	JMP	_00478_DS_
                                           _00438_DS_
00064e   9802     MOV	R0, #0x2             	MOV	R0,# 0x02
                                           	BANKSEL	_mode_rt
00064f   518a     MOV	0x8a, R0             	MOV	_mode_rt, R0
000650   c6e2     JMP	#0x6e2               	JMP	_00478_DS_
                                           _00468_DS_
000651   9814     MOV	R0, #0x14            	MOV	R0,# 0x14
                                           	BANKSEL	r0x1017
000652   3893     SUB	R0, 0x93             	SUB	R0, r0x1017
000653   7003     JNB	0x3, 0               	JNB	PSW, 0
000654   c664     JMP	#0x664               	JMP	_00465_DS_
                                           	BANKSEL	_Mode
000655   0384     CLR	0x84                 	CLR	_Mode
000656   9801     MOV	R0, #0x1             	MOV	R0,# 0x01
                                           	BANKSEL	_mode_tail
000657   5189     MOV	0x89, R0             	MOV	_mode_tail, R0
                                           	BANKSEL	_mode_rt
000658   038a     CLR	0x8a                 	CLR	_mode_rt
000659   9802     MOV	R0, #0x2             	MOV	R0,# 0x02
                                           	BANKSEL	_mode_stop
00065a   5188     MOV	0x88, R0             	MOV	_mode_stop, R0
00065b   98ff     MOV	R0, #0xff            	MOV	R0,# 0xff
                                           	BANKSEL	_stop_ctl_h
00065c   51b1     MOV	0xb1, R0             	MOV	_stop_ctl_h, R0
00065d   980f     MOV	R0, #0xf             	MOV	R0,# 0x0f
                                           	BANKSEL	_stop_ctl_h
00065e   51b2     MOV	0xb2, R0             	MOV	(_stop_ctl_h + 1), R0
00065f   98ff     MOV	R0, #0xff            	MOV	R0,# 0xff
                                           	BANKSEL	_stop_ctl
000660   51b3     MOV	0xb3, R0             	MOV	_stop_ctl, R0
000661   980f     MOV	R0, #0xf             	MOV	R0,# 0x0f
                                           	BANKSEL	_stop_ctl
000662   51b4     MOV	0xb4, R0             	MOV	(_stop_ctl + 1), R0
000663   c6e2     JMP	#0x6e2               	JMP	_00478_DS_
                                           _00465_DS_
000664   9818     MOV	R0, #0x18            	MOV	R0,# 0x18
                                           	BANKSEL	r0x1017
000665   3893     SUB	R0, 0x93             	SUB	R0, r0x1017
000666   7003     JNB	0x3, 0               	JNB	PSW, 0
000667   c66f     JMP	#0x66f               	JMP	_00462_DS_
                                           	BANKSEL	_Mode
000668   0384     CLR	0x84                 	CLR	_Mode
000669   9801     MOV	R0, #0x1             	MOV	R0,# 0x01
                                           	BANKSEL	_mode_tail
00066a   5189     MOV	0x89, R0             	MOV	_mode_tail, R0
                                           	BANKSEL	_mode_rt
00066b   038a     CLR	0x8a                 	CLR	_mode_rt
00066c   9801     MOV	R0, #0x1             	MOV	R0,# 0x01
                                           	BANKSEL	_mode_stop
00066d   5188     MOV	0x88, R0             	MOV	_mode_stop, R0
00066e   c6e2     JMP	#0x6e2               	JMP	_00478_DS_
                                           _00462_DS_
00066f   981c     MOV	R0, #0x1c            	MOV	R0,# 0x1c
                                           	BANKSEL	r0x1017
000670   3893     SUB	R0, 0x93             	SUB	R0, r0x1017
000671   7003     JNB	0x3, 0               	JNB	PSW, 0
000672   c688     JMP	#0x688               	JMP	_00459_DS_
                                           	BANKSEL	_Mode
000673   0384     CLR	0x84                 	CLR	_Mode
000674   9801     MOV	R0, #0x1             	MOV	R0,# 0x01
                                           	BANKSEL	_mode_tail
000675   5189     MOV	0x89, R0             	MOV	_mode_tail, R0
000676   9802     MOV	R0, #0x2             	MOV	R0,# 0x02
                                           	BANKSEL	_mode_stop
000677   5188     MOV	0x88, R0             	MOV	_mode_stop, R0
000678   98ff     MOV	R0, #0xff            	MOV	R0,# 0xff
                                           	BANKSEL	_stop_ctl_h
000679   51b1     MOV	0xb1, R0             	MOV	_stop_ctl_h, R0
00067a   980f     MOV	R0, #0xf             	MOV	R0,# 0x0f
                                           	BANKSEL	_stop_ctl_h
00067b   51b2     MOV	0xb2, R0             	MOV	(_stop_ctl_h + 1), R0
00067c   98ff     MOV	R0, #0xff            	MOV	R0,# 0xff
                                           	BANKSEL	_stop_ctl
00067d   51b3     MOV	0xb3, R0             	MOV	_stop_ctl, R0
00067e   980f     MOV	R0, #0xf             	MOV	R0,# 0x0f
                                           	BANKSEL	_stop_ctl
00067f   51b4     MOV	0xb4, R0             	MOV	(_stop_ctl + 1), R0
                                           	BANKSEL	r0x1017
000680   7993     JB	0x93, 1               	JB	r0x1017, 1
000681   c685     JMP	#0x685               	JMP	_00441_DS_
000682   9801     MOV	R0, #0x1             	MOV	R0,# 0x01
                                           	BANKSEL	_mode_rt
000683   518a     MOV	0x8a, R0             	MOV	_mode_rt, R0
000684   c6e2     JMP	#0x6e2               	JMP	_00478_DS_
                                           _00441_DS_
000685   9802     MOV	R0, #0x2             	MOV	R0,# 0x02
                                           	BANKSEL	_mode_rt
000686   518a     MOV	0x8a, R0             	MOV	_mode_rt, R0
000687   c6e2     JMP	#0x6e2               	JMP	_00478_DS_
                                           _00459_DS_
000688   981e     MOV	R0, #0x1e            	MOV	R0,# 0x1e
                                           	BANKSEL	r0x1017
000689   3893     SUB	R0, 0x93             	SUB	R0, r0x1017
00068a   7003     JNB	0x3, 0               	JNB	PSW, 0
00068b   c6ad     JMP	#0x6ad               	JMP	_00456_DS_
00068c   9801     MOV	R0, #0x1             	MOV	R0,# 0x01
                                           	BANKSEL	_Mode
00068d   5184     MOV	0x84, R0             	MOV	_Mode, R0
                                           	BANKSEL	_Mode
00068e   0e84     MOVZ	R0, 0x84            	MOVZ	R0, _Mode
                                           	BANKSEL	_Mode_o
00068f   3885     SUB	R0, 0x85             	SUB	R0, _Mode_o
000690   7003     JNB	0x3, 0               	JNB	PSW, 0
000691   c6e2     JMP	#0x6e2               	JMP	_00478_DS_
                                           	BANKSEL	_PWM_cnt
000692   03b5     CLR	0xb5                 	CLR	_PWM_cnt
                                           	BANKSEL	_PWM_cnt
000693   03b6     CLR	0xb6                 	CLR	(_PWM_cnt + 1)
                                           	BANKSEL	_mode_tail
000694   0389     CLR	0x89                 	CLR	_mode_tail
                                           	BANKSEL	_mode_rt
000695   038a     CLR	0x8a                 	CLR	_mode_rt
                                           	BANKSEL	_mode_stop
000696   0388     CLR	0x88                 	CLR	_mode_stop
000697   9f70     MOV	R7, #0x70            	TRAPPC1	_All_stop_off
000698   5f73     MOV	0x73, R7             	TRAPPC2	_All_stop_off
000699   e070     MOVP	#0x70               	PAGESEL	_All_stop_off
00069a   d05a     CALL	#0x5a               	CALL	_All_stop_off
00069b   9f06     MOV	R7, #0x6             	TRAPPC1	$+2
00069c   5f73     MOV	0x73, R7             	TRAPPC2	$+1
00069d   e006     MOVP	#0x06               	PAGESEL	$
00069e   9f0f     MOV	R7, #0xf             	TRAPPC1	_All_rt_off
00069f   5f73     MOV	0x73, R7             	TRAPPC2	_All_rt_off
0006a0   e00f     MOVP	#0x0F               	PAGESEL	_All_rt_off
0006a1   df9f     CALL	#0xf9f              	CALL	_All_rt_off
0006a2   9f06     MOV	R7, #0x6             	TRAPPC1	$+2
0006a3   5f73     MOV	0x73, R7             	TRAPPC2	$+1
0006a4   e006     MOVP	#0x06               	PAGESEL	$
0006a5   9f70     MOV	R7, #0x70            	TRAPPC1	_All_tail_off
0006a6   5f73     MOV	0x73, R7             	TRAPPC2	_All_tail_off
0006a7   e070     MOVP	#0x70               	PAGESEL	_All_tail_off
0006a8   d000     CALL	#0                  	CALL	_All_tail_off
0006a9   9f06     MOV	R7, #0x6             	TRAPPC1	$+2
0006aa   5f73     MOV	0x73, R7             	TRAPPC2	$+1
0006ab   e006     MOVP	#0x06               	PAGESEL	$
0006ac   c6e2     JMP	#0x6e2               	JMP	_00478_DS_
                                           _00456_DS_
                                           	BANKSEL	r0x1017
0006ad   0e93     MOVZ	R0, 0x93            	MOVZ	R0, r0x1017
0006ae   a81e     XOR	R0, #0x1e            	XOR	R0,# 0x1e
0006af   7a03     JB	0x3, 2                	JB	PSW, 2
0006b0   c6d2     JMP	#0x6d2               	JMP	_00453_DS_
0006b1   9802     MOV	R0, #0x2             	MOV	R0,# 0x02
                                           	BANKSEL	_Mode
0006b2   5184     MOV	0x84, R0             	MOV	_Mode, R0
                                           	BANKSEL	_Mode
0006b3   0e84     MOVZ	R0, 0x84            	MOVZ	R0, _Mode
                                           	BANKSEL	_Mode_o
0006b4   3885     SUB	R0, 0x85             	SUB	R0, _Mode_o
0006b5   7003     JNB	0x3, 0               	JNB	PSW, 0
0006b6   c6e2     JMP	#0x6e2               	JMP	_00478_DS_
                                           	BANKSEL	_PWM_cnt
0006b7   03b5     CLR	0xb5                 	CLR	_PWM_cnt
                                           	BANKSEL	_PWM_cnt
0006b8   03b6     CLR	0xb6                 	CLR	(_PWM_cnt + 1)
                                           	BANKSEL	_mode_tail
0006b9   0389     CLR	0x89                 	CLR	_mode_tail
                                           	BANKSEL	_mode_rt
0006ba   038a     CLR	0x8a                 	CLR	_mode_rt
                                           	BANKSEL	_mode_stop
0006bb   0388     CLR	0x88                 	CLR	_mode_stop
0006bc   9f70     MOV	R7, #0x70            	TRAPPC1	_All_stop_off
0006bd   5f73     MOV	0x73, R7             	TRAPPC2	_All_stop_off
0006be   e070     MOVP	#0x70               	PAGESEL	_All_stop_off
0006bf   d05a     CALL	#0x5a               	CALL	_All_stop_off
0006c0   9f06     MOV	R7, #0x6             	TRAPPC1	$+2
0006c1   5f73     MOV	0x73, R7             	TRAPPC2	$+1
0006c2   e006     MOVP	#0x06               	PAGESEL	$
0006c3   9f0f     MOV	R7, #0xf             	TRAPPC1	_All_rt_off
0006c4   5f73     MOV	0x73, R7             	TRAPPC2	_All_rt_off
0006c5   e00f     MOVP	#0x0F               	PAGESEL	_All_rt_off
0006c6   df9f     CALL	#0xf9f              	CALL	_All_rt_off
0006c7   9f06     MOV	R7, #0x6             	TRAPPC1	$+2
0006c8   5f73     MOV	0x73, R7             	TRAPPC2	$+1
0006c9   e006     MOVP	#0x06               	PAGESEL	$
0006ca   9f70     MOV	R7, #0x70            	TRAPPC1	_All_tail_off
0006cb   5f73     MOV	0x73, R7             	TRAPPC2	_All_tail_off
0006cc   e070     MOVP	#0x70               	PAGESEL	_All_tail_off
0006cd   d000     CALL	#0                  	CALL	_All_tail_off
0006ce   9f06     MOV	R7, #0x6             	TRAPPC1	$+2
0006cf   5f73     MOV	0x73, R7             	TRAPPC2	$+1
0006d0   e006     MOVP	#0x06               	PAGESEL	$
0006d1   c6e2     JMP	#0x6e2               	JMP	_00478_DS_
                                           _00453_DS_
0006d2   9820     MOV	R0, #0x20            	MOV	R0,# 0x20
                                           	BANKSEL	r0x1017
0006d3   3893     SUB	R0, 0x93             	SUB	R0, r0x1017
0006d4   7003     JNB	0x3, 0               	JNB	PSW, 0
0006d5   c6e2     JMP	#0x6e2               	JMP	_00478_DS_
                                           	BANKSEL	_Mode
0006d6   0384     CLR	0x84                 	CLR	_Mode
0006d7   9801     MOV	R0, #0x1             	MOV	R0,# 0x01
                                           	BANKSEL	_mode_tail
0006d8   5189     MOV	0x89, R0             	MOV	_mode_tail, R0
0006d9   9801     MOV	R0, #0x1             	MOV	R0,# 0x01
                                           	BANKSEL	_mode_stop
0006da   5188     MOV	0x88, R0             	MOV	_mode_stop, R0
                                           	BANKSEL	r0x1017
0006db   7993     JB	0x93, 1               	JB	r0x1017, 1
0006dc   c6e0     JMP	#0x6e0               	JMP	_00448_DS_
0006dd   9801     MOV	R0, #0x1             	MOV	R0,# 0x01
                                           	BANKSEL	_mode_rt
0006de   518a     MOV	0x8a, R0             	MOV	_mode_rt, R0
0006df   c6e2     JMP	#0x6e2               	JMP	_00478_DS_
                                           _00448_DS_
0006e0   9802     MOV	R0, #0x2             	MOV	R0,# 0x02
                                           	BANKSEL	_mode_rt
0006e1   518a     MOV	0x8a, R0             	MOV	_mode_rt, R0
                                           _00478_DS_
0006e2   e100     MOVB	#0x00               	BANKSEL	_Mode
0006e3   0e84     MOVZ	R0, 0x84            	MOVZ	R0, _Mode
                                           	BANKSEL	_Mode_o
0006e4   5185     MOV	0x85, R0             	MOV	_Mode_o, R0
0006e5   9f0e     MOV	R7, #0xe             	TRAPPC1	_Exe_mode
0006e6   5f73     MOV	0x73, R7             	TRAPPC2	_Exe_mode
0006e7   e00e     MOVP	#0x0E               	PAGESEL	_Exe_mode
0006e8   de60     CALL	#0xe60              	CALL	_Exe_mode
0006e9   9f06     MOV	R7, #0x6             	TRAPPC1	$+2
0006ea   5f73     MOV	0x73, R7             	TRAPPC2	$+1
0006eb   e006     MOVP	#0x06               	PAGESEL	$
                                           _00481_DS_
0006ec   0008     CRET                     	CRET	
                                           func._Exe_mode	.code
                                           _Exe_mode	;Function start
000e60   9800     MOV	R0, #0               	MOV	R0,# 0x00
000e61   e100     MOVB	#0x00               	BANKSEL	_mode_tail
000e62   3089     ORL	R0, 0x89             	ORL	R0, _mode_tail
000e63   7a03     JB	0x3, 2                	JB	PSW, 2
000e64   ce6d     JMP	#0xe6d               	JMP	_00408_DS_
000e65   9f70     MOV	R7, #0x70            	TRAPPC1	_All_tail_off
000e66   5f73     MOV	0x73, R7             	TRAPPC2	_All_tail_off
000e67   e070     MOVP	#0x70               	PAGESEL	_All_tail_off
000e68   d000     CALL	#0                  	CALL	_All_tail_off
000e69   9f0e     MOV	R7, #0xe             	TRAPPC1	$+2
000e6a   5f73     MOV	0x73, R7             	TRAPPC2	$+1
000e6b   e00e     MOVP	#0x0E               	PAGESEL	$
000e6c   ce74     JMP	#0xe74               	JMP	_00409_DS_
                                           _00408_DS_
000e6d   9f70     MOV	R7, #0x70            	TRAPPC1	_All_tail_on
000e6e   5f73     MOV	0x73, R7             	TRAPPC2	_All_tail_on
000e6f   e070     MOVP	#0x70               	PAGESEL	_All_tail_on
000e70   d023     CALL	#0x23               	CALL	_All_tail_on
000e71   9f0e     MOV	R7, #0xe             	TRAPPC1	$+2
000e72   5f73     MOV	0x73, R7             	TRAPPC2	$+1
000e73   e00e     MOVP	#0x0E               	PAGESEL	$
                                           _00409_DS_
000e74   e100     MOVB	#0x00               	BANKSEL	_mode_rt
000e75   0e8a     MOVZ	R0, 0x8a            	MOVZ	R0, _mode_rt
000e76   a801     XOR	R0, #0x1             	XOR	R0,# 0x01
000e77   7a03     JB	0x3, 2                	JB	PSW, 2
000e78   ce81     JMP	#0xe81               	JMP	_00411_DS_
000e79   9f0f     MOV	R7, #0xf             	TRAPPC1	_All_rt_on
000e7a   5f73     MOV	0x73, R7             	TRAPPC2	_All_rt_on
000e7b   e00f     MOVP	#0x0F               	PAGESEL	_All_rt_on
000e7c   dfc2     CALL	#0xfc2              	CALL	_All_rt_on
000e7d   9f0e     MOV	R7, #0xe             	TRAPPC1	$+2
000e7e   5f73     MOV	0x73, R7             	TRAPPC2	$+1
000e7f   e00e     MOVP	#0x0E               	PAGESEL	$
000e80   ce88     JMP	#0xe88               	JMP	_00412_DS_
                                           _00411_DS_
000e81   9f0f     MOV	R7, #0xf             	TRAPPC1	_All_rt_off
000e82   5f73     MOV	0x73, R7             	TRAPPC2	_All_rt_off
000e83   e00f     MOVP	#0x0F               	PAGESEL	_All_rt_off
000e84   df9f     CALL	#0xf9f              	CALL	_All_rt_off
000e85   9f0e     MOV	R7, #0xe             	TRAPPC1	$+2
000e86   5f73     MOV	0x73, R7             	TRAPPC2	$+1
000e87   e00e     MOVP	#0x0E               	PAGESEL	$
                                           _00412_DS_
000e88   e100     MOVB	#0x00               	BANKSEL	_mode_stop
000e89   0e88     MOVZ	R0, 0x88            	MOVZ	R0, _mode_stop
000e8a   a801     XOR	R0, #0x1             	XOR	R0,# 0x01
000e8b   7a03     JB	0x3, 2                	JB	PSW, 2
000e8c   ce95     JMP	#0xe95               	JMP	_00416_DS_
000e8d   9f70     MOV	R7, #0x70            	TRAPPC1	_All_stop_on
000e8e   5f73     MOV	0x73, R7             	TRAPPC2	_All_stop_on
000e8f   e070     MOVP	#0x70               	PAGESEL	_All_stop_on
000e90   d06a     CALL	#0x6a               	CALL	_All_stop_on
000e91   9f0e     MOV	R7, #0xe             	TRAPPC1	$+2
000e92   5f73     MOV	0x73, R7             	TRAPPC2	$+1
000e93   e00e     MOVP	#0x0E               	PAGESEL	$
000e94   cea0     JMP	#0xea0               	JMP	_00418_DS_
                                           _00416_DS_
000e95   9800     MOV	R0, #0               	MOV	R0,# 0x00
                                           	BANKSEL	_mode_stop
000e96   3088     ORL	R0, 0x88             	ORL	R0, _mode_stop
000e97   7a03     JB	0x3, 2                	JB	PSW, 2
000e98   cea0     JMP	#0xea0               	JMP	_00418_DS_
000e99   9f70     MOV	R7, #0x70            	TRAPPC1	_All_stop_off
000e9a   5f73     MOV	0x73, R7             	TRAPPC2	_All_stop_off
000e9b   e070     MOVP	#0x70               	PAGESEL	_All_stop_off
000e9c   d05a     CALL	#0x5a               	CALL	_All_stop_off
000e9d   9f0e     MOV	R7, #0xe             	TRAPPC1	$+2
000e9e   5f73     MOV	0x73, R7             	TRAPPC2	$+1
000e9f   e00e     MOVP	#0x0E               	PAGESEL	$
                                           _00418_DS_
000ea0   0008     CRET                     	CRET	
                                           func._LED_Hello	.code
                                           _LED_Hello	;Function start
0006ed   e100     MOVB	#0x00               	BANKSEL	_PWM_cnt
0006ee   0eb5     MOVZ	R0, 0xb5            	MOVZ	R0, _PWM_cnt
                                           	BANKSEL	r0x1021
0006ef   5195     MOV	0x95, R0             	MOV	r0x1021, R0
                                           	BANKSEL	_PWM_cnt
0006f0   0eb6     MOVZ	R0, 0xb6            	MOVZ	R0, (_PWM_cnt + 1)
                                           	BANKSEL	r0x1022
0006f1   5194     MOV	0x94, R0             	MOV	r0x1022, R0
                                           	BANKSEL	r0x1021
0006f2   0e95     MOVZ	R0, 0x95            	MOVZ	R0, r0x1021
0006f3   a80a     XOR	R0, #0xa             	XOR	R0,# 0x0a
0006f4   7a03     JB	0x3, 2                	JB	PSW, 2
0006f5   c6fa     JMP	#0x6fa               	JMP	_00393_DS_
                                           	BANKSEL	r0x1022
0006f6   0e94     MOVZ	R0, 0x94            	MOVZ	R0, r0x1022
0006f7   a800     XOR	R0, #0               	XOR	R0,# 0x00
0006f8   7203     JNB	0x3, 2               	JNB	PSW, 2
0006f9   c713     JMP	#0x713               	JMP	_00352_DS_
                                           _00393_DS_
                                           	BANKSEL	r0x1021
0006fa   0e95     MOVZ	R0, 0x95            	MOVZ	R0, r0x1021
0006fb   a890     XOR	R0, #0x90            	XOR	R0,# 0x90
0006fc   7a03     JB	0x3, 2                	JB	PSW, 2
0006fd   c702     JMP	#0x702               	JMP	_00394_DS_
                                           	BANKSEL	r0x1022
0006fe   0e94     MOVZ	R0, 0x94            	MOVZ	R0, r0x1022
0006ff   a801     XOR	R0, #0x1             	XOR	R0,# 0x01
000700   7203     JNB	0x3, 2               	JNB	PSW, 2
000701   c71c     JMP	#0x71c               	JMP	_00353_DS_
                                           _00394_DS_
                                           	BANKSEL	r0x1021
000702   0e95     MOVZ	R0, 0x95            	MOVZ	R0, r0x1021
000703   a820     XOR	R0, #0x20            	XOR	R0,# 0x20
000704   7a03     JB	0x3, 2                	JB	PSW, 2
000705   c70a     JMP	#0x70a               	JMP	_00395_DS_
                                           	BANKSEL	r0x1022
000706   0e94     MOVZ	R0, 0x94            	MOVZ	R0, r0x1022
000707   a803     XOR	R0, #0x3             	XOR	R0,# 0x03
000708   7203     JNB	0x3, 2               	JNB	PSW, 2
000709   c724     JMP	#0x724               	JMP	_00354_DS_
                                           _00395_DS_
                                           	BANKSEL	r0x1021
00070a   0e95     MOVZ	R0, 0x95            	MOVZ	R0, r0x1021
00070b   a8b0     XOR	R0, #0xb0            	XOR	R0,# 0xb0
00070c   7a03     JB	0x3, 2                	JB	PSW, 2
00070d   c712     JMP	#0x712               	JMP	_00396_DS_
                                           	BANKSEL	r0x1022
00070e   0e94     MOVZ	R0, 0x94            	MOVZ	R0, r0x1022
00070f   a804     XOR	R0, #0x4             	XOR	R0,# 0x04
000710   7203     JNB	0x3, 2               	JNB	PSW, 2
000711   c72d     JMP	#0x72d               	JMP	_00355_DS_
                                           _00396_DS_
000712   c735     JMP	#0x735               	JMP	_00356_DS_
                                           _00352_DS_
                                           	BANKSEL	_RT_cnt
000713   03bb     CLR	0xbb                 	CLR	_RT_cnt
                                           	BANKSEL	_RT_cnt
000714   03bc     CLR	0xbc                 	CLR	(_RT_cnt + 1)
                                           	BANKSEL	_RT_ctl
000715   03b9     CLR	0xb9                 	CLR	_RT_ctl
                                           	BANKSEL	_RT_ctl
000716   03ba     CLR	0xba                 	CLR	(_RT_ctl + 1)
                                           	BANKSEL	_RT_ctl_1
000717   03b7     CLR	0xb7                 	CLR	_RT_ctl_1
                                           	BANKSEL	_RT_ctl_1
000718   03b8     CLR	0xb8                 	CLR	(_RT_ctl_1 + 1)
000719   9802     MOV	R0, #0x2             	MOV	R0,# 0x02
                                           	BANKSEL	_mode_rt
00071a   518a     MOV	0x8a, R0             	MOV	_mode_rt, R0
00071b   c7f2     JMP	#0x7f2               	JMP	_00377_DS_
                                           _00353_DS_
00071c   9f0f     MOV	R7, #0xf             	TRAPPC1	_All_rt_off
00071d   5f73     MOV	0x73, R7             	TRAPPC2	_All_rt_off
00071e   e00f     MOVP	#0x0F               	PAGESEL	_All_rt_off
00071f   df9f     CALL	#0xf9f              	CALL	_All_rt_off
000720   9f07     MOV	R7, #0x7             	TRAPPC1	$+2
000721   5f73     MOV	0x73, R7             	TRAPPC2	$+1
000722   e007     MOVP	#0x07               	PAGESEL	$
000723   c7f2     JMP	#0x7f2               	JMP	_00377_DS_
                                           _00354_DS_
                                           	BANKSEL	_RT_cnt
000724   03bb     CLR	0xbb                 	CLR	_RT_cnt
                                           	BANKSEL	_RT_cnt
000725   03bc     CLR	0xbc                 	CLR	(_RT_cnt + 1)
                                           	BANKSEL	_RT_ctl
000726   03b9     CLR	0xb9                 	CLR	_RT_ctl
                                           	BANKSEL	_RT_ctl
000727   03ba     CLR	0xba                 	CLR	(_RT_ctl + 1)
                                           	BANKSEL	_RT_ctl_1
000728   03b7     CLR	0xb7                 	CLR	_RT_ctl_1
                                           	BANKSEL	_RT_ctl_1
000729   03b8     CLR	0xb8                 	CLR	(_RT_ctl_1 + 1)
00072a   9802     MOV	R0, #0x2             	MOV	R0,# 0x02
                                           	BANKSEL	_mode_rt
00072b   518a     MOV	0x8a, R0             	MOV	_mode_rt, R0
00072c   c7f2     JMP	#0x7f2               	JMP	_00377_DS_
                                           _00355_DS_
00072d   9f0f     MOV	R7, #0xf             	TRAPPC1	_All_rt_off
00072e   5f73     MOV	0x73, R7             	TRAPPC2	_All_rt_off
00072f   e00f     MOVP	#0x0F               	PAGESEL	_All_rt_off
000730   df9f     CALL	#0xf9f              	CALL	_All_rt_off
000731   9f07     MOV	R7, #0x7             	TRAPPC1	$+2
000732   5f73     MOV	0x73, R7             	TRAPPC2	$+1
000733   e007     MOVP	#0x07               	PAGESEL	$
000734   c7f2     JMP	#0x7f2               	JMP	_00377_DS_
                                           _00356_DS_
000735   9807     MOV	R0, #0x7             	MOV	R0,# 0x07
                                           	BANKSEL	_PWM_cnt
000736   38b6     SUB	R0, 0xb6             	SUB	R0, (_PWM_cnt + 1)
000737   7a03     JB	0x3, 2                	JB	PSW, 2
000738   c73b     JMP	#0x73b               	JMP	_00397_DS_
000739   98d1     MOV	R0, #0xd1            	MOV	R0,# 0xd1
                                           	BANKSEL	_PWM_cnt
00073a   38b5     SUB	R0, 0xb5             	SUB	R0, _PWM_cnt
                                           _00397_DS_
00073b   7803     JB	0x3, 0                	JB	PSW, 0
00073c   c75b     JMP	#0x75b               	JMP	_00373_DS_
00073d   980b     MOV	R0, #0xb             	MOV	R0,# 0x0b
                                           	BANKSEL	_PWM_cnt
00073e   38b6     SUB	R0, 0xb6             	SUB	R0, (_PWM_cnt + 1)
00073f   7a03     JB	0x3, 2                	JB	PSW, 2
000740   c743     JMP	#0x743               	JMP	_00398_DS_
000741   98b8     MOV	R0, #0xb8            	MOV	R0,# 0xb8
                                           	BANKSEL	_PWM_cnt
000742   38b5     SUB	R0, 0xb5             	SUB	R0, _PWM_cnt
                                           _00398_DS_
000743   7003     JNB	0x3, 0               	JNB	PSW, 0
000744   c75b     JMP	#0x75b               	JMP	_00373_DS_
000745   9830     MOV	R0, #0x30            	MOV	R0,# 0x30
                                           	BANKSEL	_PWM_cnt
000746   20b5     ADD	R0, 0xb5             	ADD	R0, _PWM_cnt
                                           	BANKSEL	r0x1021
000747   5195     MOV	0x95, R0             	MOV	r0x1021, R0
000748   98f8     MOV	R0, #0xf8            	MOV	R0,# 0xf8
                                           	BANKSEL	r0x1022
000749   5194     MOV	0x94, R0             	MOV	r0x1022, R0
                                           	BANKSEL	_PWM_cnt
00074a   0eb6     MOVZ	R0, 0xb6            	MOVZ	R0, (_PWM_cnt + 1)
00074b   7003     JNB	0x3, 0               	JNB	PSW, 0
00074c   ff10     INC	R0                   	INC	R0
00074d   7203     JNB	0x3, 2               	JNB	PSW, 2
00074e   c750     JMP	#0x750               	JMP	_00519_DS_
                                           	BANKSEL	r0x1022
00074f   2194     ADD	0x94, R0             	ADD	r0x1022, R0
                                           _00519_DS_
                                           	BANKSEL	r0x1021
000750   0e95     MOVZ	R0, 0x95            	MOVZ	R0, r0x1021
                                           	BANKSEL	STK00
000751   51d2     MOV	0xd2, R0             	MOV	STK00, R0
                                           	BANKSEL	r0x1022
000752   0e94     MOVZ	R0, 0x94            	MOVZ	R0, r0x1022
000753   9f0d     MOV	R7, #0xd             	TRAPPC1	_Huxi
000754   5f73     MOV	0x73, R7             	TRAPPC2	_Huxi
000755   e00d     MOVP	#0x0D               	PAGESEL	_Huxi
000756   ddc2     CALL	#0xdc2              	CALL	_Huxi
000757   9f07     MOV	R7, #0x7             	TRAPPC1	$+2
000758   5f73     MOV	0x73, R7             	TRAPPC2	$+1
000759   e007     MOVP	#0x07               	PAGESEL	$
00075a   c7f2     JMP	#0x7f2               	JMP	_00377_DS_
                                           _00373_DS_
00075b   980b     MOV	R0, #0xb             	MOV	R0,# 0x0b
                                           	BANKSEL	_PWM_cnt
00075c   38b6     SUB	R0, 0xb6             	SUB	R0, (_PWM_cnt + 1)
00075d   7a03     JB	0x3, 2                	JB	PSW, 2
00075e   c761     JMP	#0x761               	JMP	_00399_DS_
00075f   98b9     MOV	R0, #0xb9            	MOV	R0,# 0xb9
                                           	BANKSEL	_PWM_cnt
000760   38b5     SUB	R0, 0xb5             	SUB	R0, _PWM_cnt
                                           _00399_DS_
000761   7803     JB	0x3, 0                	JB	PSW, 0
000762   c781     JMP	#0x781               	JMP	_00369_DS_
000763   9810     MOV	R0, #0x10            	MOV	R0,# 0x10
                                           	BANKSEL	_PWM_cnt
000764   38b6     SUB	R0, 0xb6             	SUB	R0, (_PWM_cnt + 1)
000765   7a03     JB	0x3, 2                	JB	PSW, 2
000766   c769     JMP	#0x769               	JMP	_00400_DS_
000767   982c     MOV	R0, #0x2c            	MOV	R0,# 0x2c
                                           	BANKSEL	_PWM_cnt
000768   38b5     SUB	R0, 0xb5             	SUB	R0, _PWM_cnt
                                           _00400_DS_
000769   7003     JNB	0x3, 0               	JNB	PSW, 0
00076a   c781     JMP	#0x781               	JMP	_00369_DS_
00076b   9848     MOV	R0, #0x48            	MOV	R0,# 0x48
                                           	BANKSEL	_PWM_cnt
00076c   20b5     ADD	R0, 0xb5             	ADD	R0, _PWM_cnt
                                           	BANKSEL	r0x1021
00076d   5195     MOV	0x95, R0             	MOV	r0x1021, R0
00076e   98f4     MOV	R0, #0xf4            	MOV	R0,# 0xf4
                                           	BANKSEL	r0x1022
00076f   5194     MOV	0x94, R0             	MOV	r0x1022, R0
                                           	BANKSEL	_PWM_cnt
000770   0eb6     MOVZ	R0, 0xb6            	MOVZ	R0, (_PWM_cnt + 1)
000771   7003     JNB	0x3, 0               	JNB	PSW, 0
000772   ff10     INC	R0                   	INC	R0
000773   7203     JNB	0x3, 2               	JNB	PSW, 2
000774   c776     JMP	#0x776               	JMP	_00520_DS_
                                           	BANKSEL	r0x1022
000775   2194     ADD	0x94, R0             	ADD	r0x1022, R0
                                           _00520_DS_
                                           	BANKSEL	r0x1021
000776   0e95     MOVZ	R0, 0x95            	MOVZ	R0, r0x1021
                                           	BANKSEL	STK00
000777   51d2     MOV	0xd2, R0             	MOV	STK00, R0
                                           	BANKSEL	r0x1022
000778   0e94     MOVZ	R0, 0x94            	MOVZ	R0, r0x1022
000779   9f0c     MOV	R7, #0xc             	TRAPPC1	_Liushui_low
00077a   5f73     MOV	0x73, R7             	TRAPPC2	_Liushui_low
00077b   e00c     MOVP	#0x0C               	PAGESEL	_Liushui_low
00077c   dc24     CALL	#0xc24              	CALL	_Liushui_low
00077d   9f07     MOV	R7, #0x7             	TRAPPC1	$+2
00077e   5f73     MOV	0x73, R7             	TRAPPC2	$+1
00077f   e007     MOVP	#0x07               	PAGESEL	$
000780   c7f2     JMP	#0x7f2               	JMP	_00377_DS_
                                           _00369_DS_
000781   9812     MOV	R0, #0x12            	MOV	R0,# 0x12
                                           	BANKSEL	_PWM_cnt
000782   38b6     SUB	R0, 0xb6             	SUB	R0, (_PWM_cnt + 1)
000783   7a03     JB	0x3, 2                	JB	PSW, 2
000784   c787     JMP	#0x787               	JMP	_00401_DS_
000785   980d     MOV	R0, #0xd             	MOV	R0,# 0x0d
                                           	BANKSEL	_PWM_cnt
000786   38b5     SUB	R0, 0xb5             	SUB	R0, _PWM_cnt
                                           _00401_DS_
000787   7803     JB	0x3, 0                	JB	PSW, 0
000788   c7a7     JMP	#0x7a7               	JMP	_00365_DS_
000789   9816     MOV	R0, #0x16            	MOV	R0,# 0x16
                                           	BANKSEL	_PWM_cnt
00078a   38b6     SUB	R0, 0xb6             	SUB	R0, (_PWM_cnt + 1)
00078b   7a03     JB	0x3, 2                	JB	PSW, 2
00078c   c78f     JMP	#0x78f               	JMP	_00402_DS_
00078d   9881     MOV	R0, #0x81            	MOV	R0,# 0x81
                                           	BANKSEL	_PWM_cnt
00078e   38b5     SUB	R0, 0xb5             	SUB	R0, _PWM_cnt
                                           _00402_DS_
00078f   7003     JNB	0x3, 0               	JNB	PSW, 0
000790   c7a7     JMP	#0x7a7               	JMP	_00365_DS_
000791   98f4     MOV	R0, #0xf4            	MOV	R0,# 0xf4
                                           	BANKSEL	_PWM_cnt
000792   20b5     ADD	R0, 0xb5             	ADD	R0, _PWM_cnt
                                           	BANKSEL	r0x1021
000793   5195     MOV	0x95, R0             	MOV	r0x1021, R0
000794   98ed     MOV	R0, #0xed            	MOV	R0,# 0xed
                                           	BANKSEL	r0x1022
000795   5194     MOV	0x94, R0             	MOV	r0x1022, R0
                                           	BANKSEL	_PWM_cnt
000796   0eb6     MOVZ	R0, 0xb6            	MOVZ	R0, (_PWM_cnt + 1)
000797   7003     JNB	0x3, 0               	JNB	PSW, 0
000798   ff10     INC	R0                   	INC	R0
000799   7203     JNB	0x3, 2               	JNB	PSW, 2
00079a   c79c     JMP	#0x79c               	JMP	_00521_DS_
                                           	BANKSEL	r0x1022
00079b   2194     ADD	0x94, R0             	ADD	r0x1022, R0
                                           _00521_DS_
                                           	BANKSEL	r0x1021
00079c   0e95     MOVZ	R0, 0x95            	MOVZ	R0, r0x1021
                                           	BANKSEL	STK00
00079d   51d2     MOV	0xd2, R0             	MOV	STK00, R0
                                           	BANKSEL	r0x1022
00079e   0e94     MOVZ	R0, 0x94            	MOVZ	R0, r0x1022
00079f   9f04     MOV	R7, #0x4             	TRAPPC1	_Liushui_high
0007a0   5f73     MOV	0x73, R7             	TRAPPC2	_Liushui_high
0007a1   e004     MOVP	#0x04               	PAGESEL	_Liushui_high
0007a2   d4bf     CALL	#0x4bf              	CALL	_Liushui_high
0007a3   9f07     MOV	R7, #0x7             	TRAPPC1	$+2
0007a4   5f73     MOV	0x73, R7             	TRAPPC2	$+1
0007a5   e007     MOVP	#0x07               	PAGESEL	$
0007a6   c7f2     JMP	#0x7f2               	JMP	_00377_DS_
                                           _00365_DS_
0007a7   981c     MOV	R0, #0x1c            	MOV	R0,# 0x1c
                                           	BANKSEL	_PWM_cnt
0007a8   38b6     SUB	R0, 0xb6             	SUB	R0, (_PWM_cnt + 1)
0007a9   7a03     JB	0x3, 2                	JB	PSW, 2
0007aa   c7ad     JMP	#0x7ad               	JMP	_00403_DS_
0007ab   98e9     MOV	R0, #0xe9            	MOV	R0,# 0xe9
                                           	BANKSEL	_PWM_cnt
0007ac   38b5     SUB	R0, 0xb5             	SUB	R0, _PWM_cnt
                                           _00403_DS_
0007ad   7803     JB	0x3, 0                	JB	PSW, 0
0007ae   c7cd     JMP	#0x7cd               	JMP	_00361_DS_
0007af   981f     MOV	R0, #0x1f            	MOV	R0,# 0x1f
                                           	BANKSEL	_PWM_cnt
0007b0   38b6     SUB	R0, 0xb6             	SUB	R0, (_PWM_cnt + 1)
0007b1   7a03     JB	0x3, 2                	JB	PSW, 2
0007b2   c7b5     JMP	#0x7b5               	JMP	_00404_DS_
0007b3   9841     MOV	R0, #0x41            	MOV	R0,# 0x41
                                           	BANKSEL	_PWM_cnt
0007b4   38b5     SUB	R0, 0xb5             	SUB	R0, _PWM_cnt
                                           _00404_DS_
0007b5   7003     JNB	0x3, 0               	JNB	PSW, 0
0007b6   c7cd     JMP	#0x7cd               	JMP	_00361_DS_
0007b7   9818     MOV	R0, #0x18            	MOV	R0,# 0x18
                                           	BANKSEL	_PWM_cnt
0007b8   20b5     ADD	R0, 0xb5             	ADD	R0, _PWM_cnt
                                           	BANKSEL	r0x1021
0007b9   5195     MOV	0x95, R0             	MOV	r0x1021, R0
0007ba   98e3     MOV	R0, #0xe3            	MOV	R0,# 0xe3
                                           	BANKSEL	r0x1022
0007bb   5194     MOV	0x94, R0             	MOV	r0x1022, R0
                                           	BANKSEL	_PWM_cnt
0007bc   0eb6     MOVZ	R0, 0xb6            	MOVZ	R0, (_PWM_cnt + 1)
0007bd   7003     JNB	0x3, 0               	JNB	PSW, 0
0007be   ff10     INC	R0                   	INC	R0
0007bf   7203     JNB	0x3, 2               	JNB	PSW, 2
0007c0   c7c2     JMP	#0x7c2               	JMP	_00522_DS_
                                           	BANKSEL	r0x1022
0007c1   2194     ADD	0x94, R0             	ADD	r0x1022, R0
                                           _00522_DS_
                                           	BANKSEL	r0x1021
0007c2   0e95     MOVZ	R0, 0x95            	MOVZ	R0, r0x1021
                                           	BANKSEL	STK00
0007c3   51d2     MOV	0xd2, R0             	MOV	STK00, R0
                                           	BANKSEL	r0x1022
0007c4   0e94     MOVZ	R0, 0x94            	MOVZ	R0, r0x1022
0007c5   9f0e     MOV	R7, #0xe             	TRAPPC1	_Liushui_stop_high
0007c6   5f73     MOV	0x73, R7             	TRAPPC2	_Liushui_stop_high
0007c7   e00e     MOVP	#0x0E               	PAGESEL	_Liushui_stop_high
0007c8   dea1     CALL	#0xea1              	CALL	_Liushui_stop_high
0007c9   9f07     MOV	R7, #0x7             	TRAPPC1	$+2
0007ca   5f73     MOV	0x73, R7             	TRAPPC2	$+1
0007cb   e007     MOVP	#0x07               	PAGESEL	$
0007cc   c7f2     JMP	#0x7f2               	JMP	_00377_DS_
                                           _00361_DS_
0007cd   981f     MOV	R0, #0x1f            	MOV	R0,# 0x1f
                                           	BANKSEL	_PWM_cnt
0007ce   38b6     SUB	R0, 0xb6             	SUB	R0, (_PWM_cnt + 1)
0007cf   7a03     JB	0x3, 2                	JB	PSW, 2
0007d0   c7d3     JMP	#0x7d3               	JMP	_00405_DS_
0007d1   9841     MOV	R0, #0x41            	MOV	R0,# 0x41
                                           	BANKSEL	_PWM_cnt
0007d2   38b5     SUB	R0, 0xb5             	SUB	R0, _PWM_cnt
                                           _00405_DS_
0007d3   7803     JB	0x3, 0                	JB	PSW, 0
0007d4   c7f2     JMP	#0x7f2               	JMP	_00377_DS_
0007d5   9823     MOV	R0, #0x23            	MOV	R0,# 0x23
                                           	BANKSEL	_PWM_cnt
0007d6   38b6     SUB	R0, 0xb6             	SUB	R0, (_PWM_cnt + 1)
0007d7   7a03     JB	0x3, 2                	JB	PSW, 2
0007d8   c7db     JMP	#0x7db               	JMP	_00406_DS_
0007d9   98f0     MOV	R0, #0xf0            	MOV	R0,# 0xf0
                                           	BANKSEL	_PWM_cnt
0007da   38b5     SUB	R0, 0xb5             	SUB	R0, _PWM_cnt
                                           _00406_DS_
0007db   7003     JNB	0x3, 0               	JNB	PSW, 0
0007dc   c7f2     JMP	#0x7f2               	JMP	_00377_DS_
0007dd   98c0     MOV	R0, #0xc0            	MOV	R0,# 0xc0
                                           	BANKSEL	_PWM_cnt
0007de   20b5     ADD	R0, 0xb5             	ADD	R0, _PWM_cnt
                                           	BANKSEL	r0x1021
0007df   5195     MOV	0x95, R0             	MOV	r0x1021, R0
0007e0   98e0     MOV	R0, #0xe0            	MOV	R0,# 0xe0
                                           	BANKSEL	r0x1022
0007e1   5194     MOV	0x94, R0             	MOV	r0x1022, R0
                                           	BANKSEL	_PWM_cnt
0007e2   0eb6     MOVZ	R0, 0xb6            	MOVZ	R0, (_PWM_cnt + 1)
0007e3   7003     JNB	0x3, 0               	JNB	PSW, 0
0007e4   ff10     INC	R0                   	INC	R0
0007e5   7203     JNB	0x3, 2               	JNB	PSW, 2
0007e6   c7e8     JMP	#0x7e8               	JMP	_00523_DS_
                                           	BANKSEL	r0x1022
0007e7   2194     ADD	0x94, R0             	ADD	r0x1022, R0
                                           _00523_DS_
                                           	BANKSEL	r0x1021
0007e8   0e95     MOVZ	R0, 0x95            	MOVZ	R0, r0x1021
                                           	BANKSEL	STK00
0007e9   51d2     MOV	0xd2, R0             	MOV	STK00, R0
                                           	BANKSEL	r0x1022
0007ea   0e94     MOVZ	R0, 0x94            	MOVZ	R0, r0x1022
0007eb   9f0a     MOV	R7, #0xa             	TRAPPC1	_ALL_high
0007ec   5f73     MOV	0x73, R7             	TRAPPC2	_ALL_high
0007ed   e00a     MOVP	#0x0A               	PAGESEL	_ALL_high
0007ee   daa2     CALL	#0xaa2              	CALL	_ALL_high
0007ef   9f07     MOV	R7, #0x7             	TRAPPC1	$+2
0007f0   5f73     MOV	0x73, R7             	TRAPPC2	$+1
0007f1   e007     MOVP	#0x07               	PAGESEL	$
                                           _00377_DS_
0007f2   0008     CRET                     	CRET	
                                           func._LED_ByeBye	.code
                                           _LED_ByeBye	;Function start
0009cc   e100     MOVB	#0x00               	BANKSEL	_PWM_cnt
0009cd   0eb5     MOVZ	R0, 0xb5            	MOVZ	R0, _PWM_cnt
                                           	BANKSEL	r0x1029
0009ce   5197     MOV	0x97, R0             	MOV	r0x1029, R0
                                           	BANKSEL	_PWM_cnt
0009cf   0eb6     MOVZ	R0, 0xb6            	MOVZ	R0, (_PWM_cnt + 1)
                                           	BANKSEL	r0x102A
0009d0   5196     MOV	0x96, R0             	MOV	r0x102A, R0
                                           	BANKSEL	r0x1029
0009d1   0e97     MOVZ	R0, 0x97            	MOVZ	R0, r0x1029
0009d2   a80a     XOR	R0, #0xa             	XOR	R0,# 0x0a
0009d3   7a03     JB	0x3, 2                	JB	PSW, 2
0009d4   c9d9     JMP	#0x9d9               	JMP	_00341_DS_
                                           	BANKSEL	r0x102A
0009d5   0e96     MOVZ	R0, 0x96            	MOVZ	R0, r0x102A
0009d6   a800     XOR	R0, #0               	XOR	R0,# 0x00
0009d7   7203     JNB	0x3, 2               	JNB	PSW, 2
0009d8   c9ea     JMP	#0x9ea               	JMP	_00308_DS_
                                           _00341_DS_
                                           	BANKSEL	r0x1029
0009d9   0e97     MOVZ	R0, 0x97            	MOVZ	R0, r0x1029
0009da   a8e8     XOR	R0, #0xe8            	XOR	R0,# 0xe8
0009db   7a03     JB	0x3, 2                	JB	PSW, 2
0009dc   c9e1     JMP	#0x9e1               	JMP	_00342_DS_
                                           	BANKSEL	r0x102A
0009dd   0e96     MOVZ	R0, 0x96            	MOVZ	R0, r0x102A
0009de   a803     XOR	R0, #0x3             	XOR	R0,# 0x03
0009df   7203     JNB	0x3, 2               	JNB	PSW, 2
0009e0   c9f9     JMP	#0x9f9               	JMP	_00309_DS_
                                           _00342_DS_
                                           	BANKSEL	r0x1029
0009e1   0e97     MOVZ	R0, 0x97            	MOVZ	R0, r0x1029
0009e2   a878     XOR	R0, #0x78            	XOR	R0,# 0x78
0009e3   7a03     JB	0x3, 2                	JB	PSW, 2
0009e4   c9e9     JMP	#0x9e9               	JMP	_00343_DS_
                                           	BANKSEL	r0x102A
0009e5   0e96     MOVZ	R0, 0x96            	MOVZ	R0, r0x102A
0009e6   a805     XOR	R0, #0x5             	XOR	R0,# 0x05
0009e7   7203     JNB	0x3, 2               	JNB	PSW, 2
0009e8   ca02     JMP	#0xa02               	JMP	_00310_DS_
                                           _00343_DS_
0009e9   ca0a     JMP	#0xa0a               	JMP	_00311_DS_
                                           _00308_DS_
0009ea   9f70     MOV	R7, #0x70            	TRAPPC1	_All_tail_on
0009eb   5f73     MOV	0x73, R7             	TRAPPC2	_All_tail_on
0009ec   e070     MOVP	#0x70               	PAGESEL	_All_tail_on
0009ed   d023     CALL	#0x23               	CALL	_All_tail_on
0009ee   9f09     MOV	R7, #0x9             	TRAPPC1	$+2
0009ef   5f73     MOV	0x73, R7             	TRAPPC2	$+1
0009f0   e009     MOVP	#0x09               	PAGESEL	$
0009f1   9f70     MOV	R7, #0x70            	TRAPPC1	_All_stop_on
0009f2   5f73     MOV	0x73, R7             	TRAPPC2	_All_stop_on
0009f3   e070     MOVP	#0x70               	PAGESEL	_All_stop_on
0009f4   d06a     CALL	#0x6a               	CALL	_All_stop_on
0009f5   9f09     MOV	R7, #0x9             	TRAPPC1	$+2
0009f6   5f73     MOV	0x73, R7             	TRAPPC2	$+1
0009f7   e009     MOVP	#0x09               	PAGESEL	$
0009f8   caa1     JMP	#0xaa1               	JMP	_00328_DS_
                                           _00309_DS_
                                           	BANKSEL	_RT_cnt
0009f9   03bb     CLR	0xbb                 	CLR	_RT_cnt
                                           	BANKSEL	_RT_cnt
0009fa   03bc     CLR	0xbc                 	CLR	(_RT_cnt + 1)
                                           	BANKSEL	_RT_ctl
0009fb   03b9     CLR	0xb9                 	CLR	_RT_ctl
                                           	BANKSEL	_RT_ctl
0009fc   03ba     CLR	0xba                 	CLR	(_RT_ctl + 1)
                                           	BANKSEL	_RT_ctl_1
0009fd   03b7     CLR	0xb7                 	CLR	_RT_ctl_1
                                           	BANKSEL	_RT_ctl_1
0009fe   03b8     CLR	0xb8                 	CLR	(_RT_ctl_1 + 1)
0009ff   9802     MOV	R0, #0x2             	MOV	R0,# 0x02
                                           	BANKSEL	_mode_rt
000a00   518a     MOV	0x8a, R0             	MOV	_mode_rt, R0
000a01   caa1     JMP	#0xaa1               	JMP	_00328_DS_
                                           _00310_DS_
000a02   9f0f     MOV	R7, #0xf             	TRAPPC1	_All_rt_off
000a03   5f73     MOV	0x73, R7             	TRAPPC2	_All_rt_off
000a04   e00f     MOVP	#0x0F               	PAGESEL	_All_rt_off
000a05   df9f     CALL	#0xf9f              	CALL	_All_rt_off
000a06   9f0a     MOV	R7, #0xa             	TRAPPC1	$+2
000a07   5f73     MOV	0x73, R7             	TRAPPC2	$+1
000a08   e00a     MOVP	#0x0A               	PAGESEL	$
000a09   caa1     JMP	#0xaa1               	JMP	_00328_DS_
                                           _00311_DS_
000a0a   9807     MOV	R0, #0x7             	MOV	R0,# 0x07
                                           	BANKSEL	_PWM_cnt
000a0b   38b6     SUB	R0, 0xb6             	SUB	R0, (_PWM_cnt + 1)
000a0c   7a03     JB	0x3, 2                	JB	PSW, 2
000a0d   ca10     JMP	#0xa10               	JMP	_00344_DS_
000a0e   9809     MOV	R0, #0x9             	MOV	R0,# 0x09
                                           	BANKSEL	_PWM_cnt
000a0f   38b5     SUB	R0, 0xb5             	SUB	R0, _PWM_cnt
                                           _00344_DS_
000a10   7803     JB	0x3, 0                	JB	PSW, 0
000a11   ca30     JMP	#0xa30               	JMP	_00324_DS_
000a12   980b     MOV	R0, #0xb             	MOV	R0,# 0x0b
                                           	BANKSEL	_PWM_cnt
000a13   38b6     SUB	R0, 0xb6             	SUB	R0, (_PWM_cnt + 1)
000a14   7a03     JB	0x3, 2                	JB	PSW, 2
000a15   ca18     JMP	#0xa18               	JMP	_00345_DS_
000a16   98b9     MOV	R0, #0xb9            	MOV	R0,# 0xb9
                                           	BANKSEL	_PWM_cnt
000a17   38b5     SUB	R0, 0xb5             	SUB	R0, _PWM_cnt
                                           _00345_DS_
000a18   7003     JNB	0x3, 0               	JNB	PSW, 0
000a19   ca30     JMP	#0xa30               	JMP	_00324_DS_
000a1a   98f8     MOV	R0, #0xf8            	MOV	R0,# 0xf8
                                           	BANKSEL	_PWM_cnt
000a1b   20b5     ADD	R0, 0xb5             	ADD	R0, _PWM_cnt
                                           	BANKSEL	r0x1029
000a1c   5197     MOV	0x97, R0             	MOV	r0x1029, R0
000a1d   98f8     MOV	R0, #0xf8            	MOV	R0,# 0xf8
                                           	BANKSEL	r0x102A
000a1e   5196     MOV	0x96, R0             	MOV	r0x102A, R0
                                           	BANKSEL	_PWM_cnt
000a1f   0eb6     MOVZ	R0, 0xb6            	MOVZ	R0, (_PWM_cnt + 1)
000a20   7003     JNB	0x3, 0               	JNB	PSW, 0
000a21   ff10     INC	R0                   	INC	R0
000a22   7203     JNB	0x3, 2               	JNB	PSW, 2
000a23   ca25     JMP	#0xa25               	JMP	_00524_DS_
                                           	BANKSEL	r0x102A
000a24   2196     ADD	0x96, R0             	ADD	r0x102A, R0
                                           _00524_DS_
                                           	BANKSEL	r0x1029
000a25   0e97     MOVZ	R0, 0x97            	MOVZ	R0, r0x1029
                                           	BANKSEL	STK00
000a26   51d2     MOV	0xd2, R0             	MOV	STK00, R0
                                           	BANKSEL	r0x102A
000a27   0e96     MOVZ	R0, 0x96            	MOVZ	R0, r0x102A
000a28   9f08     MOV	R7, #0x8             	TRAPPC1	_paoma_low
000a29   5f73     MOV	0x73, R7             	TRAPPC2	_paoma_low
000a2a   e008     MOVP	#0x08               	PAGESEL	_paoma_low
000a2b   d8e1     CALL	#0x8e1              	CALL	_paoma_low
000a2c   9f0a     MOV	R7, #0xa             	TRAPPC1	$+2
000a2d   5f73     MOV	0x73, R7             	TRAPPC2	$+1
000a2e   e00a     MOVP	#0x0A               	PAGESEL	$
000a2f   caa1     JMP	#0xaa1               	JMP	_00328_DS_
                                           _00324_DS_
000a30   9817     MOV	R0, #0x17            	MOV	R0,# 0x17
                                           	BANKSEL	_PWM_cnt
000a31   38b6     SUB	R0, 0xb6             	SUB	R0, (_PWM_cnt + 1)
000a32   7a03     JB	0x3, 2                	JB	PSW, 2
000a33   ca36     JMP	#0xa36               	JMP	_00346_DS_
000a34   9835     MOV	R0, #0x35            	MOV	R0,# 0x35
                                           	BANKSEL	_PWM_cnt
000a35   38b5     SUB	R0, 0xb5             	SUB	R0, _PWM_cnt
                                           _00346_DS_
000a36   7803     JB	0x3, 0                	JB	PSW, 0
000a37   ca56     JMP	#0xa56               	JMP	_00320_DS_
000a38   981b     MOV	R0, #0x1b            	MOV	R0,# 0x1b
                                           	BANKSEL	_PWM_cnt
000a39   38b6     SUB	R0, 0xb6             	SUB	R0, (_PWM_cnt + 1)
000a3a   7a03     JB	0x3, 2                	JB	PSW, 2
000a3b   ca3e     JMP	#0xa3e               	JMP	_00347_DS_
000a3c   98e4     MOV	R0, #0xe4            	MOV	R0,# 0xe4
                                           	BANKSEL	_PWM_cnt
000a3d   38b5     SUB	R0, 0xb5             	SUB	R0, _PWM_cnt
                                           _00347_DS_
000a3e   7003     JNB	0x3, 0               	JNB	PSW, 0
000a3f   ca56     JMP	#0xa56               	JMP	_00320_DS_
000a40   98cc     MOV	R0, #0xcc            	MOV	R0,# 0xcc
                                           	BANKSEL	_PWM_cnt
000a41   20b5     ADD	R0, 0xb5             	ADD	R0, _PWM_cnt
                                           	BANKSEL	r0x1029
000a42   5197     MOV	0x97, R0             	MOV	r0x1029, R0
000a43   98e8     MOV	R0, #0xe8            	MOV	R0,# 0xe8
                                           	BANKSEL	r0x102A
000a44   5196     MOV	0x96, R0             	MOV	r0x102A, R0
                                           	BANKSEL	_PWM_cnt
000a45   0eb6     MOVZ	R0, 0xb6            	MOVZ	R0, (_PWM_cnt + 1)
000a46   7003     JNB	0x3, 0               	JNB	PSW, 0
000a47   ff10     INC	R0                   	INC	R0
000a48   7203     JNB	0x3, 2               	JNB	PSW, 2
000a49   ca4b     JMP	#0xa4b               	JMP	_00525_DS_
                                           	BANKSEL	r0x102A
000a4a   2196     ADD	0x96, R0             	ADD	r0x102A, R0
                                           _00525_DS_
                                           	BANKSEL	r0x1029
000a4b   0e97     MOVZ	R0, 0x97            	MOVZ	R0, r0x1029
                                           	BANKSEL	STK00
000a4c   51d2     MOV	0xd2, R0             	MOV	STK00, R0
                                           	BANKSEL	r0x102A
000a4d   0e96     MOVZ	R0, 0x96            	MOVZ	R0, r0x102A
000a4e   9f0b     MOV	R7, #0xb             	TRAPPC1	_flow_low
000a4f   5f73     MOV	0x73, R7             	TRAPPC2	_flow_low
000a50   e00b     MOVP	#0x0B               	PAGESEL	_flow_low
000a51   db67     CALL	#0xb67              	CALL	_flow_low
000a52   9f0a     MOV	R7, #0xa             	TRAPPC1	$+2
000a53   5f73     MOV	0x73, R7             	TRAPPC2	$+1
000a54   e00a     MOVP	#0x0A               	PAGESEL	$
000a55   caa1     JMP	#0xaa1               	JMP	_00328_DS_
                                           _00320_DS_
000a56   9821     MOV	R0, #0x21            	MOV	R0,# 0x21
                                           	BANKSEL	_PWM_cnt
000a57   38b6     SUB	R0, 0xb6             	SUB	R0, (_PWM_cnt + 1)
000a58   7a03     JB	0x3, 2                	JB	PSW, 2
000a59   ca5c     JMP	#0xa5c               	JMP	_00348_DS_
000a5a   9885     MOV	R0, #0x85            	MOV	R0,# 0x85
                                           	BANKSEL	_PWM_cnt
000a5b   38b5     SUB	R0, 0xb5             	SUB	R0, _PWM_cnt
                                           _00348_DS_
000a5c   7803     JB	0x3, 0                	JB	PSW, 0
000a5d   ca7c     JMP	#0xa7c               	JMP	_00316_DS_
000a5e   982c     MOV	R0, #0x2c            	MOV	R0,# 0x2c
                                           	BANKSEL	_PWM_cnt
000a5f   38b6     SUB	R0, 0xb6             	SUB	R0, (_PWM_cnt + 1)
000a60   7a03     JB	0x3, 2                	JB	PSW, 2
000a61   ca64     JMP	#0xa64               	JMP	_00349_DS_
000a62   9811     MOV	R0, #0x11            	MOV	R0,# 0x11
                                           	BANKSEL	_PWM_cnt
000a63   38b5     SUB	R0, 0xb5             	SUB	R0, _PWM_cnt
                                           _00349_DS_
000a64   7003     JNB	0x3, 0               	JNB	PSW, 0
000a65   ca7c     JMP	#0xa7c               	JMP	_00316_DS_
000a66   987c     MOV	R0, #0x7c            	MOV	R0,# 0x7c
                                           	BANKSEL	_PWM_cnt
000a67   20b5     ADD	R0, 0xb5             	ADD	R0, _PWM_cnt
                                           	BANKSEL	r0x1029
000a68   5197     MOV	0x97, R0             	MOV	r0x1029, R0
000a69   98de     MOV	R0, #0xde            	MOV	R0,# 0xde
                                           	BANKSEL	r0x102A
000a6a   5196     MOV	0x96, R0             	MOV	r0x102A, R0
                                           	BANKSEL	_PWM_cnt
000a6b   0eb6     MOVZ	R0, 0xb6            	MOVZ	R0, (_PWM_cnt + 1)
000a6c   7003     JNB	0x3, 0               	JNB	PSW, 0
000a6d   ff10     INC	R0                   	INC	R0
000a6e   7203     JNB	0x3, 2               	JNB	PSW, 2
000a6f   ca71     JMP	#0xa71               	JMP	_00526_DS_
                                           	BANKSEL	r0x102A
000a70   2196     ADD	0x96, R0             	ADD	r0x102A, R0
                                           _00526_DS_
                                           	BANKSEL	r0x1029
000a71   0e97     MOVZ	R0, 0x97            	MOVZ	R0, r0x1029
                                           	BANKSEL	STK00
000a72   51d2     MOV	0xd2, R0             	MOV	STK00, R0
                                           	BANKSEL	r0x102A
000a73   0e96     MOVZ	R0, 0x96            	MOVZ	R0, r0x102A
000a74   9f02     MOV	R7, #0x2             	TRAPPC1	_paoma_high
000a75   5f73     MOV	0x73, R7             	TRAPPC2	_paoma_high
000a76   e002     MOVP	#0x02               	PAGESEL	_paoma_high
000a77   d272     CALL	#0x272              	CALL	_paoma_high
000a78   9f0a     MOV	R7, #0xa             	TRAPPC1	$+2
000a79   5f73     MOV	0x73, R7             	TRAPPC2	$+1
000a7a   e00a     MOVP	#0x0A               	PAGESEL	$
000a7b   caa1     JMP	#0xaa1               	JMP	_00328_DS_
                                           _00316_DS_
000a7c   982c     MOV	R0, #0x2c            	MOV	R0,# 0x2c
                                           	BANKSEL	_PWM_cnt
000a7d   38b6     SUB	R0, 0xb6             	SUB	R0, (_PWM_cnt + 1)
000a7e   7a03     JB	0x3, 2                	JB	PSW, 2
000a7f   ca82     JMP	#0xa82               	JMP	_00350_DS_
000a80   9825     MOV	R0, #0x25            	MOV	R0,# 0x25
                                           	BANKSEL	_PWM_cnt
000a81   38b5     SUB	R0, 0xb5             	SUB	R0, _PWM_cnt
                                           _00350_DS_
000a82   7803     JB	0x3, 0                	JB	PSW, 0
000a83   caa1     JMP	#0xaa1               	JMP	_00328_DS_
000a84   9830     MOV	R0, #0x30            	MOV	R0,# 0x30
                                           	BANKSEL	_PWM_cnt
000a85   38b6     SUB	R0, 0xb6             	SUB	R0, (_PWM_cnt + 1)
000a86   7a03     JB	0x3, 2                	JB	PSW, 2
000a87   ca8a     JMP	#0xa8a               	JMP	_00351_DS_
000a88   980d     MOV	R0, #0xd             	MOV	R0,# 0x0d
                                           	BANKSEL	_PWM_cnt
000a89   38b5     SUB	R0, 0xb5             	SUB	R0, _PWM_cnt
                                           _00351_DS_
000a8a   7003     JNB	0x3, 0               	JNB	PSW, 0
000a8b   caa1     JMP	#0xaa1               	JMP	_00328_DS_
000a8c   98dc     MOV	R0, #0xdc            	MOV	R0,# 0xdc
                                           	BANKSEL	_PWM_cnt
000a8d   20b5     ADD	R0, 0xb5             	ADD	R0, _PWM_cnt
                                           	BANKSEL	r0x1029
000a8e   5197     MOV	0x97, R0             	MOV	r0x1029, R0
000a8f   98d3     MOV	R0, #0xd3            	MOV	R0,# 0xd3
                                           	BANKSEL	r0x102A
000a90   5196     MOV	0x96, R0             	MOV	r0x102A, R0
                                           	BANKSEL	_PWM_cnt
000a91   0eb6     MOVZ	R0, 0xb6            	MOVZ	R0, (_PWM_cnt + 1)
000a92   7003     JNB	0x3, 0               	JNB	PSW, 0
000a93   ff10     INC	R0                   	INC	R0
000a94   7203     JNB	0x3, 2               	JNB	PSW, 2
000a95   ca97     JMP	#0xa97               	JMP	_00527_DS_
                                           	BANKSEL	r0x102A
000a96   2196     ADD	0x96, R0             	ADD	r0x102A, R0
                                           _00527_DS_
                                           	BANKSEL	r0x1029
000a97   0e97     MOVZ	R0, 0x97            	MOVZ	R0, r0x1029
                                           	BANKSEL	STK00
000a98   51d2     MOV	0xd2, R0             	MOV	STK00, R0
                                           	BANKSEL	r0x102A
000a99   0e96     MOVZ	R0, 0x96            	MOVZ	R0, r0x102A
000a9a   9f0d     MOV	R7, #0xd             	TRAPPC1	_Huxi_off
000a9b   5f73     MOV	0x73, R7             	TRAPPC2	_Huxi_off
000a9c   e00d     MOVP	#0x0D               	PAGESEL	_Huxi_off
000a9d   dd65     CALL	#0xd65              	CALL	_Huxi_off
000a9e   9f0a     MOV	R7, #0xa             	TRAPPC1	$+2
000a9f   5f73     MOV	0x73, R7             	TRAPPC2	$+1
000aa0   e00a     MOVP	#0x0A               	PAGESEL	$
                                           _00328_DS_
000aa1   0008     CRET                     	CRET	
                                           func._paoma_high	.code
                                           _paoma_high	;Function start
000272   e100     MOVB	#0x00               	BANKSEL	r0x1023
000273   519c     MOV	0x9c, R0             	MOV	r0x1023, R0
                                           	BANKSEL	STK00
000274   0ed2     MOVZ	R0, 0xd2            	MOVZ	R0, STK00
                                           	BANKSEL	r0x1024
000275   519d     MOV	0x9d, R0             	MOV	r0x1024, R0
000276   983c     MOV	R0, #0x3c            	MOV	R0,# 0x3c
                                           	BANKSEL	STK01
000277   51d1     MOV	0xd1, R0             	MOV	STK01, R0
                                           	BANKSEL	r0x1024
000278   0e9d     MOVZ	R0, 0x9d            	MOVZ	R0, r0x1024
                                           	BANKSEL	STK00
000279   51d2     MOV	0xd2, R0             	MOV	STK00, R0
                                           	BANKSEL	r0x1023
00027a   0e9c     MOVZ	R0, 0x9c            	MOVZ	R0, r0x1023
00027b   9f70     MOV	R7, #0x70            	TRAPPC1	__h16udiv8
00027c   5f73     MOV	0x73, R7             	TRAPPC2	__h16udiv8
00027d   e070     MOVP	#0x70               	PAGESEL	__h16udiv8
00027e   d046     CALL	#0x46               	CALL	__h16udiv8
00027f   9f02     MOV	R7, #0x2             	TRAPPC1	$+2
000280   5f73     MOV	0x73, R7             	TRAPPC2	$+1
000281   e002     MOVP	#0x02               	PAGESEL	$
000282   e100     MOVB	#0x00               	BANKSEL	r0x1025
000283   519a     MOV	0x9a, R0             	MOV	r0x1025, R0
                                           	BANKSEL	STK00
000284   0ed2     MOVZ	R0, 0xd2            	MOVZ	R0, STK00
                                           	BANKSEL	r0x1026
000285   519b     MOV	0x9b, R0             	MOV	r0x1026, R0
                                           	BANKSEL	_Liushui_l
000286   0e8c     MOVZ	R0, 0x8c            	MOVZ	R0, _Liushui_l
                                           	BANKSEL	r0x1027
000287   5199     MOV	0x99, R0             	MOV	r0x1027, R0
                                           	BANKSEL	r0x1028
000288   0398     CLR	0x98                 	CLR	r0x1028
                                           	BANKSEL	r0x1026
000289   0e9b     MOVZ	R0, 0x9b            	MOVZ	R0, r0x1026
                                           	BANKSEL	r0x1027
00028a   1899     XOR	R0, 0x99             	XOR	R0, r0x1027
00028b   7a03     JB	0x3, 2                	JB	PSW, 2
00028c   c291     JMP	#0x291               	JMP	_00296_DS_
                                           	BANKSEL	r0x1025
00028d   0e9a     MOVZ	R0, 0x9a            	MOVZ	R0, r0x1025
                                           	BANKSEL	r0x1028
00028e   1898     XOR	R0, 0x98             	XOR	R0, r0x1028
00028f   7203     JNB	0x3, 2               	JNB	PSW, 2
000290   c419     JMP	#0x419               	JMP	_00261_DS_
                                           _00296_DS_
000291   983c     MOV	R0, #0x3c            	MOV	R0,# 0x3c
                                           	BANKSEL	STK01
000292   51d1     MOV	0xd1, R0             	MOV	STK01, R0
                                           	BANKSEL	r0x1024
000293   0e9d     MOVZ	R0, 0x9d            	MOVZ	R0, r0x1024
                                           	BANKSEL	STK00
000294   51d2     MOV	0xd2, R0             	MOV	STK00, R0
                                           	BANKSEL	r0x1023
000295   0e9c     MOVZ	R0, 0x9c            	MOVZ	R0, r0x1023
000296   9f70     MOV	R7, #0x70            	TRAPPC1	__h16udiv8
000297   5f73     MOV	0x73, R7             	TRAPPC2	__h16udiv8
000298   e070     MOVP	#0x70               	PAGESEL	__h16udiv8
000299   d046     CALL	#0x46               	CALL	__h16udiv8
00029a   9f02     MOV	R7, #0x2             	TRAPPC1	$+2
00029b   5f73     MOV	0x73, R7             	TRAPPC2	$+1
00029c   e002     MOVP	#0x02               	PAGESEL	$
00029d   e100     MOVB	#0x00               	BANKSEL	r0x1025
00029e   519a     MOV	0x9a, R0             	MOV	r0x1025, R0
                                           	BANKSEL	STK00
00029f   0ed2     MOVZ	R0, 0xd2            	MOVZ	R0, STK00
                                           	BANKSEL	r0x1026
0002a0   519b     MOV	0x9b, R0             	MOV	r0x1026, R0
                                           	BANKSEL	_Liushui_l
0002a1   518c     MOV	0x8c, R0             	MOV	_Liushui_l, R0
0002a2   9800     MOV	R0, #0               	MOV	R0,# 0x00
                                           	BANKSEL	_Liushui_l
0002a3   308c     ORL	R0, 0x8c             	ORL	R0, _Liushui_l
0002a4   7a03     JB	0x3, 2                	JB	PSW, 2
0002a5   c2c0     JMP	#0x2c0               	JMP	_00258_DS_
0002a6   98ff     MOV	R0, #0xff            	MOV	R0,# 0xff
                                           	BANKSEL	STK01
0002a7   51d1     MOV	0xd1, R0             	MOV	STK01, R0
0002a8   9828     MOV	R0, #0x28            	MOV	R0,# 0x28
                                           	BANKSEL	STK00
0002a9   51d2     MOV	0xd2, R0             	MOV	STK00, R0
0002aa   9802     MOV	R0, #0x2             	MOV	R0,# 0x02
0002ab   9f0e     MOV	R7, #0xe             	TRAPPC1	_SPI_Write_1Byte
0002ac   5f73     MOV	0x73, R7             	TRAPPC2	_SPI_Write_1Byte
0002ad   e00e     MOVP	#0x0E               	PAGESEL	_SPI_Write_1Byte
0002ae   dee1     CALL	#0xee1              	CALL	_SPI_Write_1Byte
0002af   9f02     MOV	R7, #0x2             	TRAPPC1	$+2
0002b0   5f73     MOV	0x73, R7             	TRAPPC2	$+1
0002b1   e002     MOVP	#0x02               	PAGESEL	$
0002b2   9800     MOV	R0, #0               	MOV	R0,# 0x00
0002b3   e100     MOVB	#0x00               	BANKSEL	STK01
0002b4   51d1     MOV	0xd1, R0             	MOV	STK01, R0
0002b5   9837     MOV	R0, #0x37            	MOV	R0,# 0x37
                                           	BANKSEL	STK00
0002b6   51d2     MOV	0xd2, R0             	MOV	STK00, R0
0002b7   9802     MOV	R0, #0x2             	MOV	R0,# 0x02
0002b8   9f0e     MOV	R7, #0xe             	TRAPPC1	_SPI_Write_1Byte
0002b9   5f73     MOV	0x73, R7             	TRAPPC2	_SPI_Write_1Byte
0002ba   e00e     MOVP	#0x0E               	PAGESEL	_SPI_Write_1Byte
0002bb   dee1     CALL	#0xee1              	CALL	_SPI_Write_1Byte
0002bc   9f02     MOV	R7, #0x2             	TRAPPC1	$+2
0002bd   5f73     MOV	0x73, R7             	TRAPPC2	$+1
0002be   e002     MOVP	#0x02               	PAGESEL	$
0002bf   c419     JMP	#0x419               	JMP	_00261_DS_
                                           _00258_DS_
0002c0   980a     MOV	R0, #0xa             	MOV	R0,# 0x0a
                                           	BANKSEL	_Liushui_l
0002c1   388c     SUB	R0, 0x8c             	SUB	R0, _Liushui_l
0002c2   7003     JNB	0x3, 0               	JNB	PSW, 0
0002c3   c2f1     JMP	#0x2f1               	JMP	_00255_DS_
                                           	BANKSEL	_Liushui_l
0002c4   0e8c     MOVZ	R0, 0x8c            	MOVZ	R0, _Liushui_l
0002c5   a029     SUB	R0, #0x29            	SUB	R0,# 0x29
                                           	BANKSEL	r0x1026
0002c6   519b     MOV	0x9b, R0             	MOV	r0x1026, R0
0002c7   9810     MOV	R0, #0x10            	MOV	R0,# 0x10
                                           	BANKSEL	STK01
0002c8   51d1     MOV	0xd1, R0             	MOV	STK01, R0
                                           	BANKSEL	r0x1026
0002c9   0e9b     MOVZ	R0, 0x9b            	MOVZ	R0, r0x1026
                                           	BANKSEL	STK00
0002ca   51d2     MOV	0xd2, R0             	MOV	STK00, R0
0002cb   9802     MOV	R0, #0x2             	MOV	R0,# 0x02
0002cc   9f0e     MOV	R7, #0xe             	TRAPPC1	_SPI_Write_1Byte
0002cd   5f73     MOV	0x73, R7             	TRAPPC2	_SPI_Write_1Byte
0002ce   e00e     MOVP	#0x0E               	PAGESEL	_SPI_Write_1Byte
0002cf   dee1     CALL	#0xee1              	CALL	_SPI_Write_1Byte
0002d0   9f02     MOV	R7, #0x2             	TRAPPC1	$+2
0002d1   5f73     MOV	0x73, R7             	TRAPPC2	$+1
0002d2   e002     MOVP	#0x02               	PAGESEL	$
0002d3   e100     MOVB	#0x00               	BANKSEL	_Liushui_l
0002d4   0e8c     MOVZ	R0, 0x8c            	MOVZ	R0, _Liushui_l
0002d5   a028     SUB	R0, #0x28            	SUB	R0,# 0x28
                                           	BANKSEL	r0x1026
0002d6   519b     MOV	0x9b, R0             	MOV	r0x1026, R0
0002d7   98ff     MOV	R0, #0xff            	MOV	R0,# 0xff
                                           	BANKSEL	STK01
0002d8   51d1     MOV	0xd1, R0             	MOV	STK01, R0
                                           	BANKSEL	r0x1026
0002d9   0e9b     MOVZ	R0, 0x9b            	MOVZ	R0, r0x1026
                                           	BANKSEL	STK00
0002da   51d2     MOV	0xd2, R0             	MOV	STK00, R0
0002db   9802     MOV	R0, #0x2             	MOV	R0,# 0x02
0002dc   9f0e     MOV	R7, #0xe             	TRAPPC1	_SPI_Write_1Byte
0002dd   5f73     MOV	0x73, R7             	TRAPPC2	_SPI_Write_1Byte
0002de   e00e     MOVP	#0x0E               	PAGESEL	_SPI_Write_1Byte
0002df   dee1     CALL	#0xee1              	CALL	_SPI_Write_1Byte
0002e0   9f02     MOV	R7, #0x2             	TRAPPC1	$+2
0002e1   5f73     MOV	0x73, R7             	TRAPPC2	$+1
0002e2   e002     MOVP	#0x02               	PAGESEL	$
0002e3   9800     MOV	R0, #0               	MOV	R0,# 0x00
0002e4   e100     MOVB	#0x00               	BANKSEL	STK01
0002e5   51d1     MOV	0xd1, R0             	MOV	STK01, R0
0002e6   9837     MOV	R0, #0x37            	MOV	R0,# 0x37
                                           	BANKSEL	STK00
0002e7   51d2     MOV	0xd2, R0             	MOV	STK00, R0
0002e8   9802     MOV	R0, #0x2             	MOV	R0,# 0x02
0002e9   9f0e     MOV	R7, #0xe             	TRAPPC1	_SPI_Write_1Byte
0002ea   5f73     MOV	0x73, R7             	TRAPPC2	_SPI_Write_1Byte
0002eb   e00e     MOVP	#0x0E               	PAGESEL	_SPI_Write_1Byte
0002ec   dee1     CALL	#0xee1              	CALL	_SPI_Write_1Byte
0002ed   9f02     MOV	R7, #0x2             	TRAPPC1	$+2
0002ee   5f73     MOV	0x73, R7             	TRAPPC2	$+1
0002ef   e002     MOVP	#0x02               	PAGESEL	$
0002f0   c419     JMP	#0x419               	JMP	_00261_DS_
                                           _00255_DS_
                                           	BANKSEL	_Liushui_l
0002f1   0e8c     MOVZ	R0, 0x8c            	MOVZ	R0, _Liushui_l
0002f2   a80a     XOR	R0, #0xa             	XOR	R0,# 0x0a
0002f3   7a03     JB	0x3, 2                	JB	PSW, 2
0002f4   c329     JMP	#0x329               	JMP	_00252_DS_
0002f5   9810     MOV	R0, #0x10            	MOV	R0,# 0x10
                                           	BANKSEL	STK01
0002f6   51d1     MOV	0xd1, R0             	MOV	STK01, R0
0002f7   981f     MOV	R0, #0x1f            	MOV	R0,# 0x1f
                                           	BANKSEL	STK00
0002f8   51d2     MOV	0xd2, R0             	MOV	STK00, R0
0002f9   9802     MOV	R0, #0x2             	MOV	R0,# 0x02
0002fa   9f0e     MOV	R7, #0xe             	TRAPPC1	_SPI_Write_1Byte
0002fb   5f73     MOV	0x73, R7             	TRAPPC2	_SPI_Write_1Byte
0002fc   e00e     MOVP	#0x0E               	PAGESEL	_SPI_Write_1Byte
0002fd   dee1     CALL	#0xee1              	CALL	_SPI_Write_1Byte
0002fe   9f03     MOV	R7, #0x3             	TRAPPC1	$+2
0002ff   5f73     MOV	0x73, R7             	TRAPPC2	$+1
000300   e003     MOVP	#0x03               	PAGESEL	$
000301   9800     MOV	R0, #0               	MOV	R0,# 0x00
000302   e100     MOVB	#0x00               	BANKSEL	STK01
000303   51d1     MOV	0xd1, R0             	MOV	STK01, R0
000304   9837     MOV	R0, #0x37            	MOV	R0,# 0x37
                                           	BANKSEL	STK00
000305   51d2     MOV	0xd2, R0             	MOV	STK00, R0
000306   9802     MOV	R0, #0x2             	MOV	R0,# 0x02
000307   9f0e     MOV	R7, #0xe             	TRAPPC1	_SPI_Write_1Byte
000308   5f73     MOV	0x73, R7             	TRAPPC2	_SPI_Write_1Byte
000309   e00e     MOVP	#0x0E               	PAGESEL	_SPI_Write_1Byte
00030a   dee1     CALL	#0xee1              	CALL	_SPI_Write_1Byte
00030b   9f03     MOV	R7, #0x3             	TRAPPC1	$+2
00030c   5f73     MOV	0x73, R7             	TRAPPC2	$+1
00030d   e003     MOVP	#0x03               	PAGESEL	$
00030e   98ff     MOV	R0, #0xff            	MOV	R0,# 0xff
00030f   e100     MOVB	#0x00               	BANKSEL	STK01
000310   51d1     MOV	0xd1, R0             	MOV	STK01, R0
000311   9828     MOV	R0, #0x28            	MOV	R0,# 0x28
                                           	BANKSEL	STK00
000312   51d2     MOV	0xd2, R0             	MOV	STK00, R0
000313   9801     MOV	R0, #0x1             	MOV	R0,# 0x01
000314   9f0e     MOV	R7, #0xe             	TRAPPC1	_SPI_Write_1Byte
000315   5f73     MOV	0x73, R7             	TRAPPC2	_SPI_Write_1Byte
000316   e00e     MOVP	#0x0E               	PAGESEL	_SPI_Write_1Byte
000317   dee1     CALL	#0xee1              	CALL	_SPI_Write_1Byte
000318   9f03     MOV	R7, #0x3             	TRAPPC1	$+2
000319   5f73     MOV	0x73, R7             	TRAPPC2	$+1
00031a   e003     MOVP	#0x03               	PAGESEL	$
00031b   9800     MOV	R0, #0               	MOV	R0,# 0x00
00031c   e100     MOVB	#0x00               	BANKSEL	STK01
00031d   51d1     MOV	0xd1, R0             	MOV	STK01, R0
00031e   9837     MOV	R0, #0x37            	MOV	R0,# 0x37
                                           	BANKSEL	STK00
00031f   51d2     MOV	0xd2, R0             	MOV	STK00, R0
000320   9801     MOV	R0, #0x1             	MOV	R0,# 0x01
000321   9f0e     MOV	R7, #0xe             	TRAPPC1	_SPI_Write_1Byte
000322   5f73     MOV	0x73, R7             	TRAPPC2	_SPI_Write_1Byte
000323   e00e     MOVP	#0x0E               	PAGESEL	_SPI_Write_1Byte
000324   dee1     CALL	#0xee1              	CALL	_SPI_Write_1Byte
000325   9f03     MOV	R7, #0x3             	TRAPPC1	$+2
000326   5f73     MOV	0x73, R7             	TRAPPC2	$+1
000327   e003     MOVP	#0x03               	PAGESEL	$
000328   c419     JMP	#0x419               	JMP	_00261_DS_
                                           _00252_DS_
000329   9814     MOV	R0, #0x14            	MOV	R0,# 0x14
                                           	BANKSEL	_Liushui_l
00032a   388c     SUB	R0, 0x8c             	SUB	R0, _Liushui_l
00032b   7003     JNB	0x3, 0               	JNB	PSW, 0
00032c   c35a     JMP	#0x35a               	JMP	_00249_DS_
                                           	BANKSEL	_Liushui_l
00032d   0e8c     MOVZ	R0, 0x8c            	MOVZ	R0, _Liushui_l
00032e   a033     SUB	R0, #0x33            	SUB	R0,# 0x33
                                           	BANKSEL	r0x1026
00032f   519b     MOV	0x9b, R0             	MOV	r0x1026, R0
000330   9810     MOV	R0, #0x10            	MOV	R0,# 0x10
                                           	BANKSEL	STK01
000331   51d1     MOV	0xd1, R0             	MOV	STK01, R0
                                           	BANKSEL	r0x1026
000332   0e9b     MOVZ	R0, 0x9b            	MOVZ	R0, r0x1026
                                           	BANKSEL	STK00
000333   51d2     MOV	0xd2, R0             	MOV	STK00, R0
000334   9801     MOV	R0, #0x1             	MOV	R0,# 0x01
000335   9f0e     MOV	R7, #0xe             	TRAPPC1	_SPI_Write_1Byte
000336   5f73     MOV	0x73, R7             	TRAPPC2	_SPI_Write_1Byte
000337   e00e     MOVP	#0x0E               	PAGESEL	_SPI_Write_1Byte
000338   dee1     CALL	#0xee1              	CALL	_SPI_Write_1Byte
000339   9f03     MOV	R7, #0x3             	TRAPPC1	$+2
00033a   5f73     MOV	0x73, R7             	TRAPPC2	$+1
00033b   e003     MOVP	#0x03               	PAGESEL	$
00033c   e100     MOVB	#0x00               	BANKSEL	_Liushui_l
00033d   0e8c     MOVZ	R0, 0x8c            	MOVZ	R0, _Liushui_l
00033e   a032     SUB	R0, #0x32            	SUB	R0,# 0x32
                                           	BANKSEL	r0x1026
00033f   519b     MOV	0x9b, R0             	MOV	r0x1026, R0
000340   98ff     MOV	R0, #0xff            	MOV	R0,# 0xff
                                           	BANKSEL	STK01
000341   51d1     MOV	0xd1, R0             	MOV	STK01, R0
                                           	BANKSEL	r0x1026
000342   0e9b     MOVZ	R0, 0x9b            	MOVZ	R0, r0x1026
                                           	BANKSEL	STK00
000343   51d2     MOV	0xd2, R0             	MOV	STK00, R0
000344   9801     MOV	R0, #0x1             	MOV	R0,# 0x01
000345   9f0e     MOV	R7, #0xe             	TRAPPC1	_SPI_Write_1Byte
000346   5f73     MOV	0x73, R7             	TRAPPC2	_SPI_Write_1Byte
000347   e00e     MOVP	#0x0E               	PAGESEL	_SPI_Write_1Byte
000348   dee1     CALL	#0xee1              	CALL	_SPI_Write_1Byte
000349   9f03     MOV	R7, #0x3             	TRAPPC1	$+2
00034a   5f73     MOV	0x73, R7             	TRAPPC2	$+1
00034b   e003     MOVP	#0x03               	PAGESEL	$
00034c   9800     MOV	R0, #0               	MOV	R0,# 0x00
00034d   e100     MOVB	#0x00               	BANKSEL	STK01
00034e   51d1     MOV	0xd1, R0             	MOV	STK01, R0
00034f   9837     MOV	R0, #0x37            	MOV	R0,# 0x37
                                           	BANKSEL	STK00
000350   51d2     MOV	0xd2, R0             	MOV	STK00, R0
000351   9801     MOV	R0, #0x1             	MOV	R0,# 0x01
000352   9f0e     MOV	R7, #0xe             	TRAPPC1	_SPI_Write_1Byte
000353   5f73     MOV	0x73, R7             	TRAPPC2	_SPI_Write_1Byte
000354   e00e     MOVP	#0x0E               	PAGESEL	_SPI_Write_1Byte
000355   dee1     CALL	#0xee1              	CALL	_SPI_Write_1Byte
000356   9f03     MOV	R7, #0x3             	TRAPPC1	$+2
000357   5f73     MOV	0x73, R7             	TRAPPC2	$+1
000358   e003     MOVP	#0x03               	PAGESEL	$
000359   c419     JMP	#0x419               	JMP	_00261_DS_
                                           _00249_DS_
                                           	BANKSEL	_Liushui_l
00035a   0e8c     MOVZ	R0, 0x8c            	MOVZ	R0, _Liushui_l
00035b   a817     XOR	R0, #0x17            	XOR	R0,# 0x17
00035c   7a03     JB	0x3, 2                	JB	PSW, 2
00035d   c378     JMP	#0x378               	JMP	_00246_DS_
00035e   98ff     MOV	R0, #0xff            	MOV	R0,# 0xff
                                           	BANKSEL	STK01
00035f   51d1     MOV	0xd1, R0             	MOV	STK01, R0
000360   9828     MOV	R0, #0x28            	MOV	R0,# 0x28
                                           	BANKSEL	STK00
000361   51d2     MOV	0xd2, R0             	MOV	STK00, R0
000362   9802     MOV	R0, #0x2             	MOV	R0,# 0x02
000363   9f0e     MOV	R7, #0xe             	TRAPPC1	_SPI_Write_1Byte
000364   5f73     MOV	0x73, R7             	TRAPPC2	_SPI_Write_1Byte
000365   e00e     MOVP	#0x0E               	PAGESEL	_SPI_Write_1Byte
000366   dee1     CALL	#0xee1              	CALL	_SPI_Write_1Byte
000367   9f03     MOV	R7, #0x3             	TRAPPC1	$+2
000368   5f73     MOV	0x73, R7             	TRAPPC2	$+1
000369   e003     MOVP	#0x03               	PAGESEL	$
00036a   9800     MOV	R0, #0               	MOV	R0,# 0x00
00036b   e100     MOVB	#0x00               	BANKSEL	STK01
00036c   51d1     MOV	0xd1, R0             	MOV	STK01, R0
00036d   9837     MOV	R0, #0x37            	MOV	R0,# 0x37
                                           	BANKSEL	STK00
00036e   51d2     MOV	0xd2, R0             	MOV	STK00, R0
00036f   9802     MOV	R0, #0x2             	MOV	R0,# 0x02
000370   9f0e     MOV	R7, #0xe             	TRAPPC1	_SPI_Write_1Byte
000371   5f73     MOV	0x73, R7             	TRAPPC2	_SPI_Write_1Byte
000372   e00e     MOVP	#0x0E               	PAGESEL	_SPI_Write_1Byte
000373   dee1     CALL	#0xee1              	CALL	_SPI_Write_1Byte
000374   9f03     MOV	R7, #0x3             	TRAPPC1	$+2
000375   5f73     MOV	0x73, R7             	TRAPPC2	$+1
000376   e003     MOVP	#0x03               	PAGESEL	$
000377   c419     JMP	#0x419               	JMP	_00261_DS_
                                           _00246_DS_
000378   9818     MOV	R0, #0x18            	MOV	R0,# 0x18
                                           	BANKSEL	_Liushui_l
000379   388c     SUB	R0, 0x8c             	SUB	R0, _Liushui_l
00037a   7803     JB	0x3, 0                	JB	PSW, 0
00037b   c3ad     JMP	#0x3ad               	JMP	_00242_DS_
00037c   9821     MOV	R0, #0x21            	MOV	R0,# 0x21
                                           	BANKSEL	_Liushui_l
00037d   388c     SUB	R0, 0x8c             	SUB	R0, _Liushui_l
00037e   7003     JNB	0x3, 0               	JNB	PSW, 0
00037f   c3ad     JMP	#0x3ad               	JMP	_00242_DS_
                                           	BANKSEL	_Liushui_l
000380   0e8c     MOVZ	R0, 0x8c            	MOVZ	R0, _Liushui_l
000381   a040     SUB	R0, #0x40            	SUB	R0,# 0x40
                                           	BANKSEL	r0x1026
000382   519b     MOV	0x9b, R0             	MOV	r0x1026, R0
000383   9800     MOV	R0, #0               	MOV	R0,# 0x00
                                           	BANKSEL	STK01
000384   51d1     MOV	0xd1, R0             	MOV	STK01, R0
                                           	BANKSEL	r0x1026
000385   0e9b     MOVZ	R0, 0x9b            	MOVZ	R0, r0x1026
                                           	BANKSEL	STK00
000386   51d2     MOV	0xd2, R0             	MOV	STK00, R0
000387   9802     MOV	R0, #0x2             	MOV	R0,# 0x02
000388   9f0e     MOV	R7, #0xe             	TRAPPC1	_SPI_Write_1Byte
000389   5f73     MOV	0x73, R7             	TRAPPC2	_SPI_Write_1Byte
00038a   e00e     MOVP	#0x0E               	PAGESEL	_SPI_Write_1Byte
00038b   dee1     CALL	#0xee1              	CALL	_SPI_Write_1Byte
00038c   9f03     MOV	R7, #0x3             	TRAPPC1	$+2
00038d   5f73     MOV	0x73, R7             	TRAPPC2	$+1
00038e   e003     MOVP	#0x03               	PAGESEL	$
00038f   e100     MOVB	#0x00               	BANKSEL	_Liushui_l
000390   0e8c     MOVZ	R0, 0x8c            	MOVZ	R0, _Liushui_l
000391   a03f     SUB	R0, #0x3f            	SUB	R0,# 0x3f
                                           	BANKSEL	r0x1026
000392   519b     MOV	0x9b, R0             	MOV	r0x1026, R0
000393   98ff     MOV	R0, #0xff            	MOV	R0,# 0xff
                                           	BANKSEL	STK01
000394   51d1     MOV	0xd1, R0             	MOV	STK01, R0
                                           	BANKSEL	r0x1026
000395   0e9b     MOVZ	R0, 0x9b            	MOVZ	R0, r0x1026
                                           	BANKSEL	STK00
000396   51d2     MOV	0xd2, R0             	MOV	STK00, R0
000397   9802     MOV	R0, #0x2             	MOV	R0,# 0x02
000398   9f0e     MOV	R7, #0xe             	TRAPPC1	_SPI_Write_1Byte
000399   5f73     MOV	0x73, R7             	TRAPPC2	_SPI_Write_1Byte
00039a   e00e     MOVP	#0x0E               	PAGESEL	_SPI_Write_1Byte
00039b   dee1     CALL	#0xee1              	CALL	_SPI_Write_1Byte
00039c   9f03     MOV	R7, #0x3             	TRAPPC1	$+2
00039d   5f73     MOV	0x73, R7             	TRAPPC2	$+1
00039e   e003     MOVP	#0x03               	PAGESEL	$
00039f   9800     MOV	R0, #0               	MOV	R0,# 0x00
0003a0   e100     MOVB	#0x00               	BANKSEL	STK01
0003a1   51d1     MOV	0xd1, R0             	MOV	STK01, R0
0003a2   9837     MOV	R0, #0x37            	MOV	R0,# 0x37
                                           	BANKSEL	STK00
0003a3   51d2     MOV	0xd2, R0             	MOV	STK00, R0
0003a4   9802     MOV	R0, #0x2             	MOV	R0,# 0x02
0003a5   9f0e     MOV	R7, #0xe             	TRAPPC1	_SPI_Write_1Byte
0003a6   5f73     MOV	0x73, R7             	TRAPPC2	_SPI_Write_1Byte
0003a7   e00e     MOVP	#0x0E               	PAGESEL	_SPI_Write_1Byte
0003a8   dee1     CALL	#0xee1              	CALL	_SPI_Write_1Byte
0003a9   9f03     MOV	R7, #0x3             	TRAPPC1	$+2
0003aa   5f73     MOV	0x73, R7             	TRAPPC2	$+1
0003ab   e003     MOVP	#0x03               	PAGESEL	$
0003ac   c419     JMP	#0x419               	JMP	_00261_DS_
                                           _00242_DS_
                                           	BANKSEL	_Liushui_l
0003ad   0e8c     MOVZ	R0, 0x8c            	MOVZ	R0, _Liushui_l
0003ae   a821     XOR	R0, #0x21            	XOR	R0,# 0x21
0003af   7a03     JB	0x3, 2                	JB	PSW, 2
0003b0   c3e5     JMP	#0x3e5               	JMP	_00239_DS_
0003b1   9800     MOV	R0, #0               	MOV	R0,# 0x00
                                           	BANKSEL	STK01
0003b2   51d1     MOV	0xd1, R0             	MOV	STK01, R0
0003b3   981f     MOV	R0, #0x1f            	MOV	R0,# 0x1f
                                           	BANKSEL	STK00
0003b4   51d2     MOV	0xd2, R0             	MOV	STK00, R0
0003b5   9802     MOV	R0, #0x2             	MOV	R0,# 0x02
0003b6   9f0e     MOV	R7, #0xe             	TRAPPC1	_SPI_Write_1Byte
0003b7   5f73     MOV	0x73, R7             	TRAPPC2	_SPI_Write_1Byte
0003b8   e00e     MOVP	#0x0E               	PAGESEL	_SPI_Write_1Byte
0003b9   dee1     CALL	#0xee1              	CALL	_SPI_Write_1Byte
0003ba   9f03     MOV	R7, #0x3             	TRAPPC1	$+2
0003bb   5f73     MOV	0x73, R7             	TRAPPC2	$+1
0003bc   e003     MOVP	#0x03               	PAGESEL	$
0003bd   9800     MOV	R0, #0               	MOV	R0,# 0x00
0003be   e100     MOVB	#0x00               	BANKSEL	STK01
0003bf   51d1     MOV	0xd1, R0             	MOV	STK01, R0
0003c0   9837     MOV	R0, #0x37            	MOV	R0,# 0x37
                                           	BANKSEL	STK00
0003c1   51d2     MOV	0xd2, R0             	MOV	STK00, R0
0003c2   9802     MOV	R0, #0x2             	MOV	R0,# 0x02
0003c3   9f0e     MOV	R7, #0xe             	TRAPPC1	_SPI_Write_1Byte
0003c4   5f73     MOV	0x73, R7             	TRAPPC2	_SPI_Write_1Byte
0003c5   e00e     MOVP	#0x0E               	PAGESEL	_SPI_Write_1Byte
0003c6   dee1     CALL	#0xee1              	CALL	_SPI_Write_1Byte
0003c7   9f03     MOV	R7, #0x3             	TRAPPC1	$+2
0003c8   5f73     MOV	0x73, R7             	TRAPPC2	$+1
0003c9   e003     MOVP	#0x03               	PAGESEL	$
0003ca   98ff     MOV	R0, #0xff            	MOV	R0,# 0xff
0003cb   e100     MOVB	#0x00               	BANKSEL	STK01
0003cc   51d1     MOV	0xd1, R0             	MOV	STK01, R0
0003cd   9828     MOV	R0, #0x28            	MOV	R0,# 0x28
                                           	BANKSEL	STK00
0003ce   51d2     MOV	0xd2, R0             	MOV	STK00, R0
0003cf   9801     MOV	R0, #0x1             	MOV	R0,# 0x01
0003d0   9f0e     MOV	R7, #0xe             	TRAPPC1	_SPI_Write_1Byte
0003d1   5f73     MOV	0x73, R7             	TRAPPC2	_SPI_Write_1Byte
0003d2   e00e     MOVP	#0x0E               	PAGESEL	_SPI_Write_1Byte
0003d3   dee1     CALL	#0xee1              	CALL	_SPI_Write_1Byte
0003d4   9f03     MOV	R7, #0x3             	TRAPPC1	$+2
0003d5   5f73     MOV	0x73, R7             	TRAPPC2	$+1
0003d6   e003     MOVP	#0x03               	PAGESEL	$
0003d7   9800     MOV	R0, #0               	MOV	R0,# 0x00
0003d8   e100     MOVB	#0x00               	BANKSEL	STK01
0003d9   51d1     MOV	0xd1, R0             	MOV	STK01, R0
0003da   9837     MOV	R0, #0x37            	MOV	R0,# 0x37
                                           	BANKSEL	STK00
0003db   51d2     MOV	0xd2, R0             	MOV	STK00, R0
0003dc   9801     MOV	R0, #0x1             	MOV	R0,# 0x01
0003dd   9f0e     MOV	R7, #0xe             	TRAPPC1	_SPI_Write_1Byte
0003de   5f73     MOV	0x73, R7             	TRAPPC2	_SPI_Write_1Byte
0003df   e00e     MOVP	#0x0E               	PAGESEL	_SPI_Write_1Byte
0003e0   dee1     CALL	#0xee1              	CALL	_SPI_Write_1Byte
0003e1   9f03     MOV	R7, #0x3             	TRAPPC1	$+2
0003e2   5f73     MOV	0x73, R7             	TRAPPC2	$+1
0003e3   e003     MOVP	#0x03               	PAGESEL	$
0003e4   c419     JMP	#0x419               	JMP	_00261_DS_
                                           _00239_DS_
0003e5   9822     MOV	R0, #0x22            	MOV	R0,# 0x22
                                           	BANKSEL	_Liushui_l
0003e6   388c     SUB	R0, 0x8c             	SUB	R0, _Liushui_l
0003e7   7803     JB	0x3, 0                	JB	PSW, 0
0003e8   c419     JMP	#0x419               	JMP	_00261_DS_
0003e9   982b     MOV	R0, #0x2b            	MOV	R0,# 0x2b
                                           	BANKSEL	_Liushui_l
0003ea   388c     SUB	R0, 0x8c             	SUB	R0, _Liushui_l
0003eb   7003     JNB	0x3, 0               	JNB	PSW, 0
0003ec   c419     JMP	#0x419               	JMP	_00261_DS_
                                           	BANKSEL	_Liushui_l
0003ed   0e8c     MOVZ	R0, 0x8c            	MOVZ	R0, _Liushui_l
0003ee   a04a     SUB	R0, #0x4a            	SUB	R0,# 0x4a
                                           	BANKSEL	r0x1026
0003ef   519b     MOV	0x9b, R0             	MOV	r0x1026, R0
0003f0   9800     MOV	R0, #0               	MOV	R0,# 0x00
                                           	BANKSEL	STK01
0003f1   51d1     MOV	0xd1, R0             	MOV	STK01, R0
                                           	BANKSEL	r0x1026
0003f2   0e9b     MOVZ	R0, 0x9b            	MOVZ	R0, r0x1026
                                           	BANKSEL	STK00
0003f3   51d2     MOV	0xd2, R0             	MOV	STK00, R0
0003f4   9801     MOV	R0, #0x1             	MOV	R0,# 0x01
0003f5   9f0e     MOV	R7, #0xe             	TRAPPC1	_SPI_Write_1Byte
0003f6   5f73     MOV	0x73, R7             	TRAPPC2	_SPI_Write_1Byte
0003f7   e00e     MOVP	#0x0E               	PAGESEL	_SPI_Write_1Byte
0003f8   dee1     CALL	#0xee1              	CALL	_SPI_Write_1Byte
0003f9   9f03     MOV	R7, #0x3             	TRAPPC1	$+2
0003fa   5f73     MOV	0x73, R7             	TRAPPC2	$+1
0003fb   e003     MOVP	#0x03               	PAGESEL	$
0003fc   e100     MOVB	#0x00               	BANKSEL	_Liushui_l
0003fd   0e8c     MOVZ	R0, 0x8c            	MOVZ	R0, _Liushui_l
0003fe   a049     SUB	R0, #0x49            	SUB	R0,# 0x49
                                           	BANKSEL	r0x1026
0003ff   519b     MOV	0x9b, R0             	MOV	r0x1026, R0
000400   98ff     MOV	R0, #0xff            	MOV	R0,# 0xff
                                           	BANKSEL	STK01
000401   51d1     MOV	0xd1, R0             	MOV	STK01, R0
                                           	BANKSEL	r0x1026
000402   0e9b     MOVZ	R0, 0x9b            	MOVZ	R0, r0x1026
                                           	BANKSEL	STK00
000403   51d2     MOV	0xd2, R0             	MOV	STK00, R0
000404   9801     MOV	R0, #0x1             	MOV	R0,# 0x01
000405   9f0e     MOV	R7, #0xe             	TRAPPC1	_SPI_Write_1Byte
000406   5f73     MOV	0x73, R7             	TRAPPC2	_SPI_Write_1Byte
000407   e00e     MOVP	#0x0E               	PAGESEL	_SPI_Write_1Byte
000408   dee1     CALL	#0xee1              	CALL	_SPI_Write_1Byte
000409   9f04     MOV	R7, #0x4             	TRAPPC1	$+2
00040a   5f73     MOV	0x73, R7             	TRAPPC2	$+1
00040b   e004     MOVP	#0x04               	PAGESEL	$
00040c   9800     MOV	R0, #0               	MOV	R0,# 0x00
00040d   e100     MOVB	#0x00               	BANKSEL	STK01
00040e   51d1     MOV	0xd1, R0             	MOV	STK01, R0
00040f   9837     MOV	R0, #0x37            	MOV	R0,# 0x37
                                           	BANKSEL	STK00
000410   51d2     MOV	0xd2, R0             	MOV	STK00, R0
000411   9801     MOV	R0, #0x1             	MOV	R0,# 0x01
000412   9f0e     MOV	R7, #0xe             	TRAPPC1	_SPI_Write_1Byte
000413   5f73     MOV	0x73, R7             	TRAPPC2	_SPI_Write_1Byte
000414   e00e     MOVP	#0x0E               	PAGESEL	_SPI_Write_1Byte
000415   dee1     CALL	#0xee1              	CALL	_SPI_Write_1Byte
000416   9f04     MOV	R7, #0x4             	TRAPPC1	$+2
000417   5f73     MOV	0x73, R7             	TRAPPC2	$+1
000418   e004     MOVP	#0x04               	PAGESEL	$
                                           _00261_DS_
000419   9802     MOV	R0, #0x2             	MOV	R0,# 0x02
00041a   e100     MOVB	#0x00               	BANKSEL	r0x1023
00041b   389c     SUB	R0, 0x9c             	SUB	R0, r0x1023
00041c   7a03     JB	0x3, 2                	JB	PSW, 2
00041d   c420     JMP	#0x420               	JMP	_00303_DS_
00041e   9858     MOV	R0, #0x58            	MOV	R0,# 0x58
                                           	BANKSEL	r0x1024
00041f   389d     SUB	R0, 0x9d             	SUB	R0, r0x1024
                                           _00303_DS_
000420   7003     JNB	0x3, 0               	JNB	PSW, 0
000421   c45c     JMP	#0x45c               	JMP	_00274_DS_
000422   9832     MOV	R0, #0x32            	MOV	R0,# 0x32
                                           	BANKSEL	STK01
000423   51d1     MOV	0xd1, R0             	MOV	STK01, R0
                                           	BANKSEL	r0x1024
000424   0e9d     MOVZ	R0, 0x9d            	MOVZ	R0, r0x1024
                                           	BANKSEL	STK00
000425   51d2     MOV	0xd2, R0             	MOV	STK00, R0
                                           	BANKSEL	r0x1023
000426   0e9c     MOVZ	R0, 0x9c            	MOVZ	R0, r0x1023
000427   9f70     MOV	R7, #0x70            	TRAPPC1	__h16udiv8
000428   5f73     MOV	0x73, R7             	TRAPPC2	__h16udiv8
000429   e070     MOVP	#0x70               	PAGESEL	__h16udiv8
00042a   d046     CALL	#0x46               	CALL	__h16udiv8
00042b   9f04     MOV	R7, #0x4             	TRAPPC1	$+2
00042c   5f73     MOV	0x73, R7             	TRAPPC2	$+1
00042d   e004     MOVP	#0x04               	PAGESEL	$
00042e   e100     MOVB	#0x00               	BANKSEL	r0x1025
00042f   519a     MOV	0x9a, R0             	MOV	r0x1025, R0
                                           	BANKSEL	STK00
000430   0ed2     MOVZ	R0, 0xd2            	MOVZ	R0, STK00
                                           	BANKSEL	r0x1026
000431   519b     MOV	0x9b, R0             	MOV	r0x1026, R0
                                           	BANKSEL	_stop_l
000432   0e8b     MOVZ	R0, 0x8b            	MOVZ	R0, _stop_l
                                           	BANKSEL	r0x1027
000433   5199     MOV	0x99, R0             	MOV	r0x1027, R0
                                           	BANKSEL	r0x1028
000434   0398     CLR	0x98                 	CLR	r0x1028
                                           	BANKSEL	r0x1026
000435   0e9b     MOVZ	R0, 0x9b            	MOVZ	R0, r0x1026
                                           	BANKSEL	r0x1027
000436   1899     XOR	R0, 0x99             	XOR	R0, r0x1027
000437   7a03     JB	0x3, 2                	JB	PSW, 2
000438   c43d     JMP	#0x43d               	JMP	_00304_DS_
                                           	BANKSEL	r0x1025
000439   0e9a     MOVZ	R0, 0x9a            	MOVZ	R0, r0x1025
                                           	BANKSEL	r0x1028
00043a   1898     XOR	R0, 0x98             	XOR	R0, r0x1028
00043b   7203     JNB	0x3, 2               	JNB	PSW, 2
00043c   c4be     JMP	#0x4be               	JMP	_00276_DS_
                                           _00304_DS_
00043d   9832     MOV	R0, #0x32            	MOV	R0,# 0x32
                                           	BANKSEL	STK01
00043e   51d1     MOV	0xd1, R0             	MOV	STK01, R0
                                           	BANKSEL	r0x1024
00043f   0e9d     MOVZ	R0, 0x9d            	MOVZ	R0, r0x1024
                                           	BANKSEL	STK00
000440   51d2     MOV	0xd2, R0             	MOV	STK00, R0
                                           	BANKSEL	r0x1023
000441   0e9c     MOVZ	R0, 0x9c            	MOVZ	R0, r0x1023
000442   9f70     MOV	R7, #0x70            	TRAPPC1	__h16udiv8
000443   5f73     MOV	0x73, R7             	TRAPPC2	__h16udiv8
000444   e070     MOVP	#0x70               	PAGESEL	__h16udiv8
000445   d046     CALL	#0x46               	CALL	__h16udiv8
000446   9f04     MOV	R7, #0x4             	TRAPPC1	$+2
000447   5f73     MOV	0x73, R7             	TRAPPC2	$+1
000448   e004     MOVP	#0x04               	PAGESEL	$
000449   e100     MOVB	#0x00               	BANKSEL	r0x1025
00044a   519a     MOV	0x9a, R0             	MOV	r0x1025, R0
                                           	BANKSEL	STK00
00044b   0ed2     MOVZ	R0, 0xd2            	MOVZ	R0, STK00
                                           	BANKSEL	r0x1026
00044c   519b     MOV	0x9b, R0             	MOV	r0x1026, R0
                                           	BANKSEL	_stop_l
00044d   518b     MOV	0x8b, R0             	MOV	_stop_l, R0
00044e   9800     MOV	R0, #0               	MOV	R0,# 0x00
                                           	BANKSEL	_stop_l
00044f   308b     ORL	R0, 0x8b             	ORL	R0, _stop_l
000450   7a03     JB	0x3, 2                	JB	PSW, 2
000451   c456     JMP	#0x456               	JMP	_00263_DS_
000452   98ff     MOV	R0, #0xff            	MOV	R0,# 0xff
                                           	BANKSEL	_stop_ctl
000453   51b3     MOV	0xb3, R0             	MOV	_stop_ctl, R0
000454   980f     MOV	R0, #0xf             	MOV	R0,# 0x0f
                                           	BANKSEL	_stop_ctl
000455   51b4     MOV	0xb4, R0             	MOV	(_stop_ctl + 1), R0
                                           _00263_DS_
000456   6003     CLR	0x3, 0               	CLR	PSW, 0
                                           	BANKSEL	_stop_ctl
000457   11b4     RRC	0xb4                 	RRC	(_stop_ctl + 1)
                                           	BANKSEL	_stop_ctl
000458   11b3     RRC	0xb3                 	RRC	_stop_ctl
000459   9802     MOV	R0, #0x2             	MOV	R0,# 0x02
                                           	BANKSEL	_mode_stop
00045a   5188     MOV	0x88, R0             	MOV	_mode_stop, R0
00045b   c4be     JMP	#0x4be               	JMP	_00276_DS_
                                           _00274_DS_
00045c   9806     MOV	R0, #0x6             	MOV	R0,# 0x06
                                           	BANKSEL	r0x1023
00045d   389c     SUB	R0, 0x9c             	SUB	R0, r0x1023
00045e   7a03     JB	0x3, 2                	JB	PSW, 2
00045f   c462     JMP	#0x462               	JMP	_00305_DS_
000460   980f     MOV	R0, #0xf             	MOV	R0,# 0x0f
                                           	BANKSEL	r0x1024
000461   389d     SUB	R0, 0x9d             	SUB	R0, r0x1024
                                           _00305_DS_
000462   7803     JB	0x3, 0                	JB	PSW, 0
000463   c4be     JMP	#0x4be               	JMP	_00276_DS_
000464   9808     MOV	R0, #0x8             	MOV	R0,# 0x08
                                           	BANKSEL	r0x1023
000465   389c     SUB	R0, 0x9c             	SUB	R0, r0x1023
000466   7a03     JB	0x3, 2                	JB	PSW, 2
000467   c46a     JMP	#0x46a               	JMP	_00306_DS_
000468   9867     MOV	R0, #0x67            	MOV	R0,# 0x67
                                           	BANKSEL	r0x1024
000469   389d     SUB	R0, 0x9d             	SUB	R0, r0x1024
                                           _00306_DS_
00046a   7003     JNB	0x3, 0               	JNB	PSW, 0
00046b   c4be     JMP	#0x4be               	JMP	_00276_DS_
00046c   98f2     MOV	R0, #0xf2            	MOV	R0,# 0xf2
                                           	BANKSEL	r0x1024
00046d   209d     ADD	R0, 0x9d             	ADD	R0, r0x1024
                                           	BANKSEL	r0x1026
00046e   519b     MOV	0x9b, R0             	MOV	r0x1026, R0
00046f   98f9     MOV	R0, #0xf9            	MOV	R0,# 0xf9
                                           	BANKSEL	r0x1025
000470   519a     MOV	0x9a, R0             	MOV	r0x1025, R0
                                           	BANKSEL	r0x1023
000471   0e9c     MOVZ	R0, 0x9c            	MOVZ	R0, r0x1023
000472   7003     JNB	0x3, 0               	JNB	PSW, 0
000473   ff10     INC	R0                   	INC	R0
000474   7203     JNB	0x3, 2               	JNB	PSW, 2
000475   c477     JMP	#0x477               	JMP	_00528_DS_
                                           	BANKSEL	r0x1025
000476   219a     ADD	0x9a, R0             	ADD	r0x1025, R0
                                           _00528_DS_
000477   9832     MOV	R0, #0x32            	MOV	R0,# 0x32
                                           	BANKSEL	STK01
000478   51d1     MOV	0xd1, R0             	MOV	STK01, R0
                                           	BANKSEL	r0x1026
000479   0e9b     MOVZ	R0, 0x9b            	MOVZ	R0, r0x1026
                                           	BANKSEL	STK00
00047a   51d2     MOV	0xd2, R0             	MOV	STK00, R0
                                           	BANKSEL	r0x1025
00047b   0e9a     MOVZ	R0, 0x9a            	MOVZ	R0, r0x1025
00047c   9f70     MOV	R7, #0x70            	TRAPPC1	__h16udiv8
00047d   5f73     MOV	0x73, R7             	TRAPPC2	__h16udiv8
00047e   e070     MOVP	#0x70               	PAGESEL	__h16udiv8
00047f   d046     CALL	#0x46               	CALL	__h16udiv8
000480   9f04     MOV	R7, #0x4             	TRAPPC1	$+2
000481   5f73     MOV	0x73, R7             	TRAPPC2	$+1
000482   e004     MOVP	#0x04               	PAGESEL	$
000483   e100     MOVB	#0x00               	BANKSEL	r0x1025
000484   519a     MOV	0x9a, R0             	MOV	r0x1025, R0
                                           	BANKSEL	STK00
000485   0ed2     MOVZ	R0, 0xd2            	MOVZ	R0, STK00
                                           	BANKSEL	r0x1026
000486   519b     MOV	0x9b, R0             	MOV	r0x1026, R0
                                           	BANKSEL	_stop_l
000487   0e8b     MOVZ	R0, 0x8b            	MOVZ	R0, _stop_l
                                           	BANKSEL	r0x1027
000488   5199     MOV	0x99, R0             	MOV	r0x1027, R0
                                           	BANKSEL	r0x1028
000489   0398     CLR	0x98                 	CLR	r0x1028
                                           	BANKSEL	r0x1026
00048a   0e9b     MOVZ	R0, 0x9b            	MOVZ	R0, r0x1026
                                           	BANKSEL	r0x1027
00048b   1899     XOR	R0, 0x99             	XOR	R0, r0x1027
00048c   7a03     JB	0x3, 2                	JB	PSW, 2
00048d   c492     JMP	#0x492               	JMP	_00307_DS_
                                           	BANKSEL	r0x1025
00048e   0e9a     MOVZ	R0, 0x9a            	MOVZ	R0, r0x1025
                                           	BANKSEL	r0x1028
00048f   1898     XOR	R0, 0x98             	XOR	R0, r0x1028
000490   7203     JNB	0x3, 2               	JNB	PSW, 2
000491   c4be     JMP	#0x4be               	JMP	_00276_DS_
                                           _00307_DS_
000492   98f2     MOV	R0, #0xf2            	MOV	R0,# 0xf2
                                           	BANKSEL	r0x1024
000493   219d     ADD	0x9d, R0             	ADD	r0x1024, R0
000494   98f9     MOV	R0, #0xf9            	MOV	R0,# 0xf9
000495   7003     JNB	0x3, 0               	JNB	PSW, 0
000496   98fa     MOV	R0, #0xfa            	MOV	R0,# 0xfa
                                           	BANKSEL	r0x1023
000497   219c     ADD	0x9c, R0             	ADD	r0x1023, R0
000498   9832     MOV	R0, #0x32            	MOV	R0,# 0x32
                                           	BANKSEL	STK01
000499   51d1     MOV	0xd1, R0             	MOV	STK01, R0
                                           	BANKSEL	r0x1024
00049a   0e9d     MOVZ	R0, 0x9d            	MOVZ	R0, r0x1024
                                           	BANKSEL	STK00
00049b   51d2     MOV	0xd2, R0             	MOV	STK00, R0
                                           	BANKSEL	r0x1023
00049c   0e9c     MOVZ	R0, 0x9c            	MOVZ	R0, r0x1023
00049d   9f70     MOV	R7, #0x70            	TRAPPC1	__h16udiv8
00049e   5f73     MOV	0x73, R7             	TRAPPC2	__h16udiv8
00049f   e070     MOVP	#0x70               	PAGESEL	__h16udiv8
0004a0   d046     CALL	#0x46               	CALL	__h16udiv8
0004a1   9f04     MOV	R7, #0x4             	TRAPPC1	$+2
0004a2   5f73     MOV	0x73, R7             	TRAPPC2	$+1
0004a3   e004     MOVP	#0x04               	PAGESEL	$
0004a4   e100     MOVB	#0x00               	BANKSEL	r0x1023
0004a5   519c     MOV	0x9c, R0             	MOV	r0x1023, R0
                                           	BANKSEL	STK00
0004a6   0ed2     MOVZ	R0, 0xd2            	MOVZ	R0, STK00
                                           	BANKSEL	r0x1024
0004a7   519d     MOV	0x9d, R0             	MOV	r0x1024, R0
                                           	BANKSEL	_stop_l
0004a8   518b     MOV	0x8b, R0             	MOV	_stop_l, R0
0004a9   9800     MOV	R0, #0               	MOV	R0,# 0x00
                                           	BANKSEL	_stop_l
0004aa   308b     ORL	R0, 0x8b             	ORL	R0, _stop_l
0004ab   7a03     JB	0x3, 2                	JB	PSW, 2
0004ac   c4b4     JMP	#0x4b4               	JMP	_00267_DS_
0004ad   98ff     MOV	R0, #0xff            	MOV	R0,# 0xff
                                           	BANKSEL	_stop_ctl_h
0004ae   51b1     MOV	0xb1, R0             	MOV	_stop_ctl_h, R0
0004af   98ef     MOV	R0, #0xef            	MOV	R0,# 0xef
                                           	BANKSEL	_stop_ctl_h
0004b0   51b2     MOV	0xb2, R0             	MOV	(_stop_ctl_h + 1), R0
                                           	BANKSEL	_stop_ctl
0004b1   03b3     CLR	0xb3                 	CLR	_stop_ctl
0004b2   9810     MOV	R0, #0x10            	MOV	R0,# 0x10
                                           	BANKSEL	_stop_ctl
0004b3   51b4     MOV	0xb4, R0             	MOV	(_stop_ctl + 1), R0
                                           _00267_DS_
0004b4   6003     CLR	0x3, 0               	CLR	PSW, 0
                                           	BANKSEL	_stop_ctl_h
0004b5   11b2     RRC	0xb2                 	RRC	(_stop_ctl_h + 1)
                                           	BANKSEL	_stop_ctl_h
0004b6   11b1     RRC	0xb1                 	RRC	_stop_ctl_h
0004b7   9880     MOV	R0, #0x80            	MOV	R0,# 0x80
                                           	BANKSEL	_stop_ctl_h
0004b8   21b2     ADD	0xb2, R0             	ADD	(_stop_ctl_h + 1), R0
0004b9   6003     CLR	0x3, 0               	CLR	PSW, 0
                                           	BANKSEL	_stop_ctl
0004ba   11b4     RRC	0xb4                 	RRC	(_stop_ctl + 1)
                                           	BANKSEL	_stop_ctl
0004bb   11b3     RRC	0xb3                 	RRC	_stop_ctl
0004bc   9802     MOV	R0, #0x2             	MOV	R0,# 0x02
                                           	BANKSEL	_mode_stop
0004bd   5188     MOV	0x88, R0             	MOV	_mode_stop, R0
                                           _00276_DS_
0004be   0008     CRET                     	CRET	
                                           func._flow_low	.code
                                           _flow_low	;Function start
000b67   e100     MOVB	#0x00               	BANKSEL	r0x1023
000b68   519c     MOV	0x9c, R0             	MOV	r0x1023, R0
                                           	BANKSEL	STK00
000b69   0ed2     MOVZ	R0, 0xd2            	MOVZ	R0, STK00
                                           	BANKSEL	r0x1024
000b6a   519d     MOV	0x9d, R0             	MOV	r0x1024, R0
000b6b   983c     MOV	R0, #0x3c            	MOV	R0,# 0x3c
                                           	BANKSEL	STK01
000b6c   51d1     MOV	0xd1, R0             	MOV	STK01, R0
                                           	BANKSEL	r0x1024
000b6d   0e9d     MOVZ	R0, 0x9d            	MOVZ	R0, r0x1024
                                           	BANKSEL	STK00
000b6e   51d2     MOV	0xd2, R0             	MOV	STK00, R0
                                           	BANKSEL	r0x1023
000b6f   0e9c     MOVZ	R0, 0x9c            	MOVZ	R0, r0x1023
000b70   9f70     MOV	R7, #0x70            	TRAPPC1	__h16udiv8
000b71   5f73     MOV	0x73, R7             	TRAPPC2	__h16udiv8
000b72   e070     MOVP	#0x70               	PAGESEL	__h16udiv8
000b73   d046     CALL	#0x46               	CALL	__h16udiv8
000b74   9f0b     MOV	R7, #0xb             	TRAPPC1	$+2
000b75   5f73     MOV	0x73, R7             	TRAPPC2	$+1
000b76   e00b     MOVP	#0x0B               	PAGESEL	$
000b77   e100     MOVB	#0x00               	BANKSEL	r0x1025
000b78   519a     MOV	0x9a, R0             	MOV	r0x1025, R0
                                           	BANKSEL	STK00
000b79   0ed2     MOVZ	R0, 0xd2            	MOVZ	R0, STK00
                                           	BANKSEL	r0x1026
000b7a   519b     MOV	0x9b, R0             	MOV	r0x1026, R0
                                           	BANKSEL	_Liushui_l
000b7b   0e8c     MOVZ	R0, 0x8c            	MOVZ	R0, _Liushui_l
                                           	BANKSEL	r0x1027
000b7c   5199     MOV	0x99, R0             	MOV	r0x1027, R0
                                           	BANKSEL	r0x1028
000b7d   0398     CLR	0x98                 	CLR	r0x1028
                                           	BANKSEL	r0x1026
000b7e   0e9b     MOVZ	R0, 0x9b            	MOVZ	R0, r0x1026
                                           	BANKSEL	r0x1027
000b7f   1899     XOR	R0, 0x99             	XOR	R0, r0x1027
000b80   7a03     JB	0x3, 2                	JB	PSW, 2
000b81   cb86     JMP	#0xb86               	JMP	_00230_DS_
                                           	BANKSEL	r0x1025
000b82   0e9a     MOVZ	R0, 0x9a            	MOVZ	R0, r0x1025
                                           	BANKSEL	r0x1028
000b83   1898     XOR	R0, 0x98             	XOR	R0, r0x1028
000b84   7203     JNB	0x3, 2               	JNB	PSW, 2
000b85   cbd8     JMP	#0xbd8               	JMP	_00215_DS_
                                           _00230_DS_
000b86   983c     MOV	R0, #0x3c            	MOV	R0,# 0x3c
                                           	BANKSEL	STK01
000b87   51d1     MOV	0xd1, R0             	MOV	STK01, R0
                                           	BANKSEL	r0x1024
000b88   0e9d     MOVZ	R0, 0x9d            	MOVZ	R0, r0x1024
                                           	BANKSEL	STK00
000b89   51d2     MOV	0xd2, R0             	MOV	STK00, R0
                                           	BANKSEL	r0x1023
000b8a   0e9c     MOVZ	R0, 0x9c            	MOVZ	R0, r0x1023
000b8b   9f70     MOV	R7, #0x70            	TRAPPC1	__h16udiv8
000b8c   5f73     MOV	0x73, R7             	TRAPPC2	__h16udiv8
000b8d   e070     MOVP	#0x70               	PAGESEL	__h16udiv8
000b8e   d046     CALL	#0x46               	CALL	__h16udiv8
000b8f   9f0b     MOV	R7, #0xb             	TRAPPC1	$+2
000b90   5f73     MOV	0x73, R7             	TRAPPC2	$+1
000b91   e00b     MOVP	#0x0B               	PAGESEL	$
000b92   e100     MOVB	#0x00               	BANKSEL	r0x1025
000b93   519a     MOV	0x9a, R0             	MOV	r0x1025, R0
                                           	BANKSEL	STK00
000b94   0ed2     MOVZ	R0, 0xd2            	MOVZ	R0, STK00
                                           	BANKSEL	r0x1026
000b95   519b     MOV	0x9b, R0             	MOV	r0x1026, R0
                                           	BANKSEL	_Liushui_l
000b96   518c     MOV	0x8c, R0             	MOV	_Liushui_l, R0
000b97   980a     MOV	R0, #0xa             	MOV	R0,# 0x0a
                                           	BANKSEL	_Liushui_l
000b98   388c     SUB	R0, 0x8c             	SUB	R0, _Liushui_l
000b99   7003     JNB	0x3, 0               	JNB	PSW, 0
000b9a   cbb8     JMP	#0xbb8               	JMP	_00212_DS_
                                           	BANKSEL	_Liushui_l
000b9b   0e8c     MOVZ	R0, 0x8c            	MOVZ	R0, _Liushui_l
000b9c   a028     SUB	R0, #0x28            	SUB	R0,# 0x28
                                           	BANKSEL	r0x1026
000b9d   519b     MOV	0x9b, R0             	MOV	r0x1026, R0
000b9e   9810     MOV	R0, #0x10            	MOV	R0,# 0x10
                                           	BANKSEL	STK01
000b9f   51d1     MOV	0xd1, R0             	MOV	STK01, R0
                                           	BANKSEL	r0x1026
000ba0   0e9b     MOVZ	R0, 0x9b            	MOVZ	R0, r0x1026
                                           	BANKSEL	STK00
000ba1   51d2     MOV	0xd2, R0             	MOV	STK00, R0
000ba2   9802     MOV	R0, #0x2             	MOV	R0,# 0x02
000ba3   9f0e     MOV	R7, #0xe             	TRAPPC1	_SPI_Write_1Byte
000ba4   5f73     MOV	0x73, R7             	TRAPPC2	_SPI_Write_1Byte
000ba5   e00e     MOVP	#0x0E               	PAGESEL	_SPI_Write_1Byte
000ba6   dee1     CALL	#0xee1              	CALL	_SPI_Write_1Byte
000ba7   9f0b     MOV	R7, #0xb             	TRAPPC1	$+2
000ba8   5f73     MOV	0x73, R7             	TRAPPC2	$+1
000ba9   e00b     MOVP	#0x0B               	PAGESEL	$
000baa   9800     MOV	R0, #0               	MOV	R0,# 0x00
000bab   e100     MOVB	#0x00               	BANKSEL	STK01
000bac   51d1     MOV	0xd1, R0             	MOV	STK01, R0
000bad   9837     MOV	R0, #0x37            	MOV	R0,# 0x37
                                           	BANKSEL	STK00
000bae   51d2     MOV	0xd2, R0             	MOV	STK00, R0
000baf   9802     MOV	R0, #0x2             	MOV	R0,# 0x02
000bb0   9f0e     MOV	R7, #0xe             	TRAPPC1	_SPI_Write_1Byte
000bb1   5f73     MOV	0x73, R7             	TRAPPC2	_SPI_Write_1Byte
000bb2   e00e     MOVP	#0x0E               	PAGESEL	_SPI_Write_1Byte
000bb3   dee1     CALL	#0xee1              	CALL	_SPI_Write_1Byte
000bb4   9f0b     MOV	R7, #0xb             	TRAPPC1	$+2
000bb5   5f73     MOV	0x73, R7             	TRAPPC2	$+1
000bb6   e00b     MOVP	#0x0B               	PAGESEL	$
000bb7   cbd8     JMP	#0xbd8               	JMP	_00215_DS_
                                           _00212_DS_
000bb8   9813     MOV	R0, #0x13            	MOV	R0,# 0x13
                                           	BANKSEL	_Liushui_l
000bb9   388c     SUB	R0, 0x8c             	SUB	R0, _Liushui_l
000bba   7003     JNB	0x3, 0               	JNB	PSW, 0
000bbb   cbd8     JMP	#0xbd8               	JMP	_00215_DS_
                                           	BANKSEL	_Liushui_l
000bbc   0e8c     MOVZ	R0, 0x8c            	MOVZ	R0, _Liushui_l
000bbd   a032     SUB	R0, #0x32            	SUB	R0,# 0x32
                                           	BANKSEL	r0x1026
000bbe   519b     MOV	0x9b, R0             	MOV	r0x1026, R0
000bbf   9810     MOV	R0, #0x10            	MOV	R0,# 0x10
                                           	BANKSEL	STK01
000bc0   51d1     MOV	0xd1, R0             	MOV	STK01, R0
                                           	BANKSEL	r0x1026
000bc1   0e9b     MOVZ	R0, 0x9b            	MOVZ	R0, r0x1026
                                           	BANKSEL	STK00
000bc2   51d2     MOV	0xd2, R0             	MOV	STK00, R0
000bc3   9801     MOV	R0, #0x1             	MOV	R0,# 0x01
000bc4   9f0e     MOV	R7, #0xe             	TRAPPC1	_SPI_Write_1Byte
000bc5   5f73     MOV	0x73, R7             	TRAPPC2	_SPI_Write_1Byte
000bc6   e00e     MOVP	#0x0E               	PAGESEL	_SPI_Write_1Byte
000bc7   dee1     CALL	#0xee1              	CALL	_SPI_Write_1Byte
000bc8   9f0b     MOV	R7, #0xb             	TRAPPC1	$+2
000bc9   5f73     MOV	0x73, R7             	TRAPPC2	$+1
000bca   e00b     MOVP	#0x0B               	PAGESEL	$
000bcb   9800     MOV	R0, #0               	MOV	R0,# 0x00
000bcc   e100     MOVB	#0x00               	BANKSEL	STK01
000bcd   51d1     MOV	0xd1, R0             	MOV	STK01, R0
000bce   9837     MOV	R0, #0x37            	MOV	R0,# 0x37
                                           	BANKSEL	STK00
000bcf   51d2     MOV	0xd2, R0             	MOV	STK00, R0
000bd0   9801     MOV	R0, #0x1             	MOV	R0,# 0x01
000bd1   9f0e     MOV	R7, #0xe             	TRAPPC1	_SPI_Write_1Byte
000bd2   5f73     MOV	0x73, R7             	TRAPPC2	_SPI_Write_1Byte
000bd3   e00e     MOVP	#0x0E               	PAGESEL	_SPI_Write_1Byte
000bd4   dee1     CALL	#0xee1              	CALL	_SPI_Write_1Byte
000bd5   9f0b     MOV	R7, #0xb             	TRAPPC1	$+2
000bd6   5f73     MOV	0x73, R7             	TRAPPC2	$+1
000bd7   e00b     MOVP	#0x0B               	PAGESEL	$
                                           _00215_DS_
000bd8   9802     MOV	R0, #0x2             	MOV	R0,# 0x02
000bd9   e100     MOVB	#0x00               	BANKSEL	r0x1023
000bda   389c     SUB	R0, 0x9c             	SUB	R0, r0x1023
000bdb   7a03     JB	0x3, 2                	JB	PSW, 2
000bdc   cbdf     JMP	#0xbdf               	JMP	_00233_DS_
000bdd   9858     MOV	R0, #0x58            	MOV	R0,# 0x58
                                           	BANKSEL	r0x1024
000bde   389d     SUB	R0, 0x9d             	SUB	R0, r0x1024
                                           _00233_DS_
000bdf   7003     JNB	0x3, 0               	JNB	PSW, 0
000be0   cc23     JMP	#0xc23               	JMP	_00222_DS_
000be1   9832     MOV	R0, #0x32            	MOV	R0,# 0x32
                                           	BANKSEL	STK01
000be2   51d1     MOV	0xd1, R0             	MOV	STK01, R0
                                           	BANKSEL	r0x1024
000be3   0e9d     MOVZ	R0, 0x9d            	MOVZ	R0, r0x1024
                                           	BANKSEL	STK00
000be4   51d2     MOV	0xd2, R0             	MOV	STK00, R0
                                           	BANKSEL	r0x1023
000be5   0e9c     MOVZ	R0, 0x9c            	MOVZ	R0, r0x1023
000be6   9f70     MOV	R7, #0x70            	TRAPPC1	__h16udiv8
000be7   5f73     MOV	0x73, R7             	TRAPPC2	__h16udiv8
000be8   e070     MOVP	#0x70               	PAGESEL	__h16udiv8
000be9   d046     CALL	#0x46               	CALL	__h16udiv8
000bea   9f0b     MOV	R7, #0xb             	TRAPPC1	$+2
000beb   5f73     MOV	0x73, R7             	TRAPPC2	$+1
000bec   e00b     MOVP	#0x0B               	PAGESEL	$
000bed   e100     MOVB	#0x00               	BANKSEL	r0x1025
000bee   519a     MOV	0x9a, R0             	MOV	r0x1025, R0
                                           	BANKSEL	STK00
000bef   0ed2     MOVZ	R0, 0xd2            	MOVZ	R0, STK00
                                           	BANKSEL	r0x1026
000bf0   519b     MOV	0x9b, R0             	MOV	r0x1026, R0
                                           	BANKSEL	_stop_l
000bf1   0e8b     MOVZ	R0, 0x8b            	MOVZ	R0, _stop_l
                                           	BANKSEL	r0x1027
000bf2   5199     MOV	0x99, R0             	MOV	r0x1027, R0
                                           	BANKSEL	r0x1028
000bf3   0398     CLR	0x98                 	CLR	r0x1028
                                           	BANKSEL	r0x1026
000bf4   0e9b     MOVZ	R0, 0x9b            	MOVZ	R0, r0x1026
                                           	BANKSEL	r0x1027
000bf5   1899     XOR	R0, 0x99             	XOR	R0, r0x1027
000bf6   7a03     JB	0x3, 2                	JB	PSW, 2
000bf7   cbfc     JMP	#0xbfc               	JMP	_00234_DS_
                                           	BANKSEL	r0x1025
000bf8   0e9a     MOVZ	R0, 0x9a            	MOVZ	R0, r0x1025
                                           	BANKSEL	r0x1028
000bf9   1898     XOR	R0, 0x98             	XOR	R0, r0x1028
000bfa   7203     JNB	0x3, 2               	JNB	PSW, 2
000bfb   cc23     JMP	#0xc23               	JMP	_00222_DS_
                                           _00234_DS_
000bfc   9832     MOV	R0, #0x32            	MOV	R0,# 0x32
                                           	BANKSEL	STK01
000bfd   51d1     MOV	0xd1, R0             	MOV	STK01, R0
                                           	BANKSEL	r0x1024
000bfe   0e9d     MOVZ	R0, 0x9d            	MOVZ	R0, r0x1024
                                           	BANKSEL	STK00
000bff   51d2     MOV	0xd2, R0             	MOV	STK00, R0
                                           	BANKSEL	r0x1023
000c00   0e9c     MOVZ	R0, 0x9c            	MOVZ	R0, r0x1023
000c01   9f70     MOV	R7, #0x70            	TRAPPC1	__h16udiv8
000c02   5f73     MOV	0x73, R7             	TRAPPC2	__h16udiv8
000c03   e070     MOVP	#0x70               	PAGESEL	__h16udiv8
000c04   d046     CALL	#0x46               	CALL	__h16udiv8
000c05   9f0c     MOV	R7, #0xc             	TRAPPC1	$+2
000c06   5f73     MOV	0x73, R7             	TRAPPC2	$+1
000c07   e00c     MOVP	#0x0C               	PAGESEL	$
000c08   e100     MOVB	#0x00               	BANKSEL	r0x1023
000c09   519c     MOV	0x9c, R0             	MOV	r0x1023, R0
                                           	BANKSEL	STK00
000c0a   0ed2     MOVZ	R0, 0xd2            	MOVZ	R0, STK00
                                           	BANKSEL	r0x1024
000c0b   519d     MOV	0x9d, R0             	MOV	r0x1024, R0
                                           	BANKSEL	_stop_l
000c0c   518b     MOV	0x8b, R0             	MOV	_stop_l, R0
000c0d   9800     MOV	R0, #0               	MOV	R0,# 0x00
                                           	BANKSEL	_stop_l
000c0e   308b     ORL	R0, 0x8b             	ORL	R0, _stop_l
000c0f   7a03     JB	0x3, 2                	JB	PSW, 2
000c10   cc17     JMP	#0xc17               	JMP	_00217_DS_
                                           	BANKSEL	_stop_ctl_h
000c11   03b1     CLR	0xb1                 	CLR	_stop_ctl_h
000c12   98f0     MOV	R0, #0xf0            	MOV	R0,# 0xf0
                                           	BANKSEL	_stop_ctl_h
000c13   51b2     MOV	0xb2, R0             	MOV	(_stop_ctl_h + 1), R0
                                           	BANKSEL	_stop_ctl
000c14   03b3     CLR	0xb3                 	CLR	_stop_ctl
000c15   98f0     MOV	R0, #0xf0            	MOV	R0,# 0xf0
                                           	BANKSEL	_stop_ctl
000c16   51b4     MOV	0xb4, R0             	MOV	(_stop_ctl + 1), R0
                                           _00217_DS_
000c17   6003     CLR	0x3, 0               	CLR	PSW, 0
                                           	BANKSEL	_stop_ctl_h
000c18   11b2     RRC	0xb2                 	RRC	(_stop_ctl_h + 1)
                                           	BANKSEL	_stop_ctl_h
000c19   11b1     RRC	0xb1                 	RRC	_stop_ctl_h
000c1a   9880     MOV	R0, #0x80            	MOV	R0,# 0x80
                                           	BANKSEL	_stop_ctl_h
000c1b   21b2     ADD	0xb2, R0             	ADD	(_stop_ctl_h + 1), R0
000c1c   6003     CLR	0x3, 0               	CLR	PSW, 0
                                           	BANKSEL	_stop_ctl
000c1d   11b4     RRC	0xb4                 	RRC	(_stop_ctl + 1)
                                           	BANKSEL	_stop_ctl
000c1e   11b3     RRC	0xb3                 	RRC	_stop_ctl
000c1f   9880     MOV	R0, #0x80            	MOV	R0,# 0x80
                                           	BANKSEL	_stop_ctl
000c20   21b4     ADD	0xb4, R0             	ADD	(_stop_ctl + 1), R0
000c21   9802     MOV	R0, #0x2             	MOV	R0,# 0x02
                                           	BANKSEL	_mode_stop
000c22   5188     MOV	0x88, R0             	MOV	_mode_stop, R0
                                           _00222_DS_
000c23   0008     CRET                     	CRET	
                                           func._paoma_low	.code
                                           _paoma_low	;Function start
0008e1   e100     MOVB	#0x00               	BANKSEL	r0x1023
0008e2   519c     MOV	0x9c, R0             	MOV	r0x1023, R0
                                           	BANKSEL	STK00
0008e3   0ed2     MOVZ	R0, 0xd2            	MOVZ	R0, STK00
                                           	BANKSEL	r0x1024
0008e4   519d     MOV	0x9d, R0             	MOV	r0x1024, R0
0008e5   983c     MOV	R0, #0x3c            	MOV	R0,# 0x3c
                                           	BANKSEL	STK01
0008e6   51d1     MOV	0xd1, R0             	MOV	STK01, R0
                                           	BANKSEL	r0x1024
0008e7   0e9d     MOVZ	R0, 0x9d            	MOVZ	R0, r0x1024
                                           	BANKSEL	STK00
0008e8   51d2     MOV	0xd2, R0             	MOV	STK00, R0
                                           	BANKSEL	r0x1023
0008e9   0e9c     MOVZ	R0, 0x9c            	MOVZ	R0, r0x1023
0008ea   9f70     MOV	R7, #0x70            	TRAPPC1	__h16udiv8
0008eb   5f73     MOV	0x73, R7             	TRAPPC2	__h16udiv8
0008ec   e070     MOVP	#0x70               	PAGESEL	__h16udiv8
0008ed   d046     CALL	#0x46               	CALL	__h16udiv8
0008ee   9f08     MOV	R7, #0x8             	TRAPPC1	$+2
0008ef   5f73     MOV	0x73, R7             	TRAPPC2	$+1
0008f0   e008     MOVP	#0x08               	PAGESEL	$
0008f1   e100     MOVB	#0x00               	BANKSEL	r0x1025
0008f2   519a     MOV	0x9a, R0             	MOV	r0x1025, R0
                                           	BANKSEL	STK00
0008f3   0ed2     MOVZ	R0, 0xd2            	MOVZ	R0, STK00
                                           	BANKSEL	r0x1026
0008f4   519b     MOV	0x9b, R0             	MOV	r0x1026, R0
                                           	BANKSEL	_Liushui_l
0008f5   0e8c     MOVZ	R0, 0x8c            	MOVZ	R0, _Liushui_l
                                           	BANKSEL	r0x1027
0008f6   5199     MOV	0x99, R0             	MOV	r0x1027, R0
                                           	BANKSEL	r0x1028
0008f7   0398     CLR	0x98                 	CLR	r0x1028
                                           	BANKSEL	r0x1026
0008f8   0e9b     MOVZ	R0, 0x9b            	MOVZ	R0, r0x1026
                                           	BANKSEL	r0x1027
0008f9   1899     XOR	R0, 0x99             	XOR	R0, r0x1027
0008fa   7a03     JB	0x3, 2                	JB	PSW, 2
0008fb   c900     JMP	#0x900               	JMP	_00206_DS_
                                           	BANKSEL	r0x1025
0008fc   0e9a     MOVZ	R0, 0x9a            	MOVZ	R0, r0x1025
                                           	BANKSEL	r0x1028
0008fd   1898     XOR	R0, 0x98             	XOR	R0, r0x1028
0008fe   7203     JNB	0x3, 2               	JNB	PSW, 2
0008ff   c9cb     JMP	#0x9cb               	JMP	_00199_DS_
                                           _00206_DS_
000900   983c     MOV	R0, #0x3c            	MOV	R0,# 0x3c
                                           	BANKSEL	STK01
000901   51d1     MOV	0xd1, R0             	MOV	STK01, R0
                                           	BANKSEL	r0x1024
000902   0e9d     MOVZ	R0, 0x9d            	MOVZ	R0, r0x1024
                                           	BANKSEL	STK00
000903   51d2     MOV	0xd2, R0             	MOV	STK00, R0
                                           	BANKSEL	r0x1023
000904   0e9c     MOVZ	R0, 0x9c            	MOVZ	R0, r0x1023
000905   9f70     MOV	R7, #0x70            	TRAPPC1	__h16udiv8
000906   5f73     MOV	0x73, R7             	TRAPPC2	__h16udiv8
000907   e070     MOVP	#0x70               	PAGESEL	__h16udiv8
000908   d046     CALL	#0x46               	CALL	__h16udiv8
000909   9f09     MOV	R7, #0x9             	TRAPPC1	$+2
00090a   5f73     MOV	0x73, R7             	TRAPPC2	$+1
00090b   e009     MOVP	#0x09               	PAGESEL	$
00090c   e100     MOVB	#0x00               	BANKSEL	r0x1023
00090d   519c     MOV	0x9c, R0             	MOV	r0x1023, R0
                                           	BANKSEL	STK00
00090e   0ed2     MOVZ	R0, 0xd2            	MOVZ	R0, STK00
                                           	BANKSEL	r0x1024
00090f   519d     MOV	0x9d, R0             	MOV	r0x1024, R0
                                           	BANKSEL	_Liushui_l
000910   518c     MOV	0x8c, R0             	MOV	_Liushui_l, R0
000911   9800     MOV	R0, #0               	MOV	R0,# 0x00
                                           	BANKSEL	_Liushui_l
000912   308c     ORL	R0, 0x8c             	ORL	R0, _Liushui_l
000913   7a03     JB	0x3, 2                	JB	PSW, 2
000914   c92f     JMP	#0x92f               	JMP	_00195_DS_
000915   9810     MOV	R0, #0x10            	MOV	R0,# 0x10
                                           	BANKSEL	STK01
000916   51d1     MOV	0xd1, R0             	MOV	STK01, R0
000917   9820     MOV	R0, #0x20            	MOV	R0,# 0x20
                                           	BANKSEL	STK00
000918   51d2     MOV	0xd2, R0             	MOV	STK00, R0
000919   9801     MOV	R0, #0x1             	MOV	R0,# 0x01
00091a   9f0e     MOV	R7, #0xe             	TRAPPC1	_SPI_Write_1Byte
00091b   5f73     MOV	0x73, R7             	TRAPPC2	_SPI_Write_1Byte
00091c   e00e     MOVP	#0x0E               	PAGESEL	_SPI_Write_1Byte
00091d   dee1     CALL	#0xee1              	CALL	_SPI_Write_1Byte
00091e   9f09     MOV	R7, #0x9             	TRAPPC1	$+2
00091f   5f73     MOV	0x73, R7             	TRAPPC2	$+1
000920   e009     MOVP	#0x09               	PAGESEL	$
000921   9800     MOV	R0, #0               	MOV	R0,# 0x00
000922   e100     MOVB	#0x00               	BANKSEL	STK01
000923   51d1     MOV	0xd1, R0             	MOV	STK01, R0
000924   9837     MOV	R0, #0x37            	MOV	R0,# 0x37
                                           	BANKSEL	STK00
000925   51d2     MOV	0xd2, R0             	MOV	STK00, R0
000926   9801     MOV	R0, #0x1             	MOV	R0,# 0x01
000927   9f0e     MOV	R7, #0xe             	TRAPPC1	_SPI_Write_1Byte
000928   5f73     MOV	0x73, R7             	TRAPPC2	_SPI_Write_1Byte
000929   e00e     MOVP	#0x0E               	PAGESEL	_SPI_Write_1Byte
00092a   dee1     CALL	#0xee1              	CALL	_SPI_Write_1Byte
00092b   9f09     MOV	R7, #0x9             	TRAPPC1	$+2
00092c   5f73     MOV	0x73, R7             	TRAPPC2	$+1
00092d   e009     MOVP	#0x09               	PAGESEL	$
00092e   c9cb     JMP	#0x9cb               	JMP	_00199_DS_
                                           _00195_DS_
00092f   9809     MOV	R0, #0x9             	MOV	R0,# 0x09
                                           	BANKSEL	_Liushui_l
000930   388c     SUB	R0, 0x8c             	SUB	R0, _Liushui_l
000931   7003     JNB	0x3, 0               	JNB	PSW, 0
000932   c960     JMP	#0x960               	JMP	_00192_DS_
000933   981f     MOV	R0, #0x1f            	MOV	R0,# 0x1f
                                           	BANKSEL	_Liushui_l
000934   208c     ADD	R0, 0x8c             	ADD	R0, _Liushui_l
                                           	BANKSEL	r0x1024
000935   519d     MOV	0x9d, R0             	MOV	r0x1024, R0
000936   98ff     MOV	R0, #0xff            	MOV	R0,# 0xff
                                           	BANKSEL	STK01
000937   51d1     MOV	0xd1, R0             	MOV	STK01, R0
                                           	BANKSEL	r0x1024
000938   0e9d     MOVZ	R0, 0x9d            	MOVZ	R0, r0x1024
                                           	BANKSEL	STK00
000939   51d2     MOV	0xd2, R0             	MOV	STK00, R0
00093a   9801     MOV	R0, #0x1             	MOV	R0,# 0x01
00093b   9f0e     MOV	R7, #0xe             	TRAPPC1	_SPI_Write_1Byte
00093c   5f73     MOV	0x73, R7             	TRAPPC2	_SPI_Write_1Byte
00093d   e00e     MOVP	#0x0E               	PAGESEL	_SPI_Write_1Byte
00093e   dee1     CALL	#0xee1              	CALL	_SPI_Write_1Byte
00093f   9f09     MOV	R7, #0x9             	TRAPPC1	$+2
000940   5f73     MOV	0x73, R7             	TRAPPC2	$+1
000941   e009     MOVP	#0x09               	PAGESEL	$
000942   9820     MOV	R0, #0x20            	MOV	R0,# 0x20
000943   e100     MOVB	#0x00               	BANKSEL	_Liushui_l
000944   208c     ADD	R0, 0x8c             	ADD	R0, _Liushui_l
                                           	BANKSEL	r0x1024
000945   519d     MOV	0x9d, R0             	MOV	r0x1024, R0
000946   9810     MOV	R0, #0x10            	MOV	R0,# 0x10
                                           	BANKSEL	STK01
000947   51d1     MOV	0xd1, R0             	MOV	STK01, R0
                                           	BANKSEL	r0x1024
000948   0e9d     MOVZ	R0, 0x9d            	MOVZ	R0, r0x1024
                                           	BANKSEL	STK00
000949   51d2     MOV	0xd2, R0             	MOV	STK00, R0
00094a   9801     MOV	R0, #0x1             	MOV	R0,# 0x01
00094b   9f0e     MOV	R7, #0xe             	TRAPPC1	_SPI_Write_1Byte
00094c   5f73     MOV	0x73, R7             	TRAPPC2	_SPI_Write_1Byte
00094d   e00e     MOVP	#0x0E               	PAGESEL	_SPI_Write_1Byte
00094e   dee1     CALL	#0xee1              	CALL	_SPI_Write_1Byte
00094f   9f09     MOV	R7, #0x9             	TRAPPC1	$+2
000950   5f73     MOV	0x73, R7             	TRAPPC2	$+1
000951   e009     MOVP	#0x09               	PAGESEL	$
000952   9800     MOV	R0, #0               	MOV	R0,# 0x00
000953   e100     MOVB	#0x00               	BANKSEL	STK01
000954   51d1     MOV	0xd1, R0             	MOV	STK01, R0
000955   9837     MOV	R0, #0x37            	MOV	R0,# 0x37
                                           	BANKSEL	STK00
000956   51d2     MOV	0xd2, R0             	MOV	STK00, R0
000957   9801     MOV	R0, #0x1             	MOV	R0,# 0x01
000958   9f0e     MOV	R7, #0xe             	TRAPPC1	_SPI_Write_1Byte
000959   5f73     MOV	0x73, R7             	TRAPPC2	_SPI_Write_1Byte
00095a   e00e     MOVP	#0x0E               	PAGESEL	_SPI_Write_1Byte
00095b   dee1     CALL	#0xee1              	CALL	_SPI_Write_1Byte
00095c   9f09     MOV	R7, #0x9             	TRAPPC1	$+2
00095d   5f73     MOV	0x73, R7             	TRAPPC2	$+1
00095e   e009     MOVP	#0x09               	PAGESEL	$
00095f   c9cb     JMP	#0x9cb               	JMP	_00199_DS_
                                           _00192_DS_
                                           	BANKSEL	_Liushui_l
000960   0e8c     MOVZ	R0, 0x8c            	MOVZ	R0, _Liushui_l
000961   a809     XOR	R0, #0x9             	XOR	R0,# 0x09
000962   7a03     JB	0x3, 2                	JB	PSW, 2
000963   c99b     JMP	#0x99b               	JMP	_00189_DS_
000964   981f     MOV	R0, #0x1f            	MOV	R0,# 0x1f
                                           	BANKSEL	_Liushui_l
000965   208c     ADD	R0, 0x8c             	ADD	R0, _Liushui_l
                                           	BANKSEL	r0x1024
000966   519d     MOV	0x9d, R0             	MOV	r0x1024, R0
000967   98ff     MOV	R0, #0xff            	MOV	R0,# 0xff
                                           	BANKSEL	STK01
000968   51d1     MOV	0xd1, R0             	MOV	STK01, R0
                                           	BANKSEL	r0x1024
000969   0e9d     MOVZ	R0, 0x9d            	MOVZ	R0, r0x1024
                                           	BANKSEL	STK00
00096a   51d2     MOV	0xd2, R0             	MOV	STK00, R0
00096b   9801     MOV	R0, #0x1             	MOV	R0,# 0x01
00096c   9f0e     MOV	R7, #0xe             	TRAPPC1	_SPI_Write_1Byte
00096d   5f73     MOV	0x73, R7             	TRAPPC2	_SPI_Write_1Byte
00096e   e00e     MOVP	#0x0E               	PAGESEL	_SPI_Write_1Byte
00096f   dee1     CALL	#0xee1              	CALL	_SPI_Write_1Byte
000970   9f09     MOV	R7, #0x9             	TRAPPC1	$+2
000971   5f73     MOV	0x73, R7             	TRAPPC2	$+1
000972   e009     MOVP	#0x09               	PAGESEL	$
000973   9800     MOV	R0, #0               	MOV	R0,# 0x00
000974   e100     MOVB	#0x00               	BANKSEL	STK01
000975   51d1     MOV	0xd1, R0             	MOV	STK01, R0
000976   9837     MOV	R0, #0x37            	MOV	R0,# 0x37
                                           	BANKSEL	STK00
000977   51d2     MOV	0xd2, R0             	MOV	STK00, R0
000978   9801     MOV	R0, #0x1             	MOV	R0,# 0x01
000979   9f0e     MOV	R7, #0xe             	TRAPPC1	_SPI_Write_1Byte
00097a   5f73     MOV	0x73, R7             	TRAPPC2	_SPI_Write_1Byte
00097b   e00e     MOVP	#0x0E               	PAGESEL	_SPI_Write_1Byte
00097c   dee1     CALL	#0xee1              	CALL	_SPI_Write_1Byte
00097d   9f09     MOV	R7, #0x9             	TRAPPC1	$+2
00097e   5f73     MOV	0x73, R7             	TRAPPC2	$+1
00097f   e009     MOVP	#0x09               	PAGESEL	$
000980   9810     MOV	R0, #0x10            	MOV	R0,# 0x10
000981   e100     MOVB	#0x00               	BANKSEL	STK01
000982   51d1     MOV	0xd1, R0             	MOV	STK01, R0
000983   981f     MOV	R0, #0x1f            	MOV	R0,# 0x1f
                                           	BANKSEL	STK00
000984   51d2     MOV	0xd2, R0             	MOV	STK00, R0
000985   9802     MOV	R0, #0x2             	MOV	R0,# 0x02
000986   9f0e     MOV	R7, #0xe             	TRAPPC1	_SPI_Write_1Byte
000987   5f73     MOV	0x73, R7             	TRAPPC2	_SPI_Write_1Byte
000988   e00e     MOVP	#0x0E               	PAGESEL	_SPI_Write_1Byte
000989   dee1     CALL	#0xee1              	CALL	_SPI_Write_1Byte
00098a   9f09     MOV	R7, #0x9             	TRAPPC1	$+2
00098b   5f73     MOV	0x73, R7             	TRAPPC2	$+1
00098c   e009     MOVP	#0x09               	PAGESEL	$
00098d   9800     MOV	R0, #0               	MOV	R0,# 0x00
00098e   e100     MOVB	#0x00               	BANKSEL	STK01
00098f   51d1     MOV	0xd1, R0             	MOV	STK01, R0
000990   9837     MOV	R0, #0x37            	MOV	R0,# 0x37
                                           	BANKSEL	STK00
000991   51d2     MOV	0xd2, R0             	MOV	STK00, R0
000992   9802     MOV	R0, #0x2             	MOV	R0,# 0x02
000993   9f0e     MOV	R7, #0xe             	TRAPPC1	_SPI_Write_1Byte
000994   5f73     MOV	0x73, R7             	TRAPPC2	_SPI_Write_1Byte
000995   e00e     MOVP	#0x0E               	PAGESEL	_SPI_Write_1Byte
000996   dee1     CALL	#0xee1              	CALL	_SPI_Write_1Byte
000997   9f09     MOV	R7, #0x9             	TRAPPC1	$+2
000998   5f73     MOV	0x73, R7             	TRAPPC2	$+1
000999   e009     MOVP	#0x09               	PAGESEL	$
00099a   c9cb     JMP	#0x9cb               	JMP	_00199_DS_
                                           _00189_DS_
00099b   9814     MOV	R0, #0x14            	MOV	R0,# 0x14
                                           	BANKSEL	_Liushui_l
00099c   388c     SUB	R0, 0x8c             	SUB	R0, _Liushui_l
00099d   7003     JNB	0x3, 0               	JNB	PSW, 0
00099e   c9cb     JMP	#0x9cb               	JMP	_00199_DS_
00099f   9815     MOV	R0, #0x15            	MOV	R0,# 0x15
                                           	BANKSEL	_Liushui_l
0009a0   208c     ADD	R0, 0x8c             	ADD	R0, _Liushui_l
                                           	BANKSEL	r0x1024
0009a1   519d     MOV	0x9d, R0             	MOV	r0x1024, R0
0009a2   98ff     MOV	R0, #0xff            	MOV	R0,# 0xff
                                           	BANKSEL	STK01
0009a3   51d1     MOV	0xd1, R0             	MOV	STK01, R0
                                           	BANKSEL	r0x1024
0009a4   0e9d     MOVZ	R0, 0x9d            	MOVZ	R0, r0x1024
                                           	BANKSEL	STK00
0009a5   51d2     MOV	0xd2, R0             	MOV	STK00, R0
0009a6   9802     MOV	R0, #0x2             	MOV	R0,# 0x02
0009a7   9f0e     MOV	R7, #0xe             	TRAPPC1	_SPI_Write_1Byte
0009a8   5f73     MOV	0x73, R7             	TRAPPC2	_SPI_Write_1Byte
0009a9   e00e     MOVP	#0x0E               	PAGESEL	_SPI_Write_1Byte
0009aa   dee1     CALL	#0xee1              	CALL	_SPI_Write_1Byte
0009ab   9f09     MOV	R7, #0x9             	TRAPPC1	$+2
0009ac   5f73     MOV	0x73, R7             	TRAPPC2	$+1
0009ad   e009     MOVP	#0x09               	PAGESEL	$
0009ae   9816     MOV	R0, #0x16            	MOV	R0,# 0x16
0009af   e100     MOVB	#0x00               	BANKSEL	_Liushui_l
0009b0   208c     ADD	R0, 0x8c             	ADD	R0, _Liushui_l
                                           	BANKSEL	r0x1024
0009b1   519d     MOV	0x9d, R0             	MOV	r0x1024, R0
0009b2   9810     MOV	R0, #0x10            	MOV	R0,# 0x10
                                           	BANKSEL	STK01
0009b3   51d1     MOV	0xd1, R0             	MOV	STK01, R0
                                           	BANKSEL	r0x1024
0009b4   0e9d     MOVZ	R0, 0x9d            	MOVZ	R0, r0x1024
                                           	BANKSEL	STK00
0009b5   51d2     MOV	0xd2, R0             	MOV	STK00, R0
0009b6   9802     MOV	R0, #0x2             	MOV	R0,# 0x02
0009b7   9f0e     MOV	R7, #0xe             	TRAPPC1	_SPI_Write_1Byte
0009b8   5f73     MOV	0x73, R7             	TRAPPC2	_SPI_Write_1Byte
0009b9   e00e     MOVP	#0x0E               	PAGESEL	_SPI_Write_1Byte
0009ba   dee1     CALL	#0xee1              	CALL	_SPI_Write_1Byte
0009bb   9f09     MOV	R7, #0x9             	TRAPPC1	$+2
0009bc   5f73     MOV	0x73, R7             	TRAPPC2	$+1
0009bd   e009     MOVP	#0x09               	PAGESEL	$
0009be   9800     MOV	R0, #0               	MOV	R0,# 0x00
0009bf   e100     MOVB	#0x00               	BANKSEL	STK01
0009c0   51d1     MOV	0xd1, R0             	MOV	STK01, R0
0009c1   9837     MOV	R0, #0x37            	MOV	R0,# 0x37
                                           	BANKSEL	STK00
0009c2   51d2     MOV	0xd2, R0             	MOV	STK00, R0
0009c3   9802     MOV	R0, #0x2             	MOV	R0,# 0x02
0009c4   9f0e     MOV	R7, #0xe             	TRAPPC1	_SPI_Write_1Byte
0009c5   5f73     MOV	0x73, R7             	TRAPPC2	_SPI_Write_1Byte
0009c6   e00e     MOVP	#0x0E               	PAGESEL	_SPI_Write_1Byte
0009c7   dee1     CALL	#0xee1              	CALL	_SPI_Write_1Byte
0009c8   9f09     MOV	R7, #0x9             	TRAPPC1	$+2
0009c9   5f73     MOV	0x73, R7             	TRAPPC2	$+1
0009ca   e009     MOVP	#0x09               	PAGESEL	$
                                           _00199_DS_
0009cb   0008     CRET                     	CRET	
                                           func._Liushui_stop_high	.code
                                           _Liushui_stop_high	;Function start
000ea1   e100     MOVB	#0x00               	BANKSEL	r0x101B
000ea2   51a2     MOV	0xa2, R0             	MOV	r0x101B, R0
                                           	BANKSEL	STK00
000ea3   0ed2     MOVZ	R0, 0xd2            	MOVZ	R0, STK00
                                           	BANKSEL	r0x101C
000ea4   51a3     MOV	0xa3, R0             	MOV	r0x101C, R0
000ea5   9832     MOV	R0, #0x32            	MOV	R0,# 0x32
                                           	BANKSEL	STK01
000ea6   51d1     MOV	0xd1, R0             	MOV	STK01, R0
                                           	BANKSEL	r0x101C
000ea7   0ea3     MOVZ	R0, 0xa3            	MOVZ	R0, r0x101C
                                           	BANKSEL	STK00
000ea8   51d2     MOV	0xd2, R0             	MOV	STK00, R0
                                           	BANKSEL	r0x101B
000ea9   0ea2     MOVZ	R0, 0xa2            	MOVZ	R0, r0x101B
000eaa   9f70     MOV	R7, #0x70            	TRAPPC1	__h16udiv8
000eab   5f73     MOV	0x73, R7             	TRAPPC2	__h16udiv8
000eac   e070     MOVP	#0x70               	PAGESEL	__h16udiv8
000ead   d046     CALL	#0x46               	CALL	__h16udiv8
000eae   9f0e     MOV	R7, #0xe             	TRAPPC1	$+2
000eaf   5f73     MOV	0x73, R7             	TRAPPC2	$+1
000eb0   e00e     MOVP	#0x0E               	PAGESEL	$
000eb1   e100     MOVB	#0x00               	BANKSEL	r0x101D
000eb2   51a0     MOV	0xa0, R0             	MOV	r0x101D, R0
                                           	BANKSEL	STK00
000eb3   0ed2     MOVZ	R0, 0xd2            	MOVZ	R0, STK00
                                           	BANKSEL	r0x101E
000eb4   51a1     MOV	0xa1, R0             	MOV	r0x101E, R0
                                           	BANKSEL	_stop_l
000eb5   0e8b     MOVZ	R0, 0x8b            	MOVZ	R0, _stop_l
                                           	BANKSEL	r0x101F
000eb6   519f     MOV	0x9f, R0             	MOV	r0x101F, R0
                                           	BANKSEL	r0x1020
000eb7   039e     CLR	0x9e                 	CLR	r0x1020
                                           	BANKSEL	r0x101E
000eb8   0ea1     MOVZ	R0, 0xa1            	MOVZ	R0, r0x101E
                                           	BANKSEL	r0x101F
000eb9   189f     XOR	R0, 0x9f             	XOR	R0, r0x101F
000eba   7a03     JB	0x3, 2                	JB	PSW, 2
000ebb   cec0     JMP	#0xec0               	JMP	_00185_DS_
                                           	BANKSEL	r0x101D
000ebc   0ea0     MOVZ	R0, 0xa0            	MOVZ	R0, r0x101D
                                           	BANKSEL	r0x1020
000ebd   189e     XOR	R0, 0x9e             	XOR	R0, r0x1020
000ebe   7203     JNB	0x3, 2               	JNB	PSW, 2
000ebf   cee0     JMP	#0xee0               	JMP	_00181_DS_
                                           _00185_DS_
000ec0   9832     MOV	R0, #0x32            	MOV	R0,# 0x32
                                           	BANKSEL	STK01
000ec1   51d1     MOV	0xd1, R0             	MOV	STK01, R0
                                           	BANKSEL	r0x101C
000ec2   0ea3     MOVZ	R0, 0xa3            	MOVZ	R0, r0x101C
                                           	BANKSEL	STK00
000ec3   51d2     MOV	0xd2, R0             	MOV	STK00, R0
                                           	BANKSEL	r0x101B
000ec4   0ea2     MOVZ	R0, 0xa2            	MOVZ	R0, r0x101B
000ec5   9f70     MOV	R7, #0x70            	TRAPPC1	__h16udiv8
000ec6   5f73     MOV	0x73, R7             	TRAPPC2	__h16udiv8
000ec7   e070     MOVP	#0x70               	PAGESEL	__h16udiv8
000ec8   d046     CALL	#0x46               	CALL	__h16udiv8
000ec9   9f0e     MOV	R7, #0xe             	TRAPPC1	$+2
000eca   5f73     MOV	0x73, R7             	TRAPPC2	$+1
000ecb   e00e     MOVP	#0x0E               	PAGESEL	$
000ecc   e100     MOVB	#0x00               	BANKSEL	r0x101B
000ecd   51a2     MOV	0xa2, R0             	MOV	r0x101B, R0
                                           	BANKSEL	STK00
000ece   0ed2     MOVZ	R0, 0xd2            	MOVZ	R0, STK00
                                           	BANKSEL	r0x101C
000ecf   51a3     MOV	0xa3, R0             	MOV	r0x101C, R0
                                           	BANKSEL	_stop_l
000ed0   518b     MOV	0x8b, R0             	MOV	_stop_l, R0
000ed1   9800     MOV	R0, #0               	MOV	R0,# 0x00
                                           	BANKSEL	_stop_l
000ed2   308b     ORL	R0, 0x8b             	ORL	R0, _stop_l
000ed3   7a03     JB	0x3, 2                	JB	PSW, 2
000ed4   ced9     JMP	#0xed9               	JMP	_00178_DS_
000ed5   98ff     MOV	R0, #0xff            	MOV	R0,# 0xff
                                           	BANKSEL	_stop_ctl_h
000ed6   51b1     MOV	0xb1, R0             	MOV	_stop_ctl_h, R0
000ed7   98ef     MOV	R0, #0xef            	MOV	R0,# 0xef
                                           	BANKSEL	_stop_ctl_h
000ed8   51b2     MOV	0xb2, R0             	MOV	(_stop_ctl_h + 1), R0
                                           _00178_DS_
000ed9   6003     CLR	0x3, 0               	CLR	PSW, 0
                                           	BANKSEL	_stop_ctl_h
000eda   11b2     RRC	0xb2                 	RRC	(_stop_ctl_h + 1)
                                           	BANKSEL	_stop_ctl_h
000edb   11b1     RRC	0xb1                 	RRC	_stop_ctl_h
000edc   9880     MOV	R0, #0x80            	MOV	R0,# 0x80
                                           	BANKSEL	_stop_ctl_h
000edd   21b2     ADD	0xb2, R0             	ADD	(_stop_ctl_h + 1), R0
000ede   9802     MOV	R0, #0x2             	MOV	R0,# 0x02
                                           	BANKSEL	_mode_stop
000edf   5188     MOV	0x88, R0             	MOV	_mode_stop, R0
                                           _00181_DS_
000ee0   0008     CRET                     	CRET	
                                           func._ALL_high	.code
                                           _ALL_high	;Function start
000aa2   e100     MOVB	#0x00               	BANKSEL	r0x101B
000aa3   51a2     MOV	0xa2, R0             	MOV	r0x101B, R0
                                           	BANKSEL	STK00
000aa4   0ed2     MOVZ	R0, 0xd2            	MOVZ	R0, STK00
                                           	BANKSEL	r0x101C
000aa5   51a3     MOV	0xa3, R0             	MOV	r0x101C, R0
000aa6   983c     MOV	R0, #0x3c            	MOV	R0,# 0x3c
                                           	BANKSEL	STK01
000aa7   51d1     MOV	0xd1, R0             	MOV	STK01, R0
                                           	BANKSEL	r0x101C
000aa8   0ea3     MOVZ	R0, 0xa3            	MOVZ	R0, r0x101C
                                           	BANKSEL	STK00
000aa9   51d2     MOV	0xd2, R0             	MOV	STK00, R0
                                           	BANKSEL	r0x101B
000aaa   0ea2     MOVZ	R0, 0xa2            	MOVZ	R0, r0x101B
000aab   9f70     MOV	R7, #0x70            	TRAPPC1	__h16udiv8
000aac   5f73     MOV	0x73, R7             	TRAPPC2	__h16udiv8
000aad   e070     MOVP	#0x70               	PAGESEL	__h16udiv8
000aae   d046     CALL	#0x46               	CALL	__h16udiv8
000aaf   9f0a     MOV	R7, #0xa             	TRAPPC1	$+2
000ab0   5f73     MOV	0x73, R7             	TRAPPC2	$+1
000ab1   e00a     MOVP	#0x0A               	PAGESEL	$
000ab2   e100     MOVB	#0x00               	BANKSEL	r0x101D
000ab3   51a0     MOV	0xa0, R0             	MOV	r0x101D, R0
                                           	BANKSEL	STK00
000ab4   0ed2     MOVZ	R0, 0xd2            	MOVZ	R0, STK00
                                           	BANKSEL	r0x101E
000ab5   51a1     MOV	0xa1, R0             	MOV	r0x101E, R0
                                           	BANKSEL	_Liushui_l
000ab6   0e8c     MOVZ	R0, 0x8c            	MOVZ	R0, _Liushui_l
                                           	BANKSEL	r0x101F
000ab7   519f     MOV	0x9f, R0             	MOV	r0x101F, R0
                                           	BANKSEL	r0x1020
000ab8   039e     CLR	0x9e                 	CLR	r0x1020
                                           	BANKSEL	r0x101E
000ab9   0ea1     MOVZ	R0, 0xa1            	MOVZ	R0, r0x101E
                                           	BANKSEL	r0x101F
000aba   189f     XOR	R0, 0x9f             	XOR	R0, r0x101F
000abb   7a03     JB	0x3, 2                	JB	PSW, 2
000abc   cac1     JMP	#0xac1               	JMP	_00172_DS_
                                           	BANKSEL	r0x101D
000abd   0ea0     MOVZ	R0, 0xa0            	MOVZ	R0, r0x101D
                                           	BANKSEL	r0x1020
000abe   189e     XOR	R0, 0x9e             	XOR	R0, r0x1020
000abf   7203     JNB	0x3, 2               	JNB	PSW, 2
000ac0   cb13     JMP	#0xb13               	JMP	_00157_DS_
                                           _00172_DS_
000ac1   983c     MOV	R0, #0x3c            	MOV	R0,# 0x3c
                                           	BANKSEL	STK01
000ac2   51d1     MOV	0xd1, R0             	MOV	STK01, R0
                                           	BANKSEL	r0x101C
000ac3   0ea3     MOVZ	R0, 0xa3            	MOVZ	R0, r0x101C
                                           	BANKSEL	STK00
000ac4   51d2     MOV	0xd2, R0             	MOV	STK00, R0
                                           	BANKSEL	r0x101B
000ac5   0ea2     MOVZ	R0, 0xa2            	MOVZ	R0, r0x101B
000ac6   9f70     MOV	R7, #0x70            	TRAPPC1	__h16udiv8
000ac7   5f73     MOV	0x73, R7             	TRAPPC2	__h16udiv8
000ac8   e070     MOVP	#0x70               	PAGESEL	__h16udiv8
000ac9   d046     CALL	#0x46               	CALL	__h16udiv8
000aca   9f0a     MOV	R7, #0xa             	TRAPPC1	$+2
000acb   5f73     MOV	0x73, R7             	TRAPPC2	$+1
000acc   e00a     MOVP	#0x0A               	PAGESEL	$
000acd   e100     MOVB	#0x00               	BANKSEL	r0x101D
000ace   51a0     MOV	0xa0, R0             	MOV	r0x101D, R0
                                           	BANKSEL	STK00
000acf   0ed2     MOVZ	R0, 0xd2            	MOVZ	R0, STK00
                                           	BANKSEL	r0x101E
000ad0   51a1     MOV	0xa1, R0             	MOV	r0x101E, R0
                                           	BANKSEL	_Liushui_l
000ad1   518c     MOV	0x8c, R0             	MOV	_Liushui_l, R0
000ad2   980a     MOV	R0, #0xa             	MOV	R0,# 0x0a
                                           	BANKSEL	_Liushui_l
000ad3   388c     SUB	R0, 0x8c             	SUB	R0, _Liushui_l
000ad4   7003     JNB	0x3, 0               	JNB	PSW, 0
000ad5   caf3     JMP	#0xaf3               	JMP	_00154_DS_
000ad6   981f     MOV	R0, #0x1f            	MOV	R0,# 0x1f
                                           	BANKSEL	_Liushui_l
000ad7   208c     ADD	R0, 0x8c             	ADD	R0, _Liushui_l
                                           	BANKSEL	r0x101E
000ad8   51a1     MOV	0xa1, R0             	MOV	r0x101E, R0
000ad9   98ff     MOV	R0, #0xff            	MOV	R0,# 0xff
                                           	BANKSEL	STK01
000ada   51d1     MOV	0xd1, R0             	MOV	STK01, R0
                                           	BANKSEL	r0x101E
000adb   0ea1     MOVZ	R0, 0xa1            	MOVZ	R0, r0x101E
                                           	BANKSEL	STK00
000adc   51d2     MOV	0xd2, R0             	MOV	STK00, R0
000add   9801     MOV	R0, #0x1             	MOV	R0,# 0x01
000ade   9f0e     MOV	R7, #0xe             	TRAPPC1	_SPI_Write_1Byte
000adf   5f73     MOV	0x73, R7             	TRAPPC2	_SPI_Write_1Byte
000ae0   e00e     MOVP	#0x0E               	PAGESEL	_SPI_Write_1Byte
000ae1   dee1     CALL	#0xee1              	CALL	_SPI_Write_1Byte
000ae2   9f0a     MOV	R7, #0xa             	TRAPPC1	$+2
000ae3   5f73     MOV	0x73, R7             	TRAPPC2	$+1
000ae4   e00a     MOVP	#0x0A               	PAGESEL	$
000ae5   9800     MOV	R0, #0               	MOV	R0,# 0x00
000ae6   e100     MOVB	#0x00               	BANKSEL	STK01
000ae7   51d1     MOV	0xd1, R0             	MOV	STK01, R0
000ae8   9837     MOV	R0, #0x37            	MOV	R0,# 0x37
                                           	BANKSEL	STK00
000ae9   51d2     MOV	0xd2, R0             	MOV	STK00, R0
000aea   9801     MOV	R0, #0x1             	MOV	R0,# 0x01
000aeb   9f0e     MOV	R7, #0xe             	TRAPPC1	_SPI_Write_1Byte
000aec   5f73     MOV	0x73, R7             	TRAPPC2	_SPI_Write_1Byte
000aed   e00e     MOVP	#0x0E               	PAGESEL	_SPI_Write_1Byte
000aee   dee1     CALL	#0xee1              	CALL	_SPI_Write_1Byte
000aef   9f0a     MOV	R7, #0xa             	TRAPPC1	$+2
000af0   5f73     MOV	0x73, R7             	TRAPPC2	$+1
000af1   e00a     MOVP	#0x0A               	PAGESEL	$
000af2   cb13     JMP	#0xb13               	JMP	_00157_DS_
                                           _00154_DS_
000af3   9814     MOV	R0, #0x14            	MOV	R0,# 0x14
                                           	BANKSEL	_Liushui_l
000af4   388c     SUB	R0, 0x8c             	SUB	R0, _Liushui_l
000af5   7003     JNB	0x3, 0               	JNB	PSW, 0
000af6   cb13     JMP	#0xb13               	JMP	_00157_DS_
000af7   9815     MOV	R0, #0x15            	MOV	R0,# 0x15
                                           	BANKSEL	_Liushui_l
000af8   208c     ADD	R0, 0x8c             	ADD	R0, _Liushui_l
                                           	BANKSEL	r0x101E
000af9   51a1     MOV	0xa1, R0             	MOV	r0x101E, R0
000afa   98ff     MOV	R0, #0xff            	MOV	R0,# 0xff
                                           	BANKSEL	STK01
000afb   51d1     MOV	0xd1, R0             	MOV	STK01, R0
                                           	BANKSEL	r0x101E
000afc   0ea1     MOVZ	R0, 0xa1            	MOVZ	R0, r0x101E
                                           	BANKSEL	STK00
000afd   51d2     MOV	0xd2, R0             	MOV	STK00, R0
000afe   9802     MOV	R0, #0x2             	MOV	R0,# 0x02
000aff   9f0e     MOV	R7, #0xe             	TRAPPC1	_SPI_Write_1Byte
000b00   5f73     MOV	0x73, R7             	TRAPPC2	_SPI_Write_1Byte
000b01   e00e     MOVP	#0x0E               	PAGESEL	_SPI_Write_1Byte
000b02   dee1     CALL	#0xee1              	CALL	_SPI_Write_1Byte
000b03   9f0b     MOV	R7, #0xb             	TRAPPC1	$+2
000b04   5f73     MOV	0x73, R7             	TRAPPC2	$+1
000b05   e00b     MOVP	#0x0B               	PAGESEL	$
000b06   9800     MOV	R0, #0               	MOV	R0,# 0x00
000b07   e100     MOVB	#0x00               	BANKSEL	STK01
000b08   51d1     MOV	0xd1, R0             	MOV	STK01, R0
000b09   9837     MOV	R0, #0x37            	MOV	R0,# 0x37
                                           	BANKSEL	STK00
000b0a   51d2     MOV	0xd2, R0             	MOV	STK00, R0
000b0b   9802     MOV	R0, #0x2             	MOV	R0,# 0x02
000b0c   9f0e     MOV	R7, #0xe             	TRAPPC1	_SPI_Write_1Byte
000b0d   5f73     MOV	0x73, R7             	TRAPPC2	_SPI_Write_1Byte
000b0e   e00e     MOVP	#0x0E               	PAGESEL	_SPI_Write_1Byte
000b0f   dee1     CALL	#0xee1              	CALL	_SPI_Write_1Byte
000b10   9f0b     MOV	R7, #0xb             	TRAPPC1	$+2
000b11   5f73     MOV	0x73, R7             	TRAPPC2	$+1
000b12   e00b     MOVP	#0x0B               	PAGESEL	$
                                           _00157_DS_
000b13   9802     MOV	R0, #0x2             	MOV	R0,# 0x02
000b14   e100     MOVB	#0x00               	BANKSEL	r0x101B
000b15   38a2     SUB	R0, 0xa2             	SUB	R0, r0x101B
000b16   7a03     JB	0x3, 2                	JB	PSW, 2
000b17   cb1a     JMP	#0xb1a               	JMP	_00175_DS_
000b18   9859     MOV	R0, #0x59            	MOV	R0,# 0x59
                                           	BANKSEL	r0x101C
000b19   38a3     SUB	R0, 0xa3             	SUB	R0, r0x101C
                                           _00175_DS_
000b1a   7803     JB	0x3, 0                	JB	PSW, 0
000b1b   cb66     JMP	#0xb66               	JMP	_00164_DS_
000b1c   98a8     MOV	R0, #0xa8            	MOV	R0,# 0xa8
                                           	BANKSEL	r0x101C
000b1d   20a3     ADD	R0, 0xa3             	ADD	R0, r0x101C
                                           	BANKSEL	r0x101E
000b1e   51a1     MOV	0xa1, R0             	MOV	r0x101E, R0
000b1f   98fd     MOV	R0, #0xfd            	MOV	R0,# 0xfd
                                           	BANKSEL	r0x101D
000b20   51a0     MOV	0xa0, R0             	MOV	r0x101D, R0
                                           	BANKSEL	r0x101B
000b21   0ea2     MOVZ	R0, 0xa2            	MOVZ	R0, r0x101B
000b22   7003     JNB	0x3, 0               	JNB	PSW, 0
000b23   ff10     INC	R0                   	INC	R0
000b24   7203     JNB	0x3, 2               	JNB	PSW, 2
000b25   cb27     JMP	#0xb27               	JMP	_00529_DS_
                                           	BANKSEL	r0x101D
000b26   21a0     ADD	0xa0, R0             	ADD	r0x101D, R0
                                           _00529_DS_
000b27   9832     MOV	R0, #0x32            	MOV	R0,# 0x32
                                           	BANKSEL	STK01
000b28   51d1     MOV	0xd1, R0             	MOV	STK01, R0
                                           	BANKSEL	r0x101E
000b29   0ea1     MOVZ	R0, 0xa1            	MOVZ	R0, r0x101E
                                           	BANKSEL	STK00
000b2a   51d2     MOV	0xd2, R0             	MOV	STK00, R0
                                           	BANKSEL	r0x101D
000b2b   0ea0     MOVZ	R0, 0xa0            	MOVZ	R0, r0x101D
000b2c   9f70     MOV	R7, #0x70            	TRAPPC1	__h16udiv8
000b2d   5f73     MOV	0x73, R7             	TRAPPC2	__h16udiv8
000b2e   e070     MOVP	#0x70               	PAGESEL	__h16udiv8
000b2f   d046     CALL	#0x46               	CALL	__h16udiv8
000b30   9f0b     MOV	R7, #0xb             	TRAPPC1	$+2
000b31   5f73     MOV	0x73, R7             	TRAPPC2	$+1
000b32   e00b     MOVP	#0x0B               	PAGESEL	$
000b33   e100     MOVB	#0x00               	BANKSEL	r0x101D
000b34   51a0     MOV	0xa0, R0             	MOV	r0x101D, R0
                                           	BANKSEL	STK00
000b35   0ed2     MOVZ	R0, 0xd2            	MOVZ	R0, STK00
                                           	BANKSEL	r0x101E
000b36   51a1     MOV	0xa1, R0             	MOV	r0x101E, R0
                                           	BANKSEL	_stop_l
000b37   0e8b     MOVZ	R0, 0x8b            	MOVZ	R0, _stop_l
                                           	BANKSEL	r0x101F
000b38   519f     MOV	0x9f, R0             	MOV	r0x101F, R0
                                           	BANKSEL	r0x1020
000b39   039e     CLR	0x9e                 	CLR	r0x1020
                                           	BANKSEL	r0x101E
000b3a   0ea1     MOVZ	R0, 0xa1            	MOVZ	R0, r0x101E
                                           	BANKSEL	r0x101F
000b3b   189f     XOR	R0, 0x9f             	XOR	R0, r0x101F
000b3c   7a03     JB	0x3, 2                	JB	PSW, 2
000b3d   cb42     JMP	#0xb42               	JMP	_00176_DS_
                                           	BANKSEL	r0x101D
000b3e   0ea0     MOVZ	R0, 0xa0            	MOVZ	R0, r0x101D
                                           	BANKSEL	r0x1020
000b3f   189e     XOR	R0, 0x9e             	XOR	R0, r0x1020
000b40   7203     JNB	0x3, 2               	JNB	PSW, 2
000b41   cb66     JMP	#0xb66               	JMP	_00164_DS_
                                           _00176_DS_
000b42   98a8     MOV	R0, #0xa8            	MOV	R0,# 0xa8
                                           	BANKSEL	r0x101C
000b43   21a3     ADD	0xa3, R0             	ADD	r0x101C, R0
000b44   98fd     MOV	R0, #0xfd            	MOV	R0,# 0xfd
000b45   7003     JNB	0x3, 0               	JNB	PSW, 0
000b46   98fe     MOV	R0, #0xfe            	MOV	R0,# 0xfe
                                           	BANKSEL	r0x101B
000b47   21a2     ADD	0xa2, R0             	ADD	r0x101B, R0
000b48   9832     MOV	R0, #0x32            	MOV	R0,# 0x32
                                           	BANKSEL	STK01
000b49   51d1     MOV	0xd1, R0             	MOV	STK01, R0
                                           	BANKSEL	r0x101C
000b4a   0ea3     MOVZ	R0, 0xa3            	MOVZ	R0, r0x101C
                                           	BANKSEL	STK00
000b4b   51d2     MOV	0xd2, R0             	MOV	STK00, R0
                                           	BANKSEL	r0x101B
000b4c   0ea2     MOVZ	R0, 0xa2            	MOVZ	R0, r0x101B
000b4d   9f70     MOV	R7, #0x70            	TRAPPC1	__h16udiv8
000b4e   5f73     MOV	0x73, R7             	TRAPPC2	__h16udiv8
000b4f   e070     MOVP	#0x70               	PAGESEL	__h16udiv8
000b50   d046     CALL	#0x46               	CALL	__h16udiv8
000b51   9f0b     MOV	R7, #0xb             	TRAPPC1	$+2
000b52   5f73     MOV	0x73, R7             	TRAPPC2	$+1
000b53   e00b     MOVP	#0x0B               	PAGESEL	$
000b54   e100     MOVB	#0x00               	BANKSEL	r0x101B
000b55   51a2     MOV	0xa2, R0             	MOV	r0x101B, R0
                                           	BANKSEL	STK00
000b56   0ed2     MOVZ	R0, 0xd2            	MOVZ	R0, STK00
                                           	BANKSEL	r0x101C
000b57   51a3     MOV	0xa3, R0             	MOV	r0x101C, R0
                                           	BANKSEL	_stop_l
000b58   518b     MOV	0x8b, R0             	MOV	_stop_l, R0
000b59   9800     MOV	R0, #0               	MOV	R0,# 0x00
                                           	BANKSEL	_stop_l
000b5a   308b     ORL	R0, 0x8b             	ORL	R0, _stop_l
000b5b   7a03     JB	0x3, 2                	JB	PSW, 2
000b5c   cb61     JMP	#0xb61               	JMP	_00159_DS_
000b5d   98ff     MOV	R0, #0xff            	MOV	R0,# 0xff
                                           	BANKSEL	_stop_ctl_h
000b5e   51b1     MOV	0xb1, R0             	MOV	_stop_ctl_h, R0
000b5f   98ef     MOV	R0, #0xef            	MOV	R0,# 0xef
                                           	BANKSEL	_stop_ctl_h
000b60   51b2     MOV	0xb2, R0             	MOV	(_stop_ctl_h + 1), R0
                                           _00159_DS_
000b61   6003     CLR	0x3, 0               	CLR	PSW, 0
                                           	BANKSEL	_stop_ctl_h
000b62   13b1     RLC	0xb1                 	RLC	_stop_ctl_h
                                           	BANKSEL	_stop_ctl_h
000b63   13b2     RLC	0xb2                 	RLC	(_stop_ctl_h + 1)
000b64   9802     MOV	R0, #0x2             	MOV	R0,# 0x02
                                           	BANKSEL	_mode_stop
000b65   5188     MOV	0x88, R0             	MOV	_mode_stop, R0
                                           _00164_DS_
000b66   0008     CRET                     	CRET	
                                           func._Liushui_high	.code
                                           _Liushui_high	;Function start
0004bf   e100     MOVB	#0x00               	BANKSEL	r0x101B
0004c0   51a2     MOV	0xa2, R0             	MOV	r0x101B, R0
                                           	BANKSEL	STK00
0004c1   0ed2     MOVZ	R0, 0xd2            	MOVZ	R0, STK00
                                           	BANKSEL	r0x101C
0004c2   51a3     MOV	0xa3, R0             	MOV	r0x101C, R0
0004c3   983c     MOV	R0, #0x3c            	MOV	R0,# 0x3c
                                           	BANKSEL	STK01
0004c4   51d1     MOV	0xd1, R0             	MOV	STK01, R0
                                           	BANKSEL	r0x101C
0004c5   0ea3     MOVZ	R0, 0xa3            	MOVZ	R0, r0x101C
                                           	BANKSEL	STK00
0004c6   51d2     MOV	0xd2, R0             	MOV	STK00, R0
                                           	BANKSEL	r0x101B
0004c7   0ea2     MOVZ	R0, 0xa2            	MOVZ	R0, r0x101B
0004c8   9f70     MOV	R7, #0x70            	TRAPPC1	__h16udiv8
0004c9   5f73     MOV	0x73, R7             	TRAPPC2	__h16udiv8
0004ca   e070     MOVP	#0x70               	PAGESEL	__h16udiv8
0004cb   d046     CALL	#0x46               	CALL	__h16udiv8
0004cc   9f04     MOV	R7, #0x4             	TRAPPC1	$+2
0004cd   5f73     MOV	0x73, R7             	TRAPPC2	$+1
0004ce   e004     MOVP	#0x04               	PAGESEL	$
0004cf   e100     MOVB	#0x00               	BANKSEL	r0x101D
0004d0   51a0     MOV	0xa0, R0             	MOV	r0x101D, R0
                                           	BANKSEL	STK00
0004d1   0ed2     MOVZ	R0, 0xd2            	MOVZ	R0, STK00
                                           	BANKSEL	r0x101E
0004d2   51a1     MOV	0xa1, R0             	MOV	r0x101E, R0
                                           	BANKSEL	_Liushui_l
0004d3   0e8c     MOVZ	R0, 0x8c            	MOVZ	R0, _Liushui_l
                                           	BANKSEL	r0x101F
0004d4   519f     MOV	0x9f, R0             	MOV	r0x101F, R0
                                           	BANKSEL	r0x1020
0004d5   039e     CLR	0x9e                 	CLR	r0x1020
                                           	BANKSEL	r0x101E
0004d6   0ea1     MOVZ	R0, 0xa1            	MOVZ	R0, r0x101E
                                           	BANKSEL	r0x101F
0004d7   189f     XOR	R0, 0x9f             	XOR	R0, r0x101F
0004d8   7a03     JB	0x3, 2                	JB	PSW, 2
0004d9   c4de     JMP	#0x4de               	JMP	_00147_DS_
                                           	BANKSEL	r0x101D
0004da   0ea0     MOVZ	R0, 0xa0            	MOVZ	R0, r0x101D
                                           	BANKSEL	r0x1020
0004db   189e     XOR	R0, 0x9e             	XOR	R0, r0x1020
0004dc   7203     JNB	0x3, 2               	JNB	PSW, 2
0004dd   c587     JMP	#0x587               	JMP	_00132_DS_
                                           _00147_DS_
0004de   983c     MOV	R0, #0x3c            	MOV	R0,# 0x3c
                                           	BANKSEL	STK01
0004df   51d1     MOV	0xd1, R0             	MOV	STK01, R0
                                           	BANKSEL	r0x101C
0004e0   0ea3     MOVZ	R0, 0xa3            	MOVZ	R0, r0x101C
                                           	BANKSEL	STK00
0004e1   51d2     MOV	0xd2, R0             	MOV	STK00, R0
                                           	BANKSEL	r0x101B
0004e2   0ea2     MOVZ	R0, 0xa2            	MOVZ	R0, r0x101B
0004e3   9f70     MOV	R7, #0x70            	TRAPPC1	__h16udiv8
0004e4   5f73     MOV	0x73, R7             	TRAPPC2	__h16udiv8
0004e5   e070     MOVP	#0x70               	PAGESEL	__h16udiv8
0004e6   d046     CALL	#0x46               	CALL	__h16udiv8
0004e7   9f04     MOV	R7, #0x4             	TRAPPC1	$+2
0004e8   5f73     MOV	0x73, R7             	TRAPPC2	$+1
0004e9   e004     MOVP	#0x04               	PAGESEL	$
0004ea   e100     MOVB	#0x00               	BANKSEL	r0x101D
0004eb   51a0     MOV	0xa0, R0             	MOV	r0x101D, R0
                                           	BANKSEL	STK00
0004ec   0ed2     MOVZ	R0, 0xd2            	MOVZ	R0, STK00
                                           	BANKSEL	r0x101E
0004ed   51a1     MOV	0xa1, R0             	MOV	r0x101E, R0
                                           	BANKSEL	_Liushui_l
0004ee   518c     MOV	0x8c, R0             	MOV	_Liushui_l, R0
0004ef   9809     MOV	R0, #0x9             	MOV	R0,# 0x09
                                           	BANKSEL	_Liushui_l
0004f0   388c     SUB	R0, 0x8c             	SUB	R0, _Liushui_l
0004f1   7003     JNB	0x3, 0               	JNB	PSW, 0
0004f2   c520     JMP	#0x520               	JMP	_00129_DS_
0004f3   981f     MOV	R0, #0x1f            	MOV	R0,# 0x1f
                                           	BANKSEL	_Liushui_l
0004f4   208c     ADD	R0, 0x8c             	ADD	R0, _Liushui_l
                                           	BANKSEL	r0x101E
0004f5   51a1     MOV	0xa1, R0             	MOV	r0x101E, R0
0004f6   9810     MOV	R0, #0x10            	MOV	R0,# 0x10
                                           	BANKSEL	STK01
0004f7   51d1     MOV	0xd1, R0             	MOV	STK01, R0
                                           	BANKSEL	r0x101E
0004f8   0ea1     MOVZ	R0, 0xa1            	MOVZ	R0, r0x101E
                                           	BANKSEL	STK00
0004f9   51d2     MOV	0xd2, R0             	MOV	STK00, R0
0004fa   9801     MOV	R0, #0x1             	MOV	R0,# 0x01
0004fb   9f0e     MOV	R7, #0xe             	TRAPPC1	_SPI_Write_1Byte
0004fc   5f73     MOV	0x73, R7             	TRAPPC2	_SPI_Write_1Byte
0004fd   e00e     MOVP	#0x0E               	PAGESEL	_SPI_Write_1Byte
0004fe   dee1     CALL	#0xee1              	CALL	_SPI_Write_1Byte
0004ff   9f05     MOV	R7, #0x5             	TRAPPC1	$+2
000500   5f73     MOV	0x73, R7             	TRAPPC2	$+1
000501   e005     MOVP	#0x05               	PAGESEL	$
000502   9820     MOV	R0, #0x20            	MOV	R0,# 0x20
000503   e100     MOVB	#0x00               	BANKSEL	_Liushui_l
000504   208c     ADD	R0, 0x8c             	ADD	R0, _Liushui_l
                                           	BANKSEL	r0x101E
000505   51a1     MOV	0xa1, R0             	MOV	r0x101E, R0
000506   98ff     MOV	R0, #0xff            	MOV	R0,# 0xff
                                           	BANKSEL	STK01
000507   51d1     MOV	0xd1, R0             	MOV	STK01, R0
                                           	BANKSEL	r0x101E
000508   0ea1     MOVZ	R0, 0xa1            	MOVZ	R0, r0x101E
                                           	BANKSEL	STK00
000509   51d2     MOV	0xd2, R0             	MOV	STK00, R0
00050a   9801     MOV	R0, #0x1             	MOV	R0,# 0x01
00050b   9f0e     MOV	R7, #0xe             	TRAPPC1	_SPI_Write_1Byte
00050c   5f73     MOV	0x73, R7             	TRAPPC2	_SPI_Write_1Byte
00050d   e00e     MOVP	#0x0E               	PAGESEL	_SPI_Write_1Byte
00050e   dee1     CALL	#0xee1              	CALL	_SPI_Write_1Byte
00050f   9f05     MOV	R7, #0x5             	TRAPPC1	$+2
000510   5f73     MOV	0x73, R7             	TRAPPC2	$+1
000511   e005     MOVP	#0x05               	PAGESEL	$
000512   9800     MOV	R0, #0               	MOV	R0,# 0x00
000513   e100     MOVB	#0x00               	BANKSEL	STK01
000514   51d1     MOV	0xd1, R0             	MOV	STK01, R0
000515   9837     MOV	R0, #0x37            	MOV	R0,# 0x37
                                           	BANKSEL	STK00
000516   51d2     MOV	0xd2, R0             	MOV	STK00, R0
000517   9801     MOV	R0, #0x1             	MOV	R0,# 0x01
000518   9f0e     MOV	R7, #0xe             	TRAPPC1	_SPI_Write_1Byte
000519   5f73     MOV	0x73, R7             	TRAPPC2	_SPI_Write_1Byte
00051a   e00e     MOVP	#0x0E               	PAGESEL	_SPI_Write_1Byte
00051b   dee1     CALL	#0xee1              	CALL	_SPI_Write_1Byte
00051c   9f05     MOV	R7, #0x5             	TRAPPC1	$+2
00051d   5f73     MOV	0x73, R7             	TRAPPC2	$+1
00051e   e005     MOVP	#0x05               	PAGESEL	$
00051f   c587     JMP	#0x587               	JMP	_00132_DS_
                                           _00129_DS_
                                           	BANKSEL	_Liushui_l
000520   0e8c     MOVZ	R0, 0x8c            	MOVZ	R0, _Liushui_l
000521   a809     XOR	R0, #0x9             	XOR	R0,# 0x09
000522   7a03     JB	0x3, 2                	JB	PSW, 2
000523   c55b     JMP	#0x55b               	JMP	_00126_DS_
000524   981f     MOV	R0, #0x1f            	MOV	R0,# 0x1f
                                           	BANKSEL	_Liushui_l
000525   208c     ADD	R0, 0x8c             	ADD	R0, _Liushui_l
                                           	BANKSEL	r0x101E
000526   51a1     MOV	0xa1, R0             	MOV	r0x101E, R0
000527   9810     MOV	R0, #0x10            	MOV	R0,# 0x10
                                           	BANKSEL	STK01
000528   51d1     MOV	0xd1, R0             	MOV	STK01, R0
                                           	BANKSEL	r0x101E
000529   0ea1     MOVZ	R0, 0xa1            	MOVZ	R0, r0x101E
                                           	BANKSEL	STK00
00052a   51d2     MOV	0xd2, R0             	MOV	STK00, R0
00052b   9801     MOV	R0, #0x1             	MOV	R0,# 0x01
00052c   9f0e     MOV	R7, #0xe             	TRAPPC1	_SPI_Write_1Byte
00052d   5f73     MOV	0x73, R7             	TRAPPC2	_SPI_Write_1Byte
00052e   e00e     MOVP	#0x0E               	PAGESEL	_SPI_Write_1Byte
00052f   dee1     CALL	#0xee1              	CALL	_SPI_Write_1Byte
000530   9f05     MOV	R7, #0x5             	TRAPPC1	$+2
000531   5f73     MOV	0x73, R7             	TRAPPC2	$+1
000532   e005     MOVP	#0x05               	PAGESEL	$
000533   9800     MOV	R0, #0               	MOV	R0,# 0x00
000534   e100     MOVB	#0x00               	BANKSEL	STK01
000535   51d1     MOV	0xd1, R0             	MOV	STK01, R0
000536   9837     MOV	R0, #0x37            	MOV	R0,# 0x37
                                           	BANKSEL	STK00
000537   51d2     MOV	0xd2, R0             	MOV	STK00, R0
000538   9801     MOV	R0, #0x1             	MOV	R0,# 0x01
000539   9f0e     MOV	R7, #0xe             	TRAPPC1	_SPI_Write_1Byte
00053a   5f73     MOV	0x73, R7             	TRAPPC2	_SPI_Write_1Byte
00053b   e00e     MOVP	#0x0E               	PAGESEL	_SPI_Write_1Byte
00053c   dee1     CALL	#0xee1              	CALL	_SPI_Write_1Byte
00053d   9f05     MOV	R7, #0x5             	TRAPPC1	$+2
00053e   5f73     MOV	0x73, R7             	TRAPPC2	$+1
00053f   e005     MOVP	#0x05               	PAGESEL	$
000540   98ff     MOV	R0, #0xff            	MOV	R0,# 0xff
000541   e100     MOVB	#0x00               	BANKSEL	STK01
000542   51d1     MOV	0xd1, R0             	MOV	STK01, R0
000543   981f     MOV	R0, #0x1f            	MOV	R0,# 0x1f
                                           	BANKSEL	STK00
000544   51d2     MOV	0xd2, R0             	MOV	STK00, R0
000545   9802     MOV	R0, #0x2             	MOV	R0,# 0x02
000546   9f0e     MOV	R7, #0xe             	TRAPPC1	_SPI_Write_1Byte
000547   5f73     MOV	0x73, R7             	TRAPPC2	_SPI_Write_1Byte
000548   e00e     MOVP	#0x0E               	PAGESEL	_SPI_Write_1Byte
000549   dee1     CALL	#0xee1              	CALL	_SPI_Write_1Byte
00054a   9f05     MOV	R7, #0x5             	TRAPPC1	$+2
00054b   5f73     MOV	0x73, R7             	TRAPPC2	$+1
00054c   e005     MOVP	#0x05               	PAGESEL	$
00054d   9800     MOV	R0, #0               	MOV	R0,# 0x00
00054e   e100     MOVB	#0x00               	BANKSEL	STK01
00054f   51d1     MOV	0xd1, R0             	MOV	STK01, R0
000550   9837     MOV	R0, #0x37            	MOV	R0,# 0x37
                                           	BANKSEL	STK00
000551   51d2     MOV	0xd2, R0             	MOV	STK00, R0
000552   9802     MOV	R0, #0x2             	MOV	R0,# 0x02
000553   9f0e     MOV	R7, #0xe             	TRAPPC1	_SPI_Write_1Byte
000554   5f73     MOV	0x73, R7             	TRAPPC2	_SPI_Write_1Byte
000555   e00e     MOVP	#0x0E               	PAGESEL	_SPI_Write_1Byte
000556   dee1     CALL	#0xee1              	CALL	_SPI_Write_1Byte
000557   9f05     MOV	R7, #0x5             	TRAPPC1	$+2
000558   5f73     MOV	0x73, R7             	TRAPPC2	$+1
000559   e005     MOVP	#0x05               	PAGESEL	$
00055a   c587     JMP	#0x587               	JMP	_00132_DS_
                                           _00126_DS_
00055b   9815     MOV	R0, #0x15            	MOV	R0,# 0x15
                                           	BANKSEL	_Liushui_l
00055c   208c     ADD	R0, 0x8c             	ADD	R0, _Liushui_l
                                           	BANKSEL	r0x101E
00055d   51a1     MOV	0xa1, R0             	MOV	r0x101E, R0
00055e   9810     MOV	R0, #0x10            	MOV	R0,# 0x10
                                           	BANKSEL	STK01
00055f   51d1     MOV	0xd1, R0             	MOV	STK01, R0
                                           	BANKSEL	r0x101E
000560   0ea1     MOVZ	R0, 0xa1            	MOVZ	R0, r0x101E
                                           	BANKSEL	STK00
000561   51d2     MOV	0xd2, R0             	MOV	STK00, R0
000562   9802     MOV	R0, #0x2             	MOV	R0,# 0x02
000563   9f0e     MOV	R7, #0xe             	TRAPPC1	_SPI_Write_1Byte
000564   5f73     MOV	0x73, R7             	TRAPPC2	_SPI_Write_1Byte
000565   e00e     MOVP	#0x0E               	PAGESEL	_SPI_Write_1Byte
000566   dee1     CALL	#0xee1              	CALL	_SPI_Write_1Byte
000567   9f05     MOV	R7, #0x5             	TRAPPC1	$+2
000568   5f73     MOV	0x73, R7             	TRAPPC2	$+1
000569   e005     MOVP	#0x05               	PAGESEL	$
00056a   9816     MOV	R0, #0x16            	MOV	R0,# 0x16
00056b   e100     MOVB	#0x00               	BANKSEL	_Liushui_l
00056c   208c     ADD	R0, 0x8c             	ADD	R0, _Liushui_l
                                           	BANKSEL	r0x101E
00056d   51a1     MOV	0xa1, R0             	MOV	r0x101E, R0
00056e   98ff     MOV	R0, #0xff            	MOV	R0,# 0xff
                                           	BANKSEL	STK01
00056f   51d1     MOV	0xd1, R0             	MOV	STK01, R0
                                           	BANKSEL	r0x101E
000570   0ea1     MOVZ	R0, 0xa1            	MOVZ	R0, r0x101E
                                           	BANKSEL	STK00
000571   51d2     MOV	0xd2, R0             	MOV	STK00, R0
000572   9802     MOV	R0, #0x2             	MOV	R0,# 0x02
000573   9f0e     MOV	R7, #0xe             	TRAPPC1	_SPI_Write_1Byte
000574   5f73     MOV	0x73, R7             	TRAPPC2	_SPI_Write_1Byte
000575   e00e     MOVP	#0x0E               	PAGESEL	_SPI_Write_1Byte
000576   dee1     CALL	#0xee1              	CALL	_SPI_Write_1Byte
000577   9f05     MOV	R7, #0x5             	TRAPPC1	$+2
000578   5f73     MOV	0x73, R7             	TRAPPC2	$+1
000579   e005     MOVP	#0x05               	PAGESEL	$
00057a   9800     MOV	R0, #0               	MOV	R0,# 0x00
00057b   e100     MOVB	#0x00               	BANKSEL	STK01
00057c   51d1     MOV	0xd1, R0             	MOV	STK01, R0
00057d   9837     MOV	R0, #0x37            	MOV	R0,# 0x37
                                           	BANKSEL	STK00
00057e   51d2     MOV	0xd2, R0             	MOV	STK00, R0
00057f   9802     MOV	R0, #0x2             	MOV	R0,# 0x02
000580   9f0e     MOV	R7, #0xe             	TRAPPC1	_SPI_Write_1Byte
000581   5f73     MOV	0x73, R7             	TRAPPC2	_SPI_Write_1Byte
000582   e00e     MOVP	#0x0E               	PAGESEL	_SPI_Write_1Byte
000583   dee1     CALL	#0xee1              	CALL	_SPI_Write_1Byte
000584   9f05     MOV	R7, #0x5             	TRAPPC1	$+2
000585   5f73     MOV	0x73, R7             	TRAPPC2	$+1
000586   e005     MOVP	#0x05               	PAGESEL	$
                                           _00132_DS_
000587   9802     MOV	R0, #0x2             	MOV	R0,# 0x02
000588   e100     MOVB	#0x00               	BANKSEL	r0x101B
000589   38a2     SUB	R0, 0xa2             	SUB	R0, r0x101B
00058a   7a03     JB	0x3, 2                	JB	PSW, 2
00058b   c58e     JMP	#0x58e               	JMP	_00149_DS_
00058c   981d     MOV	R0, #0x1d            	MOV	R0,# 0x1d
                                           	BANKSEL	r0x101C
00058d   38a3     SUB	R0, 0xa3             	SUB	R0, r0x101C
                                           _00149_DS_
00058e   7803     JB	0x3, 0                	JB	PSW, 0
00058f   c5df     JMP	#0x5df               	JMP	_00139_DS_
000590   98e4     MOV	R0, #0xe4            	MOV	R0,# 0xe4
                                           	BANKSEL	r0x101C
000591   20a3     ADD	R0, 0xa3             	ADD	R0, r0x101C
                                           	BANKSEL	r0x101E
000592   51a1     MOV	0xa1, R0             	MOV	r0x101E, R0
000593   98fd     MOV	R0, #0xfd            	MOV	R0,# 0xfd
                                           	BANKSEL	r0x101D
000594   51a0     MOV	0xa0, R0             	MOV	r0x101D, R0
                                           	BANKSEL	r0x101B
000595   0ea2     MOVZ	R0, 0xa2            	MOVZ	R0, r0x101B
000596   7003     JNB	0x3, 0               	JNB	PSW, 0
000597   ff10     INC	R0                   	INC	R0
000598   7203     JNB	0x3, 2               	JNB	PSW, 2
000599   c59b     JMP	#0x59b               	JMP	_00530_DS_
                                           	BANKSEL	r0x101D
00059a   21a0     ADD	0xa0, R0             	ADD	r0x101D, R0
                                           _00530_DS_
00059b   9832     MOV	R0, #0x32            	MOV	R0,# 0x32
                                           	BANKSEL	STK01
00059c   51d1     MOV	0xd1, R0             	MOV	STK01, R0
                                           	BANKSEL	r0x101E
00059d   0ea1     MOVZ	R0, 0xa1            	MOVZ	R0, r0x101E
                                           	BANKSEL	STK00
00059e   51d2     MOV	0xd2, R0             	MOV	STK00, R0
                                           	BANKSEL	r0x101D
00059f   0ea0     MOVZ	R0, 0xa0            	MOVZ	R0, r0x101D
0005a0   9f70     MOV	R7, #0x70            	TRAPPC1	__h16udiv8
0005a1   5f73     MOV	0x73, R7             	TRAPPC2	__h16udiv8
0005a2   e070     MOVP	#0x70               	PAGESEL	__h16udiv8
0005a3   d046     CALL	#0x46               	CALL	__h16udiv8
0005a4   9f05     MOV	R7, #0x5             	TRAPPC1	$+2
0005a5   5f73     MOV	0x73, R7             	TRAPPC2	$+1
0005a6   e005     MOVP	#0x05               	PAGESEL	$
0005a7   e100     MOVB	#0x00               	BANKSEL	r0x101D
0005a8   51a0     MOV	0xa0, R0             	MOV	r0x101D, R0
                                           	BANKSEL	STK00
0005a9   0ed2     MOVZ	R0, 0xd2            	MOVZ	R0, STK00
                                           	BANKSEL	r0x101E
0005aa   51a1     MOV	0xa1, R0             	MOV	r0x101E, R0
                                           	BANKSEL	_stop_l
0005ab   0e8b     MOVZ	R0, 0x8b            	MOVZ	R0, _stop_l
                                           	BANKSEL	r0x101F
0005ac   519f     MOV	0x9f, R0             	MOV	r0x101F, R0
                                           	BANKSEL	r0x1020
0005ad   039e     CLR	0x9e                 	CLR	r0x1020
                                           	BANKSEL	r0x101E
0005ae   0ea1     MOVZ	R0, 0xa1            	MOVZ	R0, r0x101E
                                           	BANKSEL	r0x101F
0005af   189f     XOR	R0, 0x9f             	XOR	R0, r0x101F
0005b0   7a03     JB	0x3, 2                	JB	PSW, 2
0005b1   c5b6     JMP	#0x5b6               	JMP	_00150_DS_
                                           	BANKSEL	r0x101D
0005b2   0ea0     MOVZ	R0, 0xa0            	MOVZ	R0, r0x101D
                                           	BANKSEL	r0x1020
0005b3   189e     XOR	R0, 0x9e             	XOR	R0, r0x1020
0005b4   7203     JNB	0x3, 2               	JNB	PSW, 2
0005b5   c5df     JMP	#0x5df               	JMP	_00139_DS_
                                           _00150_DS_
0005b6   98e4     MOV	R0, #0xe4            	MOV	R0,# 0xe4
                                           	BANKSEL	r0x101C
0005b7   21a3     ADD	0xa3, R0             	ADD	r0x101C, R0
0005b8   98fd     MOV	R0, #0xfd            	MOV	R0,# 0xfd
0005b9   7003     JNB	0x3, 0               	JNB	PSW, 0
0005ba   98fe     MOV	R0, #0xfe            	MOV	R0,# 0xfe
                                           	BANKSEL	r0x101B
0005bb   21a2     ADD	0xa2, R0             	ADD	r0x101B, R0
0005bc   9832     MOV	R0, #0x32            	MOV	R0,# 0x32
                                           	BANKSEL	STK01
0005bd   51d1     MOV	0xd1, R0             	MOV	STK01, R0
                                           	BANKSEL	r0x101C
0005be   0ea3     MOVZ	R0, 0xa3            	MOVZ	R0, r0x101C
                                           	BANKSEL	STK00
0005bf   51d2     MOV	0xd2, R0             	MOV	STK00, R0
                                           	BANKSEL	r0x101B
0005c0   0ea2     MOVZ	R0, 0xa2            	MOVZ	R0, r0x101B
0005c1   9f70     MOV	R7, #0x70            	TRAPPC1	__h16udiv8
0005c2   5f73     MOV	0x73, R7             	TRAPPC2	__h16udiv8
0005c3   e070     MOVP	#0x70               	PAGESEL	__h16udiv8
0005c4   d046     CALL	#0x46               	CALL	__h16udiv8
0005c5   9f05     MOV	R7, #0x5             	TRAPPC1	$+2
0005c6   5f73     MOV	0x73, R7             	TRAPPC2	$+1
0005c7   e005     MOVP	#0x05               	PAGESEL	$
0005c8   e100     MOVB	#0x00               	BANKSEL	r0x101B
0005c9   51a2     MOV	0xa2, R0             	MOV	r0x101B, R0
                                           	BANKSEL	STK00
0005ca   0ed2     MOVZ	R0, 0xd2            	MOVZ	R0, STK00
                                           	BANKSEL	r0x101C
0005cb   51a3     MOV	0xa3, R0             	MOV	r0x101C, R0
                                           	BANKSEL	_stop_l
0005cc   518b     MOV	0x8b, R0             	MOV	_stop_l, R0
0005cd   9800     MOV	R0, #0               	MOV	R0,# 0x00
                                           	BANKSEL	_stop_l
0005ce   308b     ORL	R0, 0x8b             	ORL	R0, _stop_l
0005cf   7a03     JB	0x3, 2                	JB	PSW, 2
0005d0   c5d3     JMP	#0x5d3               	JMP	_00134_DS_
                                           	BANKSEL	_stop_ctl
0005d1   03b3     CLR	0xb3                 	CLR	_stop_ctl
                                           	BANKSEL	_stop_ctl
0005d2   03b4     CLR	0xb4                 	CLR	(_stop_ctl + 1)
                                           _00134_DS_
0005d3   6003     CLR	0x3, 0               	CLR	PSW, 0
                                           	BANKSEL	_stop_ctl
0005d4   13b3     RLC	0xb3                 	RLC	_stop_ctl
                                           	BANKSEL	_stop_ctl
0005d5   13b4     RLC	0xb4                 	RLC	(_stop_ctl + 1)
                                           	BANKSEL	_stop_ctl
0005d6   0bb3     INC	0xb3                 	INC	_stop_ctl
0005d7   7a03     JB	0x3, 2                	JB	PSW, 2
0005d8   c5da     JMP	#0x5da               	JMP	_00531_DS_
                                           	BANKSEL	_stop_ctl
0005d9   0bb4     INC	0xb4                 	INC	(_stop_ctl + 1)
                                           _00531_DS_
0005da   98ff     MOV	R0, #0xff            	MOV	R0,# 0xff
                                           	BANKSEL	_stop_ctl_h
0005db   51b1     MOV	0xb1, R0             	MOV	_stop_ctl_h, R0
                                           	BANKSEL	_stop_ctl_h
0005dc   51b2     MOV	0xb2, R0             	MOV	(_stop_ctl_h + 1), R0
0005dd   9802     MOV	R0, #0x2             	MOV	R0,# 0x02
                                           	BANKSEL	_mode_stop
0005de   5188     MOV	0x88, R0             	MOV	_mode_stop, R0
                                           _00139_DS_
0005df   0008     CRET                     	CRET	
                                           func._Liushui_low	.code
                                           _Liushui_low	;Function start
000c24   e100     MOVB	#0x00               	BANKSEL	r0x101B
000c25   51a2     MOV	0xa2, R0             	MOV	r0x101B, R0
                                           	BANKSEL	STK00
000c26   0ed2     MOVZ	R0, 0xd2            	MOVZ	R0, STK00
                                           	BANKSEL	r0x101C
000c27   51a3     MOV	0xa3, R0             	MOV	r0x101C, R0
000c28   983c     MOV	R0, #0x3c            	MOV	R0,# 0x3c
                                           	BANKSEL	STK01
000c29   51d1     MOV	0xd1, R0             	MOV	STK01, R0
                                           	BANKSEL	r0x101C
000c2a   0ea3     MOVZ	R0, 0xa3            	MOVZ	R0, r0x101C
                                           	BANKSEL	STK00
000c2b   51d2     MOV	0xd2, R0             	MOV	STK00, R0
                                           	BANKSEL	r0x101B
000c2c   0ea2     MOVZ	R0, 0xa2            	MOVZ	R0, r0x101B
000c2d   9f70     MOV	R7, #0x70            	TRAPPC1	__h16udiv8
000c2e   5f73     MOV	0x73, R7             	TRAPPC2	__h16udiv8
000c2f   e070     MOVP	#0x70               	PAGESEL	__h16udiv8
000c30   d046     CALL	#0x46               	CALL	__h16udiv8
000c31   9f0c     MOV	R7, #0xc             	TRAPPC1	$+2
000c32   5f73     MOV	0x73, R7             	TRAPPC2	$+1
000c33   e00c     MOVP	#0x0C               	PAGESEL	$
000c34   e100     MOVB	#0x00               	BANKSEL	r0x101D
000c35   51a0     MOV	0xa0, R0             	MOV	r0x101D, R0
                                           	BANKSEL	STK00
000c36   0ed2     MOVZ	R0, 0xd2            	MOVZ	R0, STK00
                                           	BANKSEL	r0x101E
000c37   51a1     MOV	0xa1, R0             	MOV	r0x101E, R0
                                           	BANKSEL	_Liushui_l
000c38   0e8c     MOVZ	R0, 0x8c            	MOVZ	R0, _Liushui_l
                                           	BANKSEL	r0x101F
000c39   519f     MOV	0x9f, R0             	MOV	r0x101F, R0
                                           	BANKSEL	r0x1020
000c3a   039e     CLR	0x9e                 	CLR	r0x1020
                                           	BANKSEL	r0x101E
000c3b   0ea1     MOVZ	R0, 0xa1            	MOVZ	R0, r0x101E
                                           	BANKSEL	r0x101F
000c3c   189f     XOR	R0, 0x9f             	XOR	R0, r0x101F
000c3d   7a03     JB	0x3, 2                	JB	PSW, 2
000c3e   cc43     JMP	#0xc43               	JMP	_00123_DS_
                                           	BANKSEL	r0x101D
000c3f   0ea0     MOVZ	R0, 0xa0            	MOVZ	R0, r0x101D
                                           	BANKSEL	r0x1020
000c40   189e     XOR	R0, 0x9e             	XOR	R0, r0x1020
000c41   7203     JNB	0x3, 2               	JNB	PSW, 2
000c42   cc91     JMP	#0xc91               	JMP	_00119_DS_
                                           _00123_DS_
000c43   983c     MOV	R0, #0x3c            	MOV	R0,# 0x3c
                                           	BANKSEL	STK01
000c44   51d1     MOV	0xd1, R0             	MOV	STK01, R0
                                           	BANKSEL	r0x101C
000c45   0ea3     MOVZ	R0, 0xa3            	MOVZ	R0, r0x101C
                                           	BANKSEL	STK00
000c46   51d2     MOV	0xd2, R0             	MOV	STK00, R0
                                           	BANKSEL	r0x101B
000c47   0ea2     MOVZ	R0, 0xa2            	MOVZ	R0, r0x101B
000c48   9f70     MOV	R7, #0x70            	TRAPPC1	__h16udiv8
000c49   5f73     MOV	0x73, R7             	TRAPPC2	__h16udiv8
000c4a   e070     MOVP	#0x70               	PAGESEL	__h16udiv8
000c4b   d046     CALL	#0x46               	CALL	__h16udiv8
000c4c   9f0c     MOV	R7, #0xc             	TRAPPC1	$+2
000c4d   5f73     MOV	0x73, R7             	TRAPPC2	$+1
000c4e   e00c     MOVP	#0x0C               	PAGESEL	$
000c4f   e100     MOVB	#0x00               	BANKSEL	r0x101B
000c50   51a2     MOV	0xa2, R0             	MOV	r0x101B, R0
                                           	BANKSEL	STK00
000c51   0ed2     MOVZ	R0, 0xd2            	MOVZ	R0, STK00
                                           	BANKSEL	r0x101C
000c52   51a3     MOV	0xa3, R0             	MOV	r0x101C, R0
                                           	BANKSEL	_Liushui_l
000c53   518c     MOV	0x8c, R0             	MOV	_Liushui_l, R0
000c54   9809     MOV	R0, #0x9             	MOV	R0,# 0x09
                                           	BANKSEL	_Liushui_l
000c55   388c     SUB	R0, 0x8c             	SUB	R0, _Liushui_l
000c56   7003     JNB	0x3, 0               	JNB	PSW, 0
000c57   cc75     JMP	#0xc75               	JMP	_00115_DS_
000c58   9820     MOV	R0, #0x20            	MOV	R0,# 0x20
                                           	BANKSEL	_Liushui_l
000c59   208c     ADD	R0, 0x8c             	ADD	R0, _Liushui_l
                                           	BANKSEL	r0x101C
000c5a   51a3     MOV	0xa3, R0             	MOV	r0x101C, R0
000c5b   9810     MOV	R0, #0x10            	MOV	R0,# 0x10
                                           	BANKSEL	STK01
000c5c   51d1     MOV	0xd1, R0             	MOV	STK01, R0
                                           	BANKSEL	r0x101C
000c5d   0ea3     MOVZ	R0, 0xa3            	MOVZ	R0, r0x101C
                                           	BANKSEL	STK00
000c5e   51d2     MOV	0xd2, R0             	MOV	STK00, R0
000c5f   9801     MOV	R0, #0x1             	MOV	R0,# 0x01
000c60   9f0e     MOV	R7, #0xe             	TRAPPC1	_SPI_Write_1Byte
000c61   5f73     MOV	0x73, R7             	TRAPPC2	_SPI_Write_1Byte
000c62   e00e     MOVP	#0x0E               	PAGESEL	_SPI_Write_1Byte
000c63   dee1     CALL	#0xee1              	CALL	_SPI_Write_1Byte
000c64   9f0c     MOV	R7, #0xc             	TRAPPC1	$+2
000c65   5f73     MOV	0x73, R7             	TRAPPC2	$+1
000c66   e00c     MOVP	#0x0C               	PAGESEL	$
000c67   9800     MOV	R0, #0               	MOV	R0,# 0x00
000c68   e100     MOVB	#0x00               	BANKSEL	STK01
000c69   51d1     MOV	0xd1, R0             	MOV	STK01, R0
000c6a   9837     MOV	R0, #0x37            	MOV	R0,# 0x37
                                           	BANKSEL	STK00
000c6b   51d2     MOV	0xd2, R0             	MOV	STK00, R0
000c6c   9801     MOV	R0, #0x1             	MOV	R0,# 0x01
000c6d   9f0e     MOV	R7, #0xe             	TRAPPC1	_SPI_Write_1Byte
000c6e   5f73     MOV	0x73, R7             	TRAPPC2	_SPI_Write_1Byte
000c6f   e00e     MOVP	#0x0E               	PAGESEL	_SPI_Write_1Byte
000c70   dee1     CALL	#0xee1              	CALL	_SPI_Write_1Byte
000c71   9f0c     MOV	R7, #0xc             	TRAPPC1	$+2
000c72   5f73     MOV	0x73, R7             	TRAPPC2	$+1
000c73   e00c     MOVP	#0x0C               	PAGESEL	$
000c74   cc91     JMP	#0xc91               	JMP	_00119_DS_
                                           _00115_DS_
000c75   9816     MOV	R0, #0x16            	MOV	R0,# 0x16
                                           	BANKSEL	_Liushui_l
000c76   208c     ADD	R0, 0x8c             	ADD	R0, _Liushui_l
                                           	BANKSEL	r0x101C
000c77   51a3     MOV	0xa3, R0             	MOV	r0x101C, R0
000c78   9810     MOV	R0, #0x10            	MOV	R0,# 0x10
                                           	BANKSEL	STK01
000c79   51d1     MOV	0xd1, R0             	MOV	STK01, R0
                                           	BANKSEL	r0x101C
000c7a   0ea3     MOVZ	R0, 0xa3            	MOVZ	R0, r0x101C
                                           	BANKSEL	STK00
000c7b   51d2     MOV	0xd2, R0             	MOV	STK00, R0
000c7c   9802     MOV	R0, #0x2             	MOV	R0,# 0x02
000c7d   9f0e     MOV	R7, #0xe             	TRAPPC1	_SPI_Write_1Byte
000c7e   5f73     MOV	0x73, R7             	TRAPPC2	_SPI_Write_1Byte
000c7f   e00e     MOVP	#0x0E               	PAGESEL	_SPI_Write_1Byte
000c80   dee1     CALL	#0xee1              	CALL	_SPI_Write_1Byte
000c81   9f0c     MOV	R7, #0xc             	TRAPPC1	$+2
000c82   5f73     MOV	0x73, R7             	TRAPPC2	$+1
000c83   e00c     MOVP	#0x0C               	PAGESEL	$
000c84   9800     MOV	R0, #0               	MOV	R0,# 0x00
000c85   e100     MOVB	#0x00               	BANKSEL	STK01
000c86   51d1     MOV	0xd1, R0             	MOV	STK01, R0
000c87   9837     MOV	R0, #0x37            	MOV	R0,# 0x37
                                           	BANKSEL	STK00
000c88   51d2     MOV	0xd2, R0             	MOV	STK00, R0
000c89   9802     MOV	R0, #0x2             	MOV	R0,# 0x02
000c8a   9f0e     MOV	R7, #0xe             	TRAPPC1	_SPI_Write_1Byte
000c8b   5f73     MOV	0x73, R7             	TRAPPC2	_SPI_Write_1Byte
000c8c   e00e     MOVP	#0x0E               	PAGESEL	_SPI_Write_1Byte
000c8d   dee1     CALL	#0xee1              	CALL	_SPI_Write_1Byte
000c8e   9f0c     MOV	R7, #0xc             	TRAPPC1	$+2
000c8f   5f73     MOV	0x73, R7             	TRAPPC2	$+1
000c90   e00c     MOVP	#0x0C               	PAGESEL	$
                                           _00119_DS_
000c91   0008     CRET                     	CRET	
                                           func._Huxi_off	.code
                                           _Huxi_off	;Function start
000d65   e100     MOVB	#0x00               	BANKSEL	r0x1023
000d66   519c     MOV	0x9c, R0             	MOV	r0x1023, R0
                                           	BANKSEL	STK00
000d67   0ed2     MOVZ	R0, 0xd2            	MOVZ	R0, STK00
                                           	BANKSEL	r0x1024
000d68   519d     MOV	0x9d, R0             	MOV	r0x1024, R0
000d69   9814     MOV	R0, #0x14            	MOV	R0,# 0x14
                                           	BANKSEL	STK01
000d6a   51d1     MOV	0xd1, R0             	MOV	STK01, R0
                                           	BANKSEL	r0x1024
000d6b   0e9d     MOVZ	R0, 0x9d            	MOVZ	R0, r0x1024
                                           	BANKSEL	STK00
000d6c   51d2     MOV	0xd2, R0             	MOV	STK00, R0
                                           	BANKSEL	r0x1023
000d6d   0e9c     MOVZ	R0, 0x9c            	MOVZ	R0, r0x1023
000d6e   9f70     MOV	R7, #0x70            	TRAPPC1	__h16udiv8
000d6f   5f73     MOV	0x73, R7             	TRAPPC2	__h16udiv8
000d70   e070     MOVP	#0x70               	PAGESEL	__h16udiv8
000d71   d046     CALL	#0x46               	CALL	__h16udiv8
000d72   9f0d     MOV	R7, #0xd             	TRAPPC1	$+2
000d73   5f73     MOV	0x73, R7             	TRAPPC2	$+1
000d74   e00d     MOVP	#0x0D               	PAGESEL	$
000d75   e100     MOVB	#0x00               	BANKSEL	r0x1025
000d76   519a     MOV	0x9a, R0             	MOV	r0x1025, R0
                                           	BANKSEL	STK00
000d77   0ed2     MOVZ	R0, 0xd2            	MOVZ	R0, STK00
                                           	BANKSEL	r0x1026
000d78   519b     MOV	0x9b, R0             	MOV	r0x1026, R0
                                           	BANKSEL	_huxi_c
000d79   0e8d     MOVZ	R0, 0x8d            	MOVZ	R0, _huxi_c
                                           	BANKSEL	r0x1027
000d7a   5199     MOV	0x99, R0             	MOV	r0x1027, R0
                                           	BANKSEL	r0x1028
000d7b   0398     CLR	0x98                 	CLR	r0x1028
                                           	BANKSEL	r0x1026
000d7c   0e9b     MOVZ	R0, 0x9b            	MOVZ	R0, r0x1026
                                           	BANKSEL	r0x1027
000d7d   1899     XOR	R0, 0x99             	XOR	R0, r0x1027
000d7e   7a03     JB	0x3, 2                	JB	PSW, 2
000d7f   cd84     JMP	#0xd84               	JMP	_00112_DS_
                                           	BANKSEL	r0x1025
000d80   0e9a     MOVZ	R0, 0x9a            	MOVZ	R0, r0x1025
                                           	BANKSEL	r0x1028
000d81   1898     XOR	R0, 0x98             	XOR	R0, r0x1028
000d82   7203     JNB	0x3, 2               	JNB	PSW, 2
000d83   cdc1     JMP	#0xdc1               	JMP	_00108_DS_
                                           _00112_DS_
000d84   9814     MOV	R0, #0x14            	MOV	R0,# 0x14
                                           	BANKSEL	STK01
000d85   51d1     MOV	0xd1, R0             	MOV	STK01, R0
                                           	BANKSEL	r0x1024
000d86   0e9d     MOVZ	R0, 0x9d            	MOVZ	R0, r0x1024
                                           	BANKSEL	STK00
000d87   51d2     MOV	0xd2, R0             	MOV	STK00, R0
                                           	BANKSEL	r0x1023
000d88   0e9c     MOVZ	R0, 0x9c            	MOVZ	R0, r0x1023
000d89   9f70     MOV	R7, #0x70            	TRAPPC1	__h16udiv8
000d8a   5f73     MOV	0x73, R7             	TRAPPC2	__h16udiv8
000d8b   e070     MOVP	#0x70               	PAGESEL	__h16udiv8
000d8c   d046     CALL	#0x46               	CALL	__h16udiv8
000d8d   9f0d     MOV	R7, #0xd             	TRAPPC1	$+2
000d8e   5f73     MOV	0x73, R7             	TRAPPC2	$+1
000d8f   e00d     MOVP	#0x0D               	PAGESEL	$
000d90   e100     MOVB	#0x00               	BANKSEL	r0x1023
000d91   519c     MOV	0x9c, R0             	MOV	r0x1023, R0
                                           	BANKSEL	STK00
000d92   0ed2     MOVZ	R0, 0xd2            	MOVZ	R0, STK00
                                           	BANKSEL	r0x1024
000d93   519d     MOV	0x9d, R0             	MOV	r0x1024, R0
                                           	BANKSEL	_huxi_c
000d94   518d     MOV	0x8d, R0             	MOV	_huxi_c, R0
000d95   9833     MOV	R0, #0x33            	MOV	R0,# 0x33
                                           	BANKSEL	_huxi_c
000d96   388d     SUB	R0, 0x8d             	SUB	R0, _huxi_c
000d97   7003     JNB	0x3, 0               	JNB	PSW, 0
000d98   cdc1     JMP	#0xdc1               	JMP	_00108_DS_
000d99   9805     MOV	R0, #0x5             	MOV	R0,# 0x05
                                           	BANKSEL	STK00
000d9a   51d2     MOV	0xd2, R0             	MOV	STK00, R0
                                           	BANKSEL	_huxi_c
000d9b   0e8d     MOVZ	R0, 0x8d            	MOVZ	R0, _huxi_c
000d9c   9f70     MOV	R7, #0x70            	TRAPPC1	__hmulchar
000d9d   5f73     MOV	0x73, R7             	TRAPPC2	__hmulchar
000d9e   e070     MOVP	#0x70               	PAGESEL	__hmulchar
000d9f   d07a     CALL	#0x7a               	CALL	__hmulchar
000da0   9f0d     MOV	R7, #0xd             	TRAPPC1	$+2
000da1   5f73     MOV	0x73, R7             	TRAPPC2	$+1
000da2   e00d     MOVP	#0x0D               	PAGESEL	$
000da3   e100     MOVB	#0x00               	BANKSEL	r0x1024
000da4   519d     MOV	0x9d, R0             	MOV	r0x1024, R0
                                           	BANKSEL	r0x1024
000da5   0e9d     MOVZ	R0, 0x9d            	MOVZ	R0, r0x1024
000da6   a0fa     SUB	R0, #0xfa            	SUB	R0,# 0xfa
                                           	BANKSEL	r0x1024
000da7   519d     MOV	0x9d, R0             	MOV	r0x1024, R0
                                           	BANKSEL	r0x1024
000da8   0e9d     MOVZ	R0, 0x9d            	MOVZ	R0, r0x1024
                                           	BANKSEL	STK01
000da9   51d1     MOV	0xd1, R0             	MOV	STK01, R0
000daa   981f     MOV	R0, #0x1f            	MOV	R0,# 0x1f
                                           	BANKSEL	STK00
000dab   51d2     MOV	0xd2, R0             	MOV	STK00, R0
000dac   9801     MOV	R0, #0x1             	MOV	R0,# 0x01
000dad   9f0e     MOV	R7, #0xe             	TRAPPC1	_SPI_Write_1Byte
000dae   5f73     MOV	0x73, R7             	TRAPPC2	_SPI_Write_1Byte
000daf   e00e     MOVP	#0x0E               	PAGESEL	_SPI_Write_1Byte
000db0   dee1     CALL	#0xee1              	CALL	_SPI_Write_1Byte
000db1   9f0d     MOV	R7, #0xd             	TRAPPC1	$+2
000db2   5f73     MOV	0x73, R7             	TRAPPC2	$+1
000db3   e00d     MOVP	#0x0D               	PAGESEL	$
000db4   9800     MOV	R0, #0               	MOV	R0,# 0x00
000db5   e100     MOVB	#0x00               	BANKSEL	STK01
000db6   51d1     MOV	0xd1, R0             	MOV	STK01, R0
000db7   9837     MOV	R0, #0x37            	MOV	R0,# 0x37
                                           	BANKSEL	STK00
000db8   51d2     MOV	0xd2, R0             	MOV	STK00, R0
000db9   9801     MOV	R0, #0x1             	MOV	R0,# 0x01
000dba   9f0e     MOV	R7, #0xe             	TRAPPC1	_SPI_Write_1Byte
000dbb   5f73     MOV	0x73, R7             	TRAPPC2	_SPI_Write_1Byte
000dbc   e00e     MOVP	#0x0E               	PAGESEL	_SPI_Write_1Byte
000dbd   dee1     CALL	#0xee1              	CALL	_SPI_Write_1Byte
000dbe   9f0d     MOV	R7, #0xd             	TRAPPC1	$+2
000dbf   5f73     MOV	0x73, R7             	TRAPPC2	$+1
000dc0   e00d     MOVP	#0x0D               	PAGESEL	$
                                           _00108_DS_
000dc1   0008     CRET                     	CRET	
                                           func._Huxi	.code
                                           _Huxi	;Function start
000dc2   e100     MOVB	#0x00               	BANKSEL	r0x101B
000dc3   51a2     MOV	0xa2, R0             	MOV	r0x101B, R0
                                           	BANKSEL	STK00
000dc4   0ed2     MOVZ	R0, 0xd2            	MOVZ	R0, STK00
                                           	BANKSEL	r0x101C
000dc5   51a3     MOV	0xa3, R0             	MOV	r0x101C, R0
000dc6   9814     MOV	R0, #0x14            	MOV	R0,# 0x14
                                           	BANKSEL	STK01
000dc7   51d1     MOV	0xd1, R0             	MOV	STK01, R0
                                           	BANKSEL	r0x101C
000dc8   0ea3     MOVZ	R0, 0xa3            	MOVZ	R0, r0x101C
                                           	BANKSEL	STK00
000dc9   51d2     MOV	0xd2, R0             	MOV	STK00, R0
                                           	BANKSEL	r0x101B
000dca   0ea2     MOVZ	R0, 0xa2            	MOVZ	R0, r0x101B
000dcb   9f70     MOV	R7, #0x70            	TRAPPC1	__h16udiv8
000dcc   5f73     MOV	0x73, R7             	TRAPPC2	__h16udiv8
000dcd   e070     MOVP	#0x70               	PAGESEL	__h16udiv8
000dce   d046     CALL	#0x46               	CALL	__h16udiv8
000dcf   9f0d     MOV	R7, #0xd             	TRAPPC1	$+2
000dd0   5f73     MOV	0x73, R7             	TRAPPC2	$+1
000dd1   e00d     MOVP	#0x0D               	PAGESEL	$
000dd2   e100     MOVB	#0x00               	BANKSEL	r0x101D
000dd3   51a0     MOV	0xa0, R0             	MOV	r0x101D, R0
                                           	BANKSEL	STK00
000dd4   0ed2     MOVZ	R0, 0xd2            	MOVZ	R0, STK00
                                           	BANKSEL	r0x101E
000dd5   51a1     MOV	0xa1, R0             	MOV	r0x101E, R0
                                           	BANKSEL	_huxi_c
000dd6   0e8d     MOVZ	R0, 0x8d            	MOVZ	R0, _huxi_c
                                           	BANKSEL	r0x101F
000dd7   519f     MOV	0x9f, R0             	MOV	r0x101F, R0
                                           	BANKSEL	r0x1020
000dd8   039e     CLR	0x9e                 	CLR	r0x1020
                                           	BANKSEL	r0x101E
000dd9   0ea1     MOVZ	R0, 0xa1            	MOVZ	R0, r0x101E
                                           	BANKSEL	r0x101F
000dda   189f     XOR	R0, 0x9f             	XOR	R0, r0x101F
000ddb   7a03     JB	0x3, 2                	JB	PSW, 2
000ddc   cde1     JMP	#0xde1               	JMP	_00102_DS_
                                           	BANKSEL	r0x101D
000ddd   0ea0     MOVZ	R0, 0xa0            	MOVZ	R0, r0x101D
                                           	BANKSEL	r0x1020
000dde   189e     XOR	R0, 0x9e             	XOR	R0, r0x1020
000ddf   7203     JNB	0x3, 2               	JNB	PSW, 2
000de0   ce1b     JMP	#0xe1b               	JMP	_00098_DS_
                                           _00102_DS_
000de1   9814     MOV	R0, #0x14            	MOV	R0,# 0x14
                                           	BANKSEL	STK01
000de2   51d1     MOV	0xd1, R0             	MOV	STK01, R0
                                           	BANKSEL	r0x101C
000de3   0ea3     MOVZ	R0, 0xa3            	MOVZ	R0, r0x101C
                                           	BANKSEL	STK00
000de4   51d2     MOV	0xd2, R0             	MOV	STK00, R0
                                           	BANKSEL	r0x101B
000de5   0ea2     MOVZ	R0, 0xa2            	MOVZ	R0, r0x101B
000de6   9f70     MOV	R7, #0x70            	TRAPPC1	__h16udiv8
000de7   5f73     MOV	0x73, R7             	TRAPPC2	__h16udiv8
000de8   e070     MOVP	#0x70               	PAGESEL	__h16udiv8
000de9   d046     CALL	#0x46               	CALL	__h16udiv8
000dea   9f0d     MOV	R7, #0xd             	TRAPPC1	$+2
000deb   5f73     MOV	0x73, R7             	TRAPPC2	$+1
000dec   e00d     MOVP	#0x0D               	PAGESEL	$
000ded   e100     MOVB	#0x00               	BANKSEL	r0x101B
000dee   51a2     MOV	0xa2, R0             	MOV	r0x101B, R0
                                           	BANKSEL	STK00
000def   0ed2     MOVZ	R0, 0xd2            	MOVZ	R0, STK00
                                           	BANKSEL	r0x101C
000df0   51a3     MOV	0xa3, R0             	MOV	r0x101C, R0
                                           	BANKSEL	_huxi_c
000df1   518d     MOV	0x8d, R0             	MOV	_huxi_c, R0
000df2   9833     MOV	R0, #0x33            	MOV	R0,# 0x33
                                           	BANKSEL	_huxi_c
000df3   388d     SUB	R0, 0x8d             	SUB	R0, _huxi_c
000df4   7003     JNB	0x3, 0               	JNB	PSW, 0
000df5   ce1b     JMP	#0xe1b               	JMP	_00098_DS_
000df6   9805     MOV	R0, #0x5             	MOV	R0,# 0x05
                                           	BANKSEL	STK00
000df7   51d2     MOV	0xd2, R0             	MOV	STK00, R0
                                           	BANKSEL	_huxi_c
000df8   0e8d     MOVZ	R0, 0x8d            	MOVZ	R0, _huxi_c
000df9   9f70     MOV	R7, #0x70            	TRAPPC1	__hmulchar
000dfa   5f73     MOV	0x73, R7             	TRAPPC2	__hmulchar
000dfb   e070     MOVP	#0x70               	PAGESEL	__hmulchar
000dfc   d07a     CALL	#0x7a               	CALL	__hmulchar
000dfd   9f0d     MOV	R7, #0xd             	TRAPPC1	$+2
000dfe   5f73     MOV	0x73, R7             	TRAPPC2	$+1
000dff   e00d     MOVP	#0x0D               	PAGESEL	$
000e00   e100     MOVB	#0x00               	BANKSEL	r0x101C
000e01   51a3     MOV	0xa3, R0             	MOV	r0x101C, R0
                                           	BANKSEL	r0x101C
000e02   0ea3     MOVZ	R0, 0xa3            	MOVZ	R0, r0x101C
                                           	BANKSEL	STK01
000e03   51d1     MOV	0xd1, R0             	MOV	STK01, R0
000e04   981f     MOV	R0, #0x1f            	MOV	R0,# 0x1f
                                           	BANKSEL	STK00
000e05   51d2     MOV	0xd2, R0             	MOV	STK00, R0
000e06   9801     MOV	R0, #0x1             	MOV	R0,# 0x01
000e07   9f0e     MOV	R7, #0xe             	TRAPPC1	_SPI_Write_1Byte
000e08   5f73     MOV	0x73, R7             	TRAPPC2	_SPI_Write_1Byte
000e09   e00e     MOVP	#0x0E               	PAGESEL	_SPI_Write_1Byte
000e0a   dee1     CALL	#0xee1              	CALL	_SPI_Write_1Byte
000e0b   9f0e     MOV	R7, #0xe             	TRAPPC1	$+2
000e0c   5f73     MOV	0x73, R7             	TRAPPC2	$+1
000e0d   e00e     MOVP	#0x0E               	PAGESEL	$
000e0e   9800     MOV	R0, #0               	MOV	R0,# 0x00
000e0f   e100     MOVB	#0x00               	BANKSEL	STK01
000e10   51d1     MOV	0xd1, R0             	MOV	STK01, R0
000e11   9837     MOV	R0, #0x37            	MOV	R0,# 0x37
                                           	BANKSEL	STK00
000e12   51d2     MOV	0xd2, R0             	MOV	STK00, R0
000e13   9801     MOV	R0, #0x1             	MOV	R0,# 0x01
000e14   9f0e     MOV	R7, #0xe             	TRAPPC1	_SPI_Write_1Byte
000e15   5f73     MOV	0x73, R7             	TRAPPC2	_SPI_Write_1Byte
000e16   e00e     MOVP	#0x0E               	PAGESEL	_SPI_Write_1Byte
000e17   dee1     CALL	#0xee1              	CALL	_SPI_Write_1Byte
000e18   9f0e     MOV	R7, #0xe             	TRAPPC1	$+2
000e19   5f73     MOV	0x73, R7             	TRAPPC2	$+1
000e1a   e00e     MOVP	#0x0E               	PAGESEL	$
                                           _00098_DS_
000e1b   0008     CRET                     	CRET	
                                           func._All_stop_off	.code
                                           _All_stop_off	;Function start
00705a   e100     MOVB	#0x00               	BANKSEL	_P2LR_bits
00705b   6346     CLR	0x46, 3              	CLR	_P2LR_bits, 3
                                           	BANKSEL	_P2LR_bits
00705c   6446     CLR	0x46, 4              	CLR	_P2LR_bits, 4
                                           	BANKSEL	_P2LR_bits
00705d   6046     CLR	0x46, 0              	CLR	_P2LR_bits, 0
                                           	BANKSEL	_P2LR_bits
00705e   6146     CLR	0x46, 1              	CLR	_P2LR_bits, 1
00705f   e101     MOVB	#0x01               	BANKSEL	_P6LR_bits
007060   6146     CLR	0x46, 1              	CLR	_P6LR_bits, 1
                                           	BANKSEL	_P6LR_bits
007061   6346     CLR	0x46, 3              	CLR	_P6LR_bits, 3
                                           	BANKSEL	_P6LR_bits
007062   6546     CLR	0x46, 5              	CLR	_P6LR_bits, 5
                                           	BANKSEL	_P6LR_bits
007063   6646     CLR	0x46, 6              	CLR	_P6LR_bits, 6
                                           	BANKSEL	_P9LR_bits
007064   6549     CLR	0x49, 5              	CLR	_P9LR_bits, 5
                                           	BANKSEL	_P9LR_bits
007065   6449     CLR	0x49, 4              	CLR	_P9LR_bits, 4
007066   e100     MOVB	#0x00               	BANKSEL	_P4LR_bits
007067   6349     CLR	0x49, 3              	CLR	_P4LR_bits, 3
                                           	BANKSEL	_P4LR_bits
007068   6549     CLR	0x49, 5              	CLR	_P4LR_bits, 5
007069   0008     CRET                     	CRET	
                                           func._All_stop_on	.code
                                           _All_stop_on	;Function start
00706a   e100     MOVB	#0x00               	BANKSEL	_P2LR_bits
00706b   6b46     SET	0x46, 3              	SET	_P2LR_bits, 3
                                           	BANKSEL	_P2LR_bits
00706c   6c46     SET	0x46, 4              	SET	_P2LR_bits, 4
                                           	BANKSEL	_P2LR_bits
00706d   6846     SET	0x46, 0              	SET	_P2LR_bits, 0
                                           	BANKSEL	_P2LR_bits
00706e   6946     SET	0x46, 1              	SET	_P2LR_bits, 1
00706f   e101     MOVB	#0x01               	BANKSEL	_P6LR_bits
007070   6946     SET	0x46, 1              	SET	_P6LR_bits, 1
                                           	BANKSEL	_P6LR_bits
007071   6b46     SET	0x46, 3              	SET	_P6LR_bits, 3
                                           	BANKSEL	_P6LR_bits
007072   6d46     SET	0x46, 5              	SET	_P6LR_bits, 5
                                           	BANKSEL	_P6LR_bits
007073   6e46     SET	0x46, 6              	SET	_P6LR_bits, 6
                                           	BANKSEL	_P9LR_bits
007074   6d49     SET	0x49, 5              	SET	_P9LR_bits, 5
                                           	BANKSEL	_P9LR_bits
007075   6c49     SET	0x49, 4              	SET	_P9LR_bits, 4
007076   e100     MOVB	#0x00               	BANKSEL	_P4LR_bits
007077   6b49     SET	0x49, 3              	SET	_P4LR_bits, 3
                                           	BANKSEL	_P4LR_bits
007078   6d49     SET	0x49, 5              	SET	_P4LR_bits, 5
007079   0008     CRET                     	CRET	
                                           func._Reflash_rt_flow	.code
                                           _Reflash_rt_flow	;Function start
000010   e100     MOVB	#0x00               	BANKSEL	r0x102B
000011   51a4     MOV	0xa4, R0             	MOV	r0x102B, R0
                                           	BANKSEL	STK00
000012   0ed2     MOVZ	R0, 0xd2            	MOVZ	R0, STK00
                                           	BANKSEL	r0x102C
000013   51a5     MOV	0xa5, R0             	MOV	r0x102C, R0
                                           	BANKSEL	r0x102C
000014   78a5     JB	0xa5, 0               	JB	r0x102C, 0
000015   c04a     JMP	#0x4a                	JMP	_00074_DS_
000016   98ff     MOV	R0, #0xff            	MOV	R0,# 0xff
                                           	BANKSEL	STK01
000017   51d1     MOV	0xd1, R0             	MOV	STK01, R0
000018   981f     MOV	R0, #0x1f            	MOV	R0,# 0x1f
                                           	BANKSEL	STK00
000019   51d2     MOV	0xd2, R0             	MOV	STK00, R0
00001a   9808     MOV	R0, #0x8             	MOV	R0,# 0x08
00001b   9f0e     MOV	R7, #0xe             	TRAPPC1	_SPI_Write_1Byte
00001c   5f73     MOV	0x73, R7             	TRAPPC2	_SPI_Write_1Byte
00001d   e00e     MOVP	#0x0E               	PAGESEL	_SPI_Write_1Byte
00001e   dee1     CALL	#0xee1              	CALL	_SPI_Write_1Byte
00001f   9f00     MOV	R7, #0               	TRAPPC1	$+2
000020   5f73     MOV	0x73, R7             	TRAPPC2	$+1
000021   e000     MOVP	#0x00               	PAGESEL	$
000022   98ff     MOV	R0, #0xff            	MOV	R0,# 0xff
000023   e100     MOVB	#0x00               	BANKSEL	STK01
000024   51d1     MOV	0xd1, R0             	MOV	STK01, R0
000025   9820     MOV	R0, #0x20            	MOV	R0,# 0x20
                                           	BANKSEL	STK00
000026   51d2     MOV	0xd2, R0             	MOV	STK00, R0
000027   9808     MOV	R0, #0x8             	MOV	R0,# 0x08
000028   9f0e     MOV	R7, #0xe             	TRAPPC1	_SPI_Write_1Byte
000029   5f73     MOV	0x73, R7             	TRAPPC2	_SPI_Write_1Byte
00002a   e00e     MOVP	#0x0E               	PAGESEL	_SPI_Write_1Byte
00002b   dee1     CALL	#0xee1              	CALL	_SPI_Write_1Byte
00002c   9f00     MOV	R7, #0               	TRAPPC1	$+2
00002d   5f73     MOV	0x73, R7             	TRAPPC2	$+1
00002e   e000     MOVP	#0x00               	PAGESEL	$
00002f   98ff     MOV	R0, #0xff            	MOV	R0,# 0xff
000030   e100     MOVB	#0x00               	BANKSEL	STK01
000031   51d1     MOV	0xd1, R0             	MOV	STK01, R0
000032   9821     MOV	R0, #0x21            	MOV	R0,# 0x21
                                           	BANKSEL	STK00
000033   51d2     MOV	0xd2, R0             	MOV	STK00, R0
000034   9808     MOV	R0, #0x8             	MOV	R0,# 0x08
000035   9f0e     MOV	R7, #0xe             	TRAPPC1	_SPI_Write_1Byte
000036   5f73     MOV	0x73, R7             	TRAPPC2	_SPI_Write_1Byte
000037   e00e     MOVP	#0x0E               	PAGESEL	_SPI_Write_1Byte
000038   dee1     CALL	#0xee1              	CALL	_SPI_Write_1Byte
000039   9f00     MOV	R7, #0               	TRAPPC1	$+2
00003a   5f73     MOV	0x73, R7             	TRAPPC2	$+1
00003b   e000     MOVP	#0x00               	PAGESEL	$
00003c   9800     MOV	R0, #0               	MOV	R0,# 0x00
00003d   e100     MOVB	#0x00               	BANKSEL	STK01
00003e   51d1     MOV	0xd1, R0             	MOV	STK01, R0
00003f   9837     MOV	R0, #0x37            	MOV	R0,# 0x37
                                           	BANKSEL	STK00
000040   51d2     MOV	0xd2, R0             	MOV	STK00, R0
000041   980c     MOV	R0, #0xc             	MOV	R0,# 0x0c
000042   9f0e     MOV	R7, #0xe             	TRAPPC1	_SPI_Write_1Byte
000043   5f73     MOV	0x73, R7             	TRAPPC2	_SPI_Write_1Byte
000044   e00e     MOVP	#0x0E               	PAGESEL	_SPI_Write_1Byte
000045   dee1     CALL	#0xee1              	CALL	_SPI_Write_1Byte
000046   9f00     MOV	R7, #0               	TRAPPC1	$+2
000047   5f73     MOV	0x73, R7             	TRAPPC2	$+1
000048   e000     MOVP	#0x00               	PAGESEL	$
000049   c271     JMP	#0x271               	JMP	_00076_DS_
                                           _00074_DS_
                                           	BANKSEL	r0x102C
00004a   79a5     JB	0xa5, 1               	JB	r0x102C, 1
00004b   c080     JMP	#0x80                	JMP	_00071_DS_
00004c   98ff     MOV	R0, #0xff            	MOV	R0,# 0xff
                                           	BANKSEL	STK01
00004d   51d1     MOV	0xd1, R0             	MOV	STK01, R0
00004e   9822     MOV	R0, #0x22            	MOV	R0,# 0x22
                                           	BANKSEL	STK00
00004f   51d2     MOV	0xd2, R0             	MOV	STK00, R0
000050   9808     MOV	R0, #0x8             	MOV	R0,# 0x08
000051   9f0e     MOV	R7, #0xe             	TRAPPC1	_SPI_Write_1Byte
000052   5f73     MOV	0x73, R7             	TRAPPC2	_SPI_Write_1Byte
000053   e00e     MOVP	#0x0E               	PAGESEL	_SPI_Write_1Byte
000054   dee1     CALL	#0xee1              	CALL	_SPI_Write_1Byte
000055   9f00     MOV	R7, #0               	TRAPPC1	$+2
000056   5f73     MOV	0x73, R7             	TRAPPC2	$+1
000057   e000     MOVP	#0x00               	PAGESEL	$
000058   98ff     MOV	R0, #0xff            	MOV	R0,# 0xff
000059   e100     MOVB	#0x00               	BANKSEL	STK01
00005a   51d1     MOV	0xd1, R0             	MOV	STK01, R0
00005b   9823     MOV	R0, #0x23            	MOV	R0,# 0x23
                                           	BANKSEL	STK00
00005c   51d2     MOV	0xd2, R0             	MOV	STK00, R0
00005d   9808     MOV	R0, #0x8             	MOV	R0,# 0x08
00005e   9f0e     MOV	R7, #0xe             	TRAPPC1	_SPI_Write_1Byte
00005f   5f73     MOV	0x73, R7             	TRAPPC2	_SPI_Write_1Byte
000060   e00e     MOVP	#0x0E               	PAGESEL	_SPI_Write_1Byte
000061   dee1     CALL	#0xee1              	CALL	_SPI_Write_1Byte
000062   9f00     MOV	R7, #0               	TRAPPC1	$+2
000063   5f73     MOV	0x73, R7             	TRAPPC2	$+1
000064   e000     MOVP	#0x00               	PAGESEL	$
000065   98ff     MOV	R0, #0xff            	MOV	R0,# 0xff
000066   e100     MOVB	#0x00               	BANKSEL	STK01
000067   51d1     MOV	0xd1, R0             	MOV	STK01, R0
000068   9824     MOV	R0, #0x24            	MOV	R0,# 0x24
                                           	BANKSEL	STK00
000069   51d2     MOV	0xd2, R0             	MOV	STK00, R0
00006a   9808     MOV	R0, #0x8             	MOV	R0,# 0x08
00006b   9f0e     MOV	R7, #0xe             	TRAPPC1	_SPI_Write_1Byte
00006c   5f73     MOV	0x73, R7             	TRAPPC2	_SPI_Write_1Byte
00006d   e00e     MOVP	#0x0E               	PAGESEL	_SPI_Write_1Byte
00006e   dee1     CALL	#0xee1              	CALL	_SPI_Write_1Byte
00006f   9f00     MOV	R7, #0               	TRAPPC1	$+2
000070   5f73     MOV	0x73, R7             	TRAPPC2	$+1
000071   e000     MOVP	#0x00               	PAGESEL	$
000072   9800     MOV	R0, #0               	MOV	R0,# 0x00
000073   e100     MOVB	#0x00               	BANKSEL	STK01
000074   51d1     MOV	0xd1, R0             	MOV	STK01, R0
000075   9837     MOV	R0, #0x37            	MOV	R0,# 0x37
                                           	BANKSEL	STK00
000076   51d2     MOV	0xd2, R0             	MOV	STK00, R0
000077   980c     MOV	R0, #0xc             	MOV	R0,# 0x0c
000078   9f0e     MOV	R7, #0xe             	TRAPPC1	_SPI_Write_1Byte
000079   5f73     MOV	0x73, R7             	TRAPPC2	_SPI_Write_1Byte
00007a   e00e     MOVP	#0x0E               	PAGESEL	_SPI_Write_1Byte
00007b   dee1     CALL	#0xee1              	CALL	_SPI_Write_1Byte
00007c   9f00     MOV	R7, #0               	TRAPPC1	$+2
00007d   5f73     MOV	0x73, R7             	TRAPPC2	$+1
00007e   e000     MOVP	#0x00               	PAGESEL	$
00007f   c271     JMP	#0x271               	JMP	_00076_DS_
                                           _00071_DS_
                                           	BANKSEL	r0x102C
000080   7aa5     JB	0xa5, 2               	JB	r0x102C, 2
000081   c0b6     JMP	#0xb6                	JMP	_00068_DS_
000082   98ff     MOV	R0, #0xff            	MOV	R0,# 0xff
                                           	BANKSEL	STK01
000083   51d1     MOV	0xd1, R0             	MOV	STK01, R0
000084   9825     MOV	R0, #0x25            	MOV	R0,# 0x25
                                           	BANKSEL	STK00
000085   51d2     MOV	0xd2, R0             	MOV	STK00, R0
000086   9808     MOV	R0, #0x8             	MOV	R0,# 0x08
000087   9f0e     MOV	R7, #0xe             	TRAPPC1	_SPI_Write_1Byte
000088   5f73     MOV	0x73, R7             	TRAPPC2	_SPI_Write_1Byte
000089   e00e     MOVP	#0x0E               	PAGESEL	_SPI_Write_1Byte
00008a   dee1     CALL	#0xee1              	CALL	_SPI_Write_1Byte
00008b   9f00     MOV	R7, #0               	TRAPPC1	$+2
00008c   5f73     MOV	0x73, R7             	TRAPPC2	$+1
00008d   e000     MOVP	#0x00               	PAGESEL	$
00008e   98ff     MOV	R0, #0xff            	MOV	R0,# 0xff
00008f   e100     MOVB	#0x00               	BANKSEL	STK01
000090   51d1     MOV	0xd1, R0             	MOV	STK01, R0
000091   9826     MOV	R0, #0x26            	MOV	R0,# 0x26
                                           	BANKSEL	STK00
000092   51d2     MOV	0xd2, R0             	MOV	STK00, R0
000093   9808     MOV	R0, #0x8             	MOV	R0,# 0x08
000094   9f0e     MOV	R7, #0xe             	TRAPPC1	_SPI_Write_1Byte
000095   5f73     MOV	0x73, R7             	TRAPPC2	_SPI_Write_1Byte
000096   e00e     MOVP	#0x0E               	PAGESEL	_SPI_Write_1Byte
000097   dee1     CALL	#0xee1              	CALL	_SPI_Write_1Byte
000098   9f00     MOV	R7, #0               	TRAPPC1	$+2
000099   5f73     MOV	0x73, R7             	TRAPPC2	$+1
00009a   e000     MOVP	#0x00               	PAGESEL	$
00009b   98ff     MOV	R0, #0xff            	MOV	R0,# 0xff
00009c   e100     MOVB	#0x00               	BANKSEL	STK01
00009d   51d1     MOV	0xd1, R0             	MOV	STK01, R0
00009e   9827     MOV	R0, #0x27            	MOV	R0,# 0x27
                                           	BANKSEL	STK00
00009f   51d2     MOV	0xd2, R0             	MOV	STK00, R0
0000a0   9808     MOV	R0, #0x8             	MOV	R0,# 0x08
0000a1   9f0e     MOV	R7, #0xe             	TRAPPC1	_SPI_Write_1Byte
0000a2   5f73     MOV	0x73, R7             	TRAPPC2	_SPI_Write_1Byte
0000a3   e00e     MOVP	#0x0E               	PAGESEL	_SPI_Write_1Byte
0000a4   dee1     CALL	#0xee1              	CALL	_SPI_Write_1Byte
0000a5   9f00     MOV	R7, #0               	TRAPPC1	$+2
0000a6   5f73     MOV	0x73, R7             	TRAPPC2	$+1
0000a7   e000     MOVP	#0x00               	PAGESEL	$
0000a8   9800     MOV	R0, #0               	MOV	R0,# 0x00
0000a9   e100     MOVB	#0x00               	BANKSEL	STK01
0000aa   51d1     MOV	0xd1, R0             	MOV	STK01, R0
0000ab   9837     MOV	R0, #0x37            	MOV	R0,# 0x37
                                           	BANKSEL	STK00
0000ac   51d2     MOV	0xd2, R0             	MOV	STK00, R0
0000ad   980c     MOV	R0, #0xc             	MOV	R0,# 0x0c
0000ae   9f0e     MOV	R7, #0xe             	TRAPPC1	_SPI_Write_1Byte
0000af   5f73     MOV	0x73, R7             	TRAPPC2	_SPI_Write_1Byte
0000b0   e00e     MOVP	#0x0E               	PAGESEL	_SPI_Write_1Byte
0000b1   dee1     CALL	#0xee1              	CALL	_SPI_Write_1Byte
0000b2   9f00     MOV	R7, #0               	TRAPPC1	$+2
0000b3   5f73     MOV	0x73, R7             	TRAPPC2	$+1
0000b4   e000     MOVP	#0x00               	PAGESEL	$
0000b5   c271     JMP	#0x271               	JMP	_00076_DS_
                                           _00068_DS_
                                           	BANKSEL	r0x102C
0000b6   7ba5     JB	0xa5, 3               	JB	r0x102C, 3
0000b7   c0ec     JMP	#0xec                	JMP	_00065_DS_
0000b8   98ff     MOV	R0, #0xff            	MOV	R0,# 0xff
                                           	BANKSEL	STK01
0000b9   51d1     MOV	0xd1, R0             	MOV	STK01, R0
0000ba   9828     MOV	R0, #0x28            	MOV	R0,# 0x28
                                           	BANKSEL	STK00
0000bb   51d2     MOV	0xd2, R0             	MOV	STK00, R0
0000bc   9808     MOV	R0, #0x8             	MOV	R0,# 0x08
0000bd   9f0e     MOV	R7, #0xe             	TRAPPC1	_SPI_Write_1Byte
0000be   5f73     MOV	0x73, R7             	TRAPPC2	_SPI_Write_1Byte
0000bf   e00e     MOVP	#0x0E               	PAGESEL	_SPI_Write_1Byte
0000c0   dee1     CALL	#0xee1              	CALL	_SPI_Write_1Byte
0000c1   9f00     MOV	R7, #0               	TRAPPC1	$+2
0000c2   5f73     MOV	0x73, R7             	TRAPPC2	$+1
0000c3   e000     MOVP	#0x00               	PAGESEL	$
0000c4   98ff     MOV	R0, #0xff            	MOV	R0,# 0xff
0000c5   e100     MOVB	#0x00               	BANKSEL	STK01
0000c6   51d1     MOV	0xd1, R0             	MOV	STK01, R0
0000c7   9829     MOV	R0, #0x29            	MOV	R0,# 0x29
                                           	BANKSEL	STK00
0000c8   51d2     MOV	0xd2, R0             	MOV	STK00, R0
0000c9   9808     MOV	R0, #0x8             	MOV	R0,# 0x08
0000ca   9f0e     MOV	R7, #0xe             	TRAPPC1	_SPI_Write_1Byte
0000cb   5f73     MOV	0x73, R7             	TRAPPC2	_SPI_Write_1Byte
0000cc   e00e     MOVP	#0x0E               	PAGESEL	_SPI_Write_1Byte
0000cd   dee1     CALL	#0xee1              	CALL	_SPI_Write_1Byte
0000ce   9f00     MOV	R7, #0               	TRAPPC1	$+2
0000cf   5f73     MOV	0x73, R7             	TRAPPC2	$+1
0000d0   e000     MOVP	#0x00               	PAGESEL	$
0000d1   98ff     MOV	R0, #0xff            	MOV	R0,# 0xff
0000d2   e100     MOVB	#0x00               	BANKSEL	STK01
0000d3   51d1     MOV	0xd1, R0             	MOV	STK01, R0
0000d4   982a     MOV	R0, #0x2a            	MOV	R0,# 0x2a
                                           	BANKSEL	STK00
0000d5   51d2     MOV	0xd2, R0             	MOV	STK00, R0
0000d6   9808     MOV	R0, #0x8             	MOV	R0,# 0x08
0000d7   9f0e     MOV	R7, #0xe             	TRAPPC1	_SPI_Write_1Byte
0000d8   5f73     MOV	0x73, R7             	TRAPPC2	_SPI_Write_1Byte
0000d9   e00e     MOVP	#0x0E               	PAGESEL	_SPI_Write_1Byte
0000da   dee1     CALL	#0xee1              	CALL	_SPI_Write_1Byte
0000db   9f00     MOV	R7, #0               	TRAPPC1	$+2
0000dc   5f73     MOV	0x73, R7             	TRAPPC2	$+1
0000dd   e000     MOVP	#0x00               	PAGESEL	$
0000de   9800     MOV	R0, #0               	MOV	R0,# 0x00
0000df   e100     MOVB	#0x00               	BANKSEL	STK01
0000e0   51d1     MOV	0xd1, R0             	MOV	STK01, R0
0000e1   9837     MOV	R0, #0x37            	MOV	R0,# 0x37
                                           	BANKSEL	STK00
0000e2   51d2     MOV	0xd2, R0             	MOV	STK00, R0
0000e3   980c     MOV	R0, #0xc             	MOV	R0,# 0x0c
0000e4   9f0e     MOV	R7, #0xe             	TRAPPC1	_SPI_Write_1Byte
0000e5   5f73     MOV	0x73, R7             	TRAPPC2	_SPI_Write_1Byte
0000e6   e00e     MOVP	#0x0E               	PAGESEL	_SPI_Write_1Byte
0000e7   dee1     CALL	#0xee1              	CALL	_SPI_Write_1Byte
0000e8   9f00     MOV	R7, #0               	TRAPPC1	$+2
0000e9   5f73     MOV	0x73, R7             	TRAPPC2	$+1
0000ea   e000     MOVP	#0x00               	PAGESEL	$
0000eb   c271     JMP	#0x271               	JMP	_00076_DS_
                                           _00065_DS_
                                           	BANKSEL	r0x102C
0000ec   7ca5     JB	0xa5, 4               	JB	r0x102C, 4
0000ed   c122     JMP	#0x122               	JMP	_00062_DS_
0000ee   98ff     MOV	R0, #0xff            	MOV	R0,# 0xff
                                           	BANKSEL	STK01
0000ef   51d1     MOV	0xd1, R0             	MOV	STK01, R0
0000f0   982b     MOV	R0, #0x2b            	MOV	R0,# 0x2b
                                           	BANKSEL	STK00
0000f1   51d2     MOV	0xd2, R0             	MOV	STK00, R0
0000f2   9808     MOV	R0, #0x8             	MOV	R0,# 0x08
0000f3   9f0e     MOV	R7, #0xe             	TRAPPC1	_SPI_Write_1Byte
0000f4   5f73     MOV	0x73, R7             	TRAPPC2	_SPI_Write_1Byte
0000f5   e00e     MOVP	#0x0E               	PAGESEL	_SPI_Write_1Byte
0000f6   dee1     CALL	#0xee1              	CALL	_SPI_Write_1Byte
0000f7   9f00     MOV	R7, #0               	TRAPPC1	$+2
0000f8   5f73     MOV	0x73, R7             	TRAPPC2	$+1
0000f9   e000     MOVP	#0x00               	PAGESEL	$
0000fa   98ff     MOV	R0, #0xff            	MOV	R0,# 0xff
0000fb   e100     MOVB	#0x00               	BANKSEL	STK01
0000fc   51d1     MOV	0xd1, R0             	MOV	STK01, R0
0000fd   982c     MOV	R0, #0x2c            	MOV	R0,# 0x2c
                                           	BANKSEL	STK00
0000fe   51d2     MOV	0xd2, R0             	MOV	STK00, R0
0000ff   9808     MOV	R0, #0x8             	MOV	R0,# 0x08
000100   9f0e     MOV	R7, #0xe             	TRAPPC1	_SPI_Write_1Byte
000101   5f73     MOV	0x73, R7             	TRAPPC2	_SPI_Write_1Byte
000102   e00e     MOVP	#0x0E               	PAGESEL	_SPI_Write_1Byte
000103   dee1     CALL	#0xee1              	CALL	_SPI_Write_1Byte
000104   9f01     MOV	R7, #0x1             	TRAPPC1	$+2
000105   5f73     MOV	0x73, R7             	TRAPPC2	$+1
000106   e001     MOVP	#0x01               	PAGESEL	$
000107   98ff     MOV	R0, #0xff            	MOV	R0,# 0xff
000108   e100     MOVB	#0x00               	BANKSEL	STK01
000109   51d1     MOV	0xd1, R0             	MOV	STK01, R0
00010a   982d     MOV	R0, #0x2d            	MOV	R0,# 0x2d
                                           	BANKSEL	STK00
00010b   51d2     MOV	0xd2, R0             	MOV	STK00, R0
00010c   9808     MOV	R0, #0x8             	MOV	R0,# 0x08
00010d   9f0e     MOV	R7, #0xe             	TRAPPC1	_SPI_Write_1Byte
00010e   5f73     MOV	0x73, R7             	TRAPPC2	_SPI_Write_1Byte
00010f   e00e     MOVP	#0x0E               	PAGESEL	_SPI_Write_1Byte
000110   dee1     CALL	#0xee1              	CALL	_SPI_Write_1Byte
000111   9f01     MOV	R7, #0x1             	TRAPPC1	$+2
000112   5f73     MOV	0x73, R7             	TRAPPC2	$+1
000113   e001     MOVP	#0x01               	PAGESEL	$
000114   9800     MOV	R0, #0               	MOV	R0,# 0x00
000115   e100     MOVB	#0x00               	BANKSEL	STK01
000116   51d1     MOV	0xd1, R0             	MOV	STK01, R0
000117   9837     MOV	R0, #0x37            	MOV	R0,# 0x37
                                           	BANKSEL	STK00
000118   51d2     MOV	0xd2, R0             	MOV	STK00, R0
000119   980c     MOV	R0, #0xc             	MOV	R0,# 0x0c
00011a   9f0e     MOV	R7, #0xe             	TRAPPC1	_SPI_Write_1Byte
00011b   5f73     MOV	0x73, R7             	TRAPPC2	_SPI_Write_1Byte
00011c   e00e     MOVP	#0x0E               	PAGESEL	_SPI_Write_1Byte
00011d   dee1     CALL	#0xee1              	CALL	_SPI_Write_1Byte
00011e   9f01     MOV	R7, #0x1             	TRAPPC1	$+2
00011f   5f73     MOV	0x73, R7             	TRAPPC2	$+1
000120   e001     MOVP	#0x01               	PAGESEL	$
000121   c271     JMP	#0x271               	JMP	_00076_DS_
                                           _00062_DS_
                                           	BANKSEL	r0x102C
000122   7da5     JB	0xa5, 5               	JB	r0x102C, 5
000123   c158     JMP	#0x158               	JMP	_00059_DS_
000124   98ff     MOV	R0, #0xff            	MOV	R0,# 0xff
                                           	BANKSEL	STK01
000125   51d1     MOV	0xd1, R0             	MOV	STK01, R0
000126   981f     MOV	R0, #0x1f            	MOV	R0,# 0x1f
                                           	BANKSEL	STK00
000127   51d2     MOV	0xd2, R0             	MOV	STK00, R0
000128   9804     MOV	R0, #0x4             	MOV	R0,# 0x04
000129   9f0e     MOV	R7, #0xe             	TRAPPC1	_SPI_Write_1Byte
00012a   5f73     MOV	0x73, R7             	TRAPPC2	_SPI_Write_1Byte
00012b   e00e     MOVP	#0x0E               	PAGESEL	_SPI_Write_1Byte
00012c   dee1     CALL	#0xee1              	CALL	_SPI_Write_1Byte
00012d   9f01     MOV	R7, #0x1             	TRAPPC1	$+2
00012e   5f73     MOV	0x73, R7             	TRAPPC2	$+1
00012f   e001     MOVP	#0x01               	PAGESEL	$
000130   98ff     MOV	R0, #0xff            	MOV	R0,# 0xff
000131   e100     MOVB	#0x00               	BANKSEL	STK01
000132   51d1     MOV	0xd1, R0             	MOV	STK01, R0
000133   9820     MOV	R0, #0x20            	MOV	R0,# 0x20
                                           	BANKSEL	STK00
000134   51d2     MOV	0xd2, R0             	MOV	STK00, R0
000135   9804     MOV	R0, #0x4             	MOV	R0,# 0x04
000136   9f0e     MOV	R7, #0xe             	TRAPPC1	_SPI_Write_1Byte
000137   5f73     MOV	0x73, R7             	TRAPPC2	_SPI_Write_1Byte
000138   e00e     MOVP	#0x0E               	PAGESEL	_SPI_Write_1Byte
000139   dee1     CALL	#0xee1              	CALL	_SPI_Write_1Byte
00013a   9f01     MOV	R7, #0x1             	TRAPPC1	$+2
00013b   5f73     MOV	0x73, R7             	TRAPPC2	$+1
00013c   e001     MOVP	#0x01               	PAGESEL	$
00013d   98ff     MOV	R0, #0xff            	MOV	R0,# 0xff
00013e   e100     MOVB	#0x00               	BANKSEL	STK01
00013f   51d1     MOV	0xd1, R0             	MOV	STK01, R0
000140   9821     MOV	R0, #0x21            	MOV	R0,# 0x21
                                           	BANKSEL	STK00
000141   51d2     MOV	0xd2, R0             	MOV	STK00, R0
000142   9804     MOV	R0, #0x4             	MOV	R0,# 0x04
000143   9f0e     MOV	R7, #0xe             	TRAPPC1	_SPI_Write_1Byte
000144   5f73     MOV	0x73, R7             	TRAPPC2	_SPI_Write_1Byte
000145   e00e     MOVP	#0x0E               	PAGESEL	_SPI_Write_1Byte
000146   dee1     CALL	#0xee1              	CALL	_SPI_Write_1Byte
000147   9f01     MOV	R7, #0x1             	TRAPPC1	$+2
000148   5f73     MOV	0x73, R7             	TRAPPC2	$+1
000149   e001     MOVP	#0x01               	PAGESEL	$
00014a   9800     MOV	R0, #0               	MOV	R0,# 0x00
00014b   e100     MOVB	#0x00               	BANKSEL	STK01
00014c   51d1     MOV	0xd1, R0             	MOV	STK01, R0
00014d   9837     MOV	R0, #0x37            	MOV	R0,# 0x37
                                           	BANKSEL	STK00
00014e   51d2     MOV	0xd2, R0             	MOV	STK00, R0
00014f   980c     MOV	R0, #0xc             	MOV	R0,# 0x0c
000150   9f0e     MOV	R7, #0xe             	TRAPPC1	_SPI_Write_1Byte
000151   5f73     MOV	0x73, R7             	TRAPPC2	_SPI_Write_1Byte
000152   e00e     MOVP	#0x0E               	PAGESEL	_SPI_Write_1Byte
000153   dee1     CALL	#0xee1              	CALL	_SPI_Write_1Byte
000154   9f01     MOV	R7, #0x1             	TRAPPC1	$+2
000155   5f73     MOV	0x73, R7             	TRAPPC2	$+1
000156   e001     MOVP	#0x01               	PAGESEL	$
000157   c271     JMP	#0x271               	JMP	_00076_DS_
                                           _00059_DS_
                                           	BANKSEL	r0x102C
000158   7ea5     JB	0xa5, 6               	JB	r0x102C, 6
000159   c18e     JMP	#0x18e               	JMP	_00056_DS_
00015a   98ff     MOV	R0, #0xff            	MOV	R0,# 0xff
                                           	BANKSEL	STK01
00015b   51d1     MOV	0xd1, R0             	MOV	STK01, R0
00015c   9822     MOV	R0, #0x22            	MOV	R0,# 0x22
                                           	BANKSEL	STK00
00015d   51d2     MOV	0xd2, R0             	MOV	STK00, R0
00015e   9804     MOV	R0, #0x4             	MOV	R0,# 0x04
00015f   9f0e     MOV	R7, #0xe             	TRAPPC1	_SPI_Write_1Byte
000160   5f73     MOV	0x73, R7             	TRAPPC2	_SPI_Write_1Byte
000161   e00e     MOVP	#0x0E               	PAGESEL	_SPI_Write_1Byte
000162   dee1     CALL	#0xee1              	CALL	_SPI_Write_1Byte
000163   9f01     MOV	R7, #0x1             	TRAPPC1	$+2
000164   5f73     MOV	0x73, R7             	TRAPPC2	$+1
000165   e001     MOVP	#0x01               	PAGESEL	$
000166   98ff     MOV	R0, #0xff            	MOV	R0,# 0xff
000167   e100     MOVB	#0x00               	BANKSEL	STK01
000168   51d1     MOV	0xd1, R0             	MOV	STK01, R0
000169   9823     MOV	R0, #0x23            	MOV	R0,# 0x23
                                           	BANKSEL	STK00
00016a   51d2     MOV	0xd2, R0             	MOV	STK00, R0
00016b   9804     MOV	R0, #0x4             	MOV	R0,# 0x04
00016c   9f0e     MOV	R7, #0xe             	TRAPPC1	_SPI_Write_1Byte
00016d   5f73     MOV	0x73, R7             	TRAPPC2	_SPI_Write_1Byte
00016e   e00e     MOVP	#0x0E               	PAGESEL	_SPI_Write_1Byte
00016f   dee1     CALL	#0xee1              	CALL	_SPI_Write_1Byte
000170   9f01     MOV	R7, #0x1             	TRAPPC1	$+2
000171   5f73     MOV	0x73, R7             	TRAPPC2	$+1
000172   e001     MOVP	#0x01               	PAGESEL	$
000173   98ff     MOV	R0, #0xff            	MOV	R0,# 0xff
000174   e100     MOVB	#0x00               	BANKSEL	STK01
000175   51d1     MOV	0xd1, R0             	MOV	STK01, R0
000176   9824     MOV	R0, #0x24            	MOV	R0,# 0x24
                                           	BANKSEL	STK00
000177   51d2     MOV	0xd2, R0             	MOV	STK00, R0
000178   9804     MOV	R0, #0x4             	MOV	R0,# 0x04
000179   9f0e     MOV	R7, #0xe             	TRAPPC1	_SPI_Write_1Byte
00017a   5f73     MOV	0x73, R7             	TRAPPC2	_SPI_Write_1Byte
00017b   e00e     MOVP	#0x0E               	PAGESEL	_SPI_Write_1Byte
00017c   dee1     CALL	#0xee1              	CALL	_SPI_Write_1Byte
00017d   9f01     MOV	R7, #0x1             	TRAPPC1	$+2
00017e   5f73     MOV	0x73, R7             	TRAPPC2	$+1
00017f   e001     MOVP	#0x01               	PAGESEL	$
000180   9800     MOV	R0, #0               	MOV	R0,# 0x00
000181   e100     MOVB	#0x00               	BANKSEL	STK01
000182   51d1     MOV	0xd1, R0             	MOV	STK01, R0
000183   9837     MOV	R0, #0x37            	MOV	R0,# 0x37
                                           	BANKSEL	STK00
000184   51d2     MOV	0xd2, R0             	MOV	STK00, R0
000185   980c     MOV	R0, #0xc             	MOV	R0,# 0x0c
000186   9f0e     MOV	R7, #0xe             	TRAPPC1	_SPI_Write_1Byte
000187   5f73     MOV	0x73, R7             	TRAPPC2	_SPI_Write_1Byte
000188   e00e     MOVP	#0x0E               	PAGESEL	_SPI_Write_1Byte
000189   dee1     CALL	#0xee1              	CALL	_SPI_Write_1Byte
00018a   9f01     MOV	R7, #0x1             	TRAPPC1	$+2
00018b   5f73     MOV	0x73, R7             	TRAPPC2	$+1
00018c   e001     MOVP	#0x01               	PAGESEL	$
00018d   c271     JMP	#0x271               	JMP	_00076_DS_
                                           _00056_DS_
                                           	BANKSEL	r0x102C
00018e   7fa5     JB	0xa5, 7               	JB	r0x102C, 7
00018f   c1c4     JMP	#0x1c4               	JMP	_00053_DS_
000190   98ff     MOV	R0, #0xff            	MOV	R0,# 0xff
                                           	BANKSEL	STK01
000191   51d1     MOV	0xd1, R0             	MOV	STK01, R0
000192   9825     MOV	R0, #0x25            	MOV	R0,# 0x25
                                           	BANKSEL	STK00
000193   51d2     MOV	0xd2, R0             	MOV	STK00, R0
000194   9804     MOV	R0, #0x4             	MOV	R0,# 0x04
000195   9f0e     MOV	R7, #0xe             	TRAPPC1	_SPI_Write_1Byte
000196   5f73     MOV	0x73, R7             	TRAPPC2	_SPI_Write_1Byte
000197   e00e     MOVP	#0x0E               	PAGESEL	_SPI_Write_1Byte
000198   dee1     CALL	#0xee1              	CALL	_SPI_Write_1Byte
000199   9f01     MOV	R7, #0x1             	TRAPPC1	$+2
00019a   5f73     MOV	0x73, R7             	TRAPPC2	$+1
00019b   e001     MOVP	#0x01               	PAGESEL	$
00019c   98ff     MOV	R0, #0xff            	MOV	R0,# 0xff
00019d   e100     MOVB	#0x00               	BANKSEL	STK01
00019e   51d1     MOV	0xd1, R0             	MOV	STK01, R0
00019f   9826     MOV	R0, #0x26            	MOV	R0,# 0x26
                                           	BANKSEL	STK00
0001a0   51d2     MOV	0xd2, R0             	MOV	STK00, R0
0001a1   9804     MOV	R0, #0x4             	MOV	R0,# 0x04
0001a2   9f0e     MOV	R7, #0xe             	TRAPPC1	_SPI_Write_1Byte
0001a3   5f73     MOV	0x73, R7             	TRAPPC2	_SPI_Write_1Byte
0001a4   e00e     MOVP	#0x0E               	PAGESEL	_SPI_Write_1Byte
0001a5   dee1     CALL	#0xee1              	CALL	_SPI_Write_1Byte
0001a6   9f01     MOV	R7, #0x1             	TRAPPC1	$+2
0001a7   5f73     MOV	0x73, R7             	TRAPPC2	$+1
0001a8   e001     MOVP	#0x01               	PAGESEL	$
0001a9   98ff     MOV	R0, #0xff            	MOV	R0,# 0xff
0001aa   e100     MOVB	#0x00               	BANKSEL	STK01
0001ab   51d1     MOV	0xd1, R0             	MOV	STK01, R0
0001ac   9827     MOV	R0, #0x27            	MOV	R0,# 0x27
                                           	BANKSEL	STK00
0001ad   51d2     MOV	0xd2, R0             	MOV	STK00, R0
0001ae   9804     MOV	R0, #0x4             	MOV	R0,# 0x04
0001af   9f0e     MOV	R7, #0xe             	TRAPPC1	_SPI_Write_1Byte
0001b0   5f73     MOV	0x73, R7             	TRAPPC2	_SPI_Write_1Byte
0001b1   e00e     MOVP	#0x0E               	PAGESEL	_SPI_Write_1Byte
0001b2   dee1     CALL	#0xee1              	CALL	_SPI_Write_1Byte
0001b3   9f01     MOV	R7, #0x1             	TRAPPC1	$+2
0001b4   5f73     MOV	0x73, R7             	TRAPPC2	$+1
0001b5   e001     MOVP	#0x01               	PAGESEL	$
0001b6   9800     MOV	R0, #0               	MOV	R0,# 0x00
0001b7   e100     MOVB	#0x00               	BANKSEL	STK01
0001b8   51d1     MOV	0xd1, R0             	MOV	STK01, R0
0001b9   9837     MOV	R0, #0x37            	MOV	R0,# 0x37
                                           	BANKSEL	STK00
0001ba   51d2     MOV	0xd2, R0             	MOV	STK00, R0
0001bb   980c     MOV	R0, #0xc             	MOV	R0,# 0x0c
0001bc   9f0e     MOV	R7, #0xe             	TRAPPC1	_SPI_Write_1Byte
0001bd   5f73     MOV	0x73, R7             	TRAPPC2	_SPI_Write_1Byte
0001be   e00e     MOVP	#0x0E               	PAGESEL	_SPI_Write_1Byte
0001bf   dee1     CALL	#0xee1              	CALL	_SPI_Write_1Byte
0001c0   9f01     MOV	R7, #0x1             	TRAPPC1	$+2
0001c1   5f73     MOV	0x73, R7             	TRAPPC2	$+1
0001c2   e001     MOVP	#0x01               	PAGESEL	$
0001c3   c271     JMP	#0x271               	JMP	_00076_DS_
                                           _00053_DS_
                                           	BANKSEL	r0x102B
0001c4   78a4     JB	0xa4, 0               	JB	r0x102B, 0
0001c5   c1fa     JMP	#0x1fa               	JMP	_00050_DS_
0001c6   98ff     MOV	R0, #0xff            	MOV	R0,# 0xff
                                           	BANKSEL	STK01
0001c7   51d1     MOV	0xd1, R0             	MOV	STK01, R0
0001c8   9828     MOV	R0, #0x28            	MOV	R0,# 0x28
                                           	BANKSEL	STK00
0001c9   51d2     MOV	0xd2, R0             	MOV	STK00, R0
0001ca   9804     MOV	R0, #0x4             	MOV	R0,# 0x04
0001cb   9f0e     MOV	R7, #0xe             	TRAPPC1	_SPI_Write_1Byte
0001cc   5f73     MOV	0x73, R7             	TRAPPC2	_SPI_Write_1Byte
0001cd   e00e     MOVP	#0x0E               	PAGESEL	_SPI_Write_1Byte
0001ce   dee1     CALL	#0xee1              	CALL	_SPI_Write_1Byte
0001cf   9f01     MOV	R7, #0x1             	TRAPPC1	$+2
0001d0   5f73     MOV	0x73, R7             	TRAPPC2	$+1
0001d1   e001     MOVP	#0x01               	PAGESEL	$
0001d2   98ff     MOV	R0, #0xff            	MOV	R0,# 0xff
0001d3   e100     MOVB	#0x00               	BANKSEL	STK01
0001d4   51d1     MOV	0xd1, R0             	MOV	STK01, R0
0001d5   9829     MOV	R0, #0x29            	MOV	R0,# 0x29
                                           	BANKSEL	STK00
0001d6   51d2     MOV	0xd2, R0             	MOV	STK00, R0
0001d7   9804     MOV	R0, #0x4             	MOV	R0,# 0x04
0001d8   9f0e     MOV	R7, #0xe             	TRAPPC1	_SPI_Write_1Byte
0001d9   5f73     MOV	0x73, R7             	TRAPPC2	_SPI_Write_1Byte
0001da   e00e     MOVP	#0x0E               	PAGESEL	_SPI_Write_1Byte
0001db   dee1     CALL	#0xee1              	CALL	_SPI_Write_1Byte
0001dc   9f01     MOV	R7, #0x1             	TRAPPC1	$+2
0001dd   5f73     MOV	0x73, R7             	TRAPPC2	$+1
0001de   e001     MOVP	#0x01               	PAGESEL	$
0001df   98ff     MOV	R0, #0xff            	MOV	R0,# 0xff
0001e0   e100     MOVB	#0x00               	BANKSEL	STK01
0001e1   51d1     MOV	0xd1, R0             	MOV	STK01, R0
0001e2   982a     MOV	R0, #0x2a            	MOV	R0,# 0x2a
                                           	BANKSEL	STK00
0001e3   51d2     MOV	0xd2, R0             	MOV	STK00, R0
0001e4   9804     MOV	R0, #0x4             	MOV	R0,# 0x04
0001e5   9f0e     MOV	R7, #0xe             	TRAPPC1	_SPI_Write_1Byte
0001e6   5f73     MOV	0x73, R7             	TRAPPC2	_SPI_Write_1Byte
0001e7   e00e     MOVP	#0x0E               	PAGESEL	_SPI_Write_1Byte
0001e8   dee1     CALL	#0xee1              	CALL	_SPI_Write_1Byte
0001e9   9f01     MOV	R7, #0x1             	TRAPPC1	$+2
0001ea   5f73     MOV	0x73, R7             	TRAPPC2	$+1
0001eb   e001     MOVP	#0x01               	PAGESEL	$
0001ec   9800     MOV	R0, #0               	MOV	R0,# 0x00
0001ed   e100     MOVB	#0x00               	BANKSEL	STK01
0001ee   51d1     MOV	0xd1, R0             	MOV	STK01, R0
0001ef   9837     MOV	R0, #0x37            	MOV	R0,# 0x37
                                           	BANKSEL	STK00
0001f0   51d2     MOV	0xd2, R0             	MOV	STK00, R0
0001f1   980c     MOV	R0, #0xc             	MOV	R0,# 0x0c
0001f2   9f0e     MOV	R7, #0xe             	TRAPPC1	_SPI_Write_1Byte
0001f3   5f73     MOV	0x73, R7             	TRAPPC2	_SPI_Write_1Byte
0001f4   e00e     MOVP	#0x0E               	PAGESEL	_SPI_Write_1Byte
0001f5   dee1     CALL	#0xee1              	CALL	_SPI_Write_1Byte
0001f6   9f01     MOV	R7, #0x1             	TRAPPC1	$+2
0001f7   5f73     MOV	0x73, R7             	TRAPPC2	$+1
0001f8   e001     MOVP	#0x01               	PAGESEL	$
0001f9   c271     JMP	#0x271               	JMP	_00076_DS_
                                           _00050_DS_
                                           	BANKSEL	r0x102B
0001fa   79a4     JB	0xa4, 1               	JB	r0x102B, 1
0001fb   c230     JMP	#0x230               	JMP	_00047_DS_
0001fc   98ff     MOV	R0, #0xff            	MOV	R0,# 0xff
                                           	BANKSEL	STK01
0001fd   51d1     MOV	0xd1, R0             	MOV	STK01, R0
0001fe   982b     MOV	R0, #0x2b            	MOV	R0,# 0x2b
                                           	BANKSEL	STK00
0001ff   51d2     MOV	0xd2, R0             	MOV	STK00, R0
000200   9804     MOV	R0, #0x4             	MOV	R0,# 0x04
000201   9f0e     MOV	R7, #0xe             	TRAPPC1	_SPI_Write_1Byte
000202   5f73     MOV	0x73, R7             	TRAPPC2	_SPI_Write_1Byte
000203   e00e     MOVP	#0x0E               	PAGESEL	_SPI_Write_1Byte
000204   dee1     CALL	#0xee1              	CALL	_SPI_Write_1Byte
000205   9f02     MOV	R7, #0x2             	TRAPPC1	$+2
000206   5f73     MOV	0x73, R7             	TRAPPC2	$+1
000207   e002     MOVP	#0x02               	PAGESEL	$
000208   98ff     MOV	R0, #0xff            	MOV	R0,# 0xff
000209   e100     MOVB	#0x00               	BANKSEL	STK01
00020a   51d1     MOV	0xd1, R0             	MOV	STK01, R0
00020b   982c     MOV	R0, #0x2c            	MOV	R0,# 0x2c
                                           	BANKSEL	STK00
00020c   51d2     MOV	0xd2, R0             	MOV	STK00, R0
00020d   9804     MOV	R0, #0x4             	MOV	R0,# 0x04
00020e   9f0e     MOV	R7, #0xe             	TRAPPC1	_SPI_Write_1Byte
00020f   5f73     MOV	0x73, R7             	TRAPPC2	_SPI_Write_1Byte
000210   e00e     MOVP	#0x0E               	PAGESEL	_SPI_Write_1Byte
000211   dee1     CALL	#0xee1              	CALL	_SPI_Write_1Byte
000212   9f02     MOV	R7, #0x2             	TRAPPC1	$+2
000213   5f73     MOV	0x73, R7             	TRAPPC2	$+1
000214   e002     MOVP	#0x02               	PAGESEL	$
000215   98ff     MOV	R0, #0xff            	MOV	R0,# 0xff
000216   e100     MOVB	#0x00               	BANKSEL	STK01
000217   51d1     MOV	0xd1, R0             	MOV	STK01, R0
000218   982d     MOV	R0, #0x2d            	MOV	R0,# 0x2d
                                           	BANKSEL	STK00
000219   51d2     MOV	0xd2, R0             	MOV	STK00, R0
00021a   9804     MOV	R0, #0x4             	MOV	R0,# 0x04
00021b   9f0e     MOV	R7, #0xe             	TRAPPC1	_SPI_Write_1Byte
00021c   5f73     MOV	0x73, R7             	TRAPPC2	_SPI_Write_1Byte
00021d   e00e     MOVP	#0x0E               	PAGESEL	_SPI_Write_1Byte
00021e   dee1     CALL	#0xee1              	CALL	_SPI_Write_1Byte
00021f   9f02     MOV	R7, #0x2             	TRAPPC1	$+2
000220   5f73     MOV	0x73, R7             	TRAPPC2	$+1
000221   e002     MOVP	#0x02               	PAGESEL	$
000222   9800     MOV	R0, #0               	MOV	R0,# 0x00
000223   e100     MOVB	#0x00               	BANKSEL	STK01
000224   51d1     MOV	0xd1, R0             	MOV	STK01, R0
000225   9837     MOV	R0, #0x37            	MOV	R0,# 0x37
                                           	BANKSEL	STK00
000226   51d2     MOV	0xd2, R0             	MOV	STK00, R0
000227   980c     MOV	R0, #0xc             	MOV	R0,# 0x0c
000228   9f0e     MOV	R7, #0xe             	TRAPPC1	_SPI_Write_1Byte
000229   5f73     MOV	0x73, R7             	TRAPPC2	_SPI_Write_1Byte
00022a   e00e     MOVP	#0x0E               	PAGESEL	_SPI_Write_1Byte
00022b   dee1     CALL	#0xee1              	CALL	_SPI_Write_1Byte
00022c   9f02     MOV	R7, #0x2             	TRAPPC1	$+2
00022d   5f73     MOV	0x73, R7             	TRAPPC2	$+1
00022e   e002     MOVP	#0x02               	PAGESEL	$
00022f   c271     JMP	#0x271               	JMP	_00076_DS_
                                           _00047_DS_
                                           	BANKSEL	r0x102B
000230   7aa4     JB	0xa4, 2               	JB	r0x102B, 2
000231   c266     JMP	#0x266               	JMP	_00044_DS_
000232   98ff     MOV	R0, #0xff            	MOV	R0,# 0xff
                                           	BANKSEL	STK01
000233   51d1     MOV	0xd1, R0             	MOV	STK01, R0
000234   982e     MOV	R0, #0x2e            	MOV	R0,# 0x2e
                                           	BANKSEL	STK00
000235   51d2     MOV	0xd2, R0             	MOV	STK00, R0
000236   9804     MOV	R0, #0x4             	MOV	R0,# 0x04
000237   9f0e     MOV	R7, #0xe             	TRAPPC1	_SPI_Write_1Byte
000238   5f73     MOV	0x73, R7             	TRAPPC2	_SPI_Write_1Byte
000239   e00e     MOVP	#0x0E               	PAGESEL	_SPI_Write_1Byte
00023a   dee1     CALL	#0xee1              	CALL	_SPI_Write_1Byte
00023b   9f02     MOV	R7, #0x2             	TRAPPC1	$+2
00023c   5f73     MOV	0x73, R7             	TRAPPC2	$+1
00023d   e002     MOVP	#0x02               	PAGESEL	$
00023e   98ff     MOV	R0, #0xff            	MOV	R0,# 0xff
00023f   e100     MOVB	#0x00               	BANKSEL	STK01
000240   51d1     MOV	0xd1, R0             	MOV	STK01, R0
000241   982f     MOV	R0, #0x2f            	MOV	R0,# 0x2f
                                           	BANKSEL	STK00
000242   51d2     MOV	0xd2, R0             	MOV	STK00, R0
000243   9804     MOV	R0, #0x4             	MOV	R0,# 0x04
000244   9f0e     MOV	R7, #0xe             	TRAPPC1	_SPI_Write_1Byte
000245   5f73     MOV	0x73, R7             	TRAPPC2	_SPI_Write_1Byte
000246   e00e     MOVP	#0x0E               	PAGESEL	_SPI_Write_1Byte
000247   dee1     CALL	#0xee1              	CALL	_SPI_Write_1Byte
000248   9f02     MOV	R7, #0x2             	TRAPPC1	$+2
000249   5f73     MOV	0x73, R7             	TRAPPC2	$+1
00024a   e002     MOVP	#0x02               	PAGESEL	$
00024b   98ff     MOV	R0, #0xff            	MOV	R0,# 0xff
00024c   e100     MOVB	#0x00               	BANKSEL	STK01
00024d   51d1     MOV	0xd1, R0             	MOV	STK01, R0
00024e   9830     MOV	R0, #0x30            	MOV	R0,# 0x30
                                           	BANKSEL	STK00
00024f   51d2     MOV	0xd2, R0             	MOV	STK00, R0
000250   9804     MOV	R0, #0x4             	MOV	R0,# 0x04
000251   9f0e     MOV	R7, #0xe             	TRAPPC1	_SPI_Write_1Byte
000252   5f73     MOV	0x73, R7             	TRAPPC2	_SPI_Write_1Byte
000253   e00e     MOVP	#0x0E               	PAGESEL	_SPI_Write_1Byte
000254   dee1     CALL	#0xee1              	CALL	_SPI_Write_1Byte
000255   9f02     MOV	R7, #0x2             	TRAPPC1	$+2
000256   5f73     MOV	0x73, R7             	TRAPPC2	$+1
000257   e002     MOVP	#0x02               	PAGESEL	$
000258   9800     MOV	R0, #0               	MOV	R0,# 0x00
000259   e100     MOVB	#0x00               	BANKSEL	STK01
00025a   51d1     MOV	0xd1, R0             	MOV	STK01, R0
00025b   9837     MOV	R0, #0x37            	MOV	R0,# 0x37
                                           	BANKSEL	STK00
00025c   51d2     MOV	0xd2, R0             	MOV	STK00, R0
00025d   980c     MOV	R0, #0xc             	MOV	R0,# 0x0c
00025e   9f0e     MOV	R7, #0xe             	TRAPPC1	_SPI_Write_1Byte
00025f   5f73     MOV	0x73, R7             	TRAPPC2	_SPI_Write_1Byte
000260   e00e     MOVP	#0x0E               	PAGESEL	_SPI_Write_1Byte
000261   dee1     CALL	#0xee1              	CALL	_SPI_Write_1Byte
000262   9f02     MOV	R7, #0x2             	TRAPPC1	$+2
000263   5f73     MOV	0x73, R7             	TRAPPC2	$+1
000264   e002     MOVP	#0x02               	PAGESEL	$
000265   c271     JMP	#0x271               	JMP	_00076_DS_
                                           _00044_DS_
                                           	BANKSEL	r0x102C
000266   0ea5     MOVZ	R0, 0xa5            	MOVZ	R0, r0x102C
                                           	BANKSEL	r0x102B
000267   30a4     ORL	R0, 0xa4             	ORL	R0, r0x102B
000268   7a03     JB	0x3, 2                	JB	PSW, 2
000269   c271     JMP	#0x271               	JMP	_00076_DS_
00026a   9f0f     MOV	R7, #0xf             	TRAPPC1	_All_rt_off
00026b   5f73     MOV	0x73, R7             	TRAPPC2	_All_rt_off
00026c   e00f     MOVP	#0x0F               	PAGESEL	_All_rt_off
00026d   df9f     CALL	#0xf9f              	CALL	_All_rt_off
00026e   9f02     MOV	R7, #0x2             	TRAPPC1	$+2
00026f   5f73     MOV	0x73, R7             	TRAPPC2	$+1
000270   e002     MOVP	#0x02               	PAGESEL	$
                                           _00076_DS_
000271   0008     CRET                     	CRET	
                                           func._All_rt_off	.code
                                           _All_rt_off	;Function start
000f9f   981f     MOV	R0, #0x1f            	MOV	R0,# 0x1f
000fa0   e100     MOVB	#0x00               	BANKSEL	r0x1016
000fa1   51a6     MOV	0xa6, R0             	MOV	r0x1016, R0
                                           _00031_DS_
000fa2   9831     MOV	R0, #0x31            	MOV	R0,# 0x31
                                           	BANKSEL	r0x1016
000fa3   38a6     SUB	R0, 0xa6             	SUB	R0, r0x1016
000fa4   7003     JNB	0x3, 0               	JNB	PSW, 0
000fa5   cfb5     JMP	#0xfb5               	JMP	_00034_DS_
000fa6   9800     MOV	R0, #0               	MOV	R0,# 0x00
                                           	BANKSEL	STK01
000fa7   51d1     MOV	0xd1, R0             	MOV	STK01, R0
                                           	BANKSEL	r0x1016
000fa8   0ea6     MOVZ	R0, 0xa6            	MOVZ	R0, r0x1016
                                           	BANKSEL	STK00
000fa9   51d2     MOV	0xd2, R0             	MOV	STK00, R0
000faa   980c     MOV	R0, #0xc             	MOV	R0,# 0x0c
000fab   9f0e     MOV	R7, #0xe             	TRAPPC1	_SPI_Write_1Byte
000fac   5f73     MOV	0x73, R7             	TRAPPC2	_SPI_Write_1Byte
000fad   e00e     MOVP	#0x0E               	PAGESEL	_SPI_Write_1Byte
000fae   dee1     CALL	#0xee1              	CALL	_SPI_Write_1Byte
000faf   9f0f     MOV	R7, #0xf             	TRAPPC1	$+2
000fb0   5f73     MOV	0x73, R7             	TRAPPC2	$+1
000fb1   e00f     MOVP	#0x0F               	PAGESEL	$
000fb2   e100     MOVB	#0x00               	BANKSEL	r0x1016
000fb3   0ba6     INC	0xa6                 	INC	r0x1016
000fb4   cfa2     JMP	#0xfa2               	JMP	_00031_DS_
                                           _00034_DS_
000fb5   9800     MOV	R0, #0               	MOV	R0,# 0x00
                                           	BANKSEL	STK01
000fb6   51d1     MOV	0xd1, R0             	MOV	STK01, R0
000fb7   9837     MOV	R0, #0x37            	MOV	R0,# 0x37
                                           	BANKSEL	STK00
000fb8   51d2     MOV	0xd2, R0             	MOV	STK00, R0
000fb9   980c     MOV	R0, #0xc             	MOV	R0,# 0x0c
000fba   9f0e     MOV	R7, #0xe             	TRAPPC1	_SPI_Write_1Byte
000fbb   5f73     MOV	0x73, R7             	TRAPPC2	_SPI_Write_1Byte
000fbc   e00e     MOVP	#0x0E               	PAGESEL	_SPI_Write_1Byte
000fbd   dee1     CALL	#0xee1              	CALL	_SPI_Write_1Byte
000fbe   9f0f     MOV	R7, #0xf             	TRAPPC1	$+2
000fbf   5f73     MOV	0x73, R7             	TRAPPC2	$+1
000fc0   e00f     MOVP	#0x0F               	PAGESEL	$
000fc1   0008     CRET                     	CRET	
                                           func._All_rt_on	.code
                                           _All_rt_on	;Function start
000fc2   981f     MOV	R0, #0x1f            	MOV	R0,# 0x1f
000fc3   e100     MOVB	#0x00               	BANKSEL	r0x1016
000fc4   51a6     MOV	0xa6, R0             	MOV	r0x1016, R0
                                           _00021_DS_
000fc5   9831     MOV	R0, #0x31            	MOV	R0,# 0x31
                                           	BANKSEL	r0x1016
000fc6   38a6     SUB	R0, 0xa6             	SUB	R0, r0x1016
000fc7   7003     JNB	0x3, 0               	JNB	PSW, 0
000fc8   cfd8     JMP	#0xfd8               	JMP	_00024_DS_
000fc9   98ff     MOV	R0, #0xff            	MOV	R0,# 0xff
                                           	BANKSEL	STK01
000fca   51d1     MOV	0xd1, R0             	MOV	STK01, R0
                                           	BANKSEL	r0x1016
000fcb   0ea6     MOVZ	R0, 0xa6            	MOVZ	R0, r0x1016
                                           	BANKSEL	STK00
000fcc   51d2     MOV	0xd2, R0             	MOV	STK00, R0
000fcd   980c     MOV	R0, #0xc             	MOV	R0,# 0x0c
000fce   9f0e     MOV	R7, #0xe             	TRAPPC1	_SPI_Write_1Byte
000fcf   5f73     MOV	0x73, R7             	TRAPPC2	_SPI_Write_1Byte
000fd0   e00e     MOVP	#0x0E               	PAGESEL	_SPI_Write_1Byte
000fd1   dee1     CALL	#0xee1              	CALL	_SPI_Write_1Byte
000fd2   9f0f     MOV	R7, #0xf             	TRAPPC1	$+2
000fd3   5f73     MOV	0x73, R7             	TRAPPC2	$+1
000fd4   e00f     MOVP	#0x0F               	PAGESEL	$
000fd5   e100     MOVB	#0x00               	BANKSEL	r0x1016
000fd6   0ba6     INC	0xa6                 	INC	r0x1016
000fd7   cfc5     JMP	#0xfc5               	JMP	_00021_DS_
                                           _00024_DS_
000fd8   9800     MOV	R0, #0               	MOV	R0,# 0x00
                                           	BANKSEL	STK01
000fd9   51d1     MOV	0xd1, R0             	MOV	STK01, R0
000fda   9837     MOV	R0, #0x37            	MOV	R0,# 0x37
                                           	BANKSEL	STK00
000fdb   51d2     MOV	0xd2, R0             	MOV	STK00, R0
000fdc   980c     MOV	R0, #0xc             	MOV	R0,# 0x0c
000fdd   9f0e     MOV	R7, #0xe             	TRAPPC1	_SPI_Write_1Byte
000fde   5f73     MOV	0x73, R7             	TRAPPC2	_SPI_Write_1Byte
000fdf   e00e     MOVP	#0x0E               	PAGESEL	_SPI_Write_1Byte
000fe0   dee1     CALL	#0xee1              	CALL	_SPI_Write_1Byte
000fe1   9f0f     MOV	R7, #0xf             	TRAPPC1	$+2
000fe2   5f73     MOV	0x73, R7             	TRAPPC2	$+1
000fe3   e00f     MOVP	#0x0F               	PAGESEL	$
000fe4   0008     CRET                     	CRET	
                                           func._All_tail_off	.code
                                           _All_tail_off	;Function start
007000   981f     MOV	R0, #0x1f            	MOV	R0,# 0x1f
007001   e100     MOVB	#0x00               	BANKSEL	r0x1016
007002   51a6     MOV	0xa6, R0             	MOV	r0x1016, R0
                                           _00011_DS_
007003   9831     MOV	R0, #0x31            	MOV	R0,# 0x31
                                           	BANKSEL	r0x1016
007004   38a6     SUB	R0, 0xa6             	SUB	R0, r0x1016
007005   7003     JNB	0x3, 0               	JNB	PSW, 0
007006   c016     JMP	#0x16                	JMP	_00014_DS_
007007   9800     MOV	R0, #0               	MOV	R0,# 0x00
                                           	BANKSEL	STK01
007008   51d1     MOV	0xd1, R0             	MOV	STK01, R0
                                           	BANKSEL	r0x1016
007009   0ea6     MOVZ	R0, 0xa6            	MOVZ	R0, r0x1016
                                           	BANKSEL	STK00
00700a   51d2     MOV	0xd2, R0             	MOV	STK00, R0
00700b   9803     MOV	R0, #0x3             	MOV	R0,# 0x03
00700c   9f0e     MOV	R7, #0xe             	TRAPPC1	_SPI_Write_1Byte
00700d   5f73     MOV	0x73, R7             	TRAPPC2	_SPI_Write_1Byte
00700e   e00e     MOVP	#0x0E               	PAGESEL	_SPI_Write_1Byte
00700f   dee1     CALL	#0xee1              	CALL	_SPI_Write_1Byte
007010   9f70     MOV	R7, #0x70            	TRAPPC1	$+2
007011   5f73     MOV	0x73, R7             	TRAPPC2	$+1
007012   e070     MOVP	#0x70               	PAGESEL	$
007013   e100     MOVB	#0x00               	BANKSEL	r0x1016
007014   0ba6     INC	0xa6                 	INC	r0x1016
007015   c003     JMP	#0x3                 	JMP	_00011_DS_
                                           _00014_DS_
007016   9800     MOV	R0, #0               	MOV	R0,# 0x00
                                           	BANKSEL	STK01
007017   51d1     MOV	0xd1, R0             	MOV	STK01, R0
007018   9837     MOV	R0, #0x37            	MOV	R0,# 0x37
                                           	BANKSEL	STK00
007019   51d2     MOV	0xd2, R0             	MOV	STK00, R0
00701a   9803     MOV	R0, #0x3             	MOV	R0,# 0x03
00701b   9f0e     MOV	R7, #0xe             	TRAPPC1	_SPI_Write_1Byte
00701c   5f73     MOV	0x73, R7             	TRAPPC2	_SPI_Write_1Byte
00701d   e00e     MOVP	#0x0E               	PAGESEL	_SPI_Write_1Byte
00701e   dee1     CALL	#0xee1              	CALL	_SPI_Write_1Byte
00701f   9f70     MOV	R7, #0x70            	TRAPPC1	$+2
007020   5f73     MOV	0x73, R7             	TRAPPC2	$+1
007021   e070     MOVP	#0x70               	PAGESEL	$
007022   0008     CRET                     	CRET	
                                           func._All_tail_on	.code
                                           _All_tail_on	;Function start
007023   981f     MOV	R0, #0x1f            	MOV	R0,# 0x1f
007024   e100     MOVB	#0x00               	BANKSEL	r0x1016
007025   51a6     MOV	0xa6, R0             	MOV	r0x1016, R0
                                           _00001_DS_
007026   9831     MOV	R0, #0x31            	MOV	R0,# 0x31
                                           	BANKSEL	r0x1016
007027   38a6     SUB	R0, 0xa6             	SUB	R0, r0x1016
007028   7003     JNB	0x3, 0               	JNB	PSW, 0
007029   c039     JMP	#0x39                	JMP	_00004_DS_
00702a   98ff     MOV	R0, #0xff            	MOV	R0,# 0xff
                                           	BANKSEL	STK01
00702b   51d1     MOV	0xd1, R0             	MOV	STK01, R0
                                           	BANKSEL	r0x1016
00702c   0ea6     MOVZ	R0, 0xa6            	MOVZ	R0, r0x1016
                                           	BANKSEL	STK00
00702d   51d2     MOV	0xd2, R0             	MOV	STK00, R0
00702e   9803     MOV	R0, #0x3             	MOV	R0,# 0x03
00702f   9f0e     MOV	R7, #0xe             	TRAPPC1	_SPI_Write_1Byte
007030   5f73     MOV	0x73, R7             	TRAPPC2	_SPI_Write_1Byte
007031   e00e     MOVP	#0x0E               	PAGESEL	_SPI_Write_1Byte
007032   dee1     CALL	#0xee1              	CALL	_SPI_Write_1Byte
007033   9f70     MOV	R7, #0x70            	TRAPPC1	$+2
007034   5f73     MOV	0x73, R7             	TRAPPC2	$+1
007035   e070     MOVP	#0x70               	PAGESEL	$
007036   e100     MOVB	#0x00               	BANKSEL	r0x1016
007037   0ba6     INC	0xa6                 	INC	r0x1016
007038   c026     JMP	#0x26                	JMP	_00001_DS_
                                           _00004_DS_
007039   9800     MOV	R0, #0               	MOV	R0,# 0x00
                                           	BANKSEL	STK01
00703a   51d1     MOV	0xd1, R0             	MOV	STK01, R0
00703b   9837     MOV	R0, #0x37            	MOV	R0,# 0x37
                                           	BANKSEL	STK00
00703c   51d2     MOV	0xd2, R0             	MOV	STK00, R0
00703d   9803     MOV	R0, #0x3             	MOV	R0,# 0x03
00703e   9f0e     MOV	R7, #0xe             	TRAPPC1	_SPI_Write_1Byte
00703f   5f73     MOV	0x73, R7             	TRAPPC2	_SPI_Write_1Byte
007040   e00e     MOVP	#0x0E               	PAGESEL	_SPI_Write_1Byte
007041   dee1     CALL	#0xee1              	CALL	_SPI_Write_1Byte
007042   9f70     MOV	R7, #0x70            	TRAPPC1	$+2
007043   5f73     MOV	0x73, R7             	TRAPPC2	$+1
007044   e070     MOVP	#0x70               	PAGESEL	$
007045   0008     CRET                     	CRET	
                                           	.end
                                           	.radix dec
                                           	.include "KF8A100GQS.inc"
                                           	__config 0x8007, 0x6d4
                                           	.end
                                           	.radix dec
                                           	.include "KF8A100GQS.inc"
                                           	.type STK11, 108
                                           	.type STK10, 108
                                           	.type STK09, 108
                                           	.type STK08, 108
                                           	.type STK07, 108
                                           	.type STK06, 108
                                           	.type STK05, 108
                                           	.type STK04, 108
                                           	.type STK03, 108
                                           	.type STK02, 108
                                           	.type STK01, 108
                                           	.type STK00, 108
                                           sharebankTRAP .idata 0x73
                                           TRAPRx73
                                             .db 0x00
                                           TRAPRx74
                                             .db 0x00
                                           TRAPRx75
                                             .db 0x00
                                           TRAPRx76
                                             .db 0x00
                                           TRAPRx77
                                             .db 0x00
                                           ID_main_0	.idata
                                           _var
                                           	.db	0x00
                                           ID_main_1	.idata
                                           _flash_flag
                                           	.db	0x00
                                           ID_main_2	.idata
                                           _RT_cnt
                                           	.db	0x00, 0x00
                                           ID_main_3	.idata
                                           _RT_ctl
                                           	.db	0x00, 0x00
                                           ID_main_4	.idata
                                           _RT_ctl_1
                                           	.db	0x00, 0x00
                                           ID_main_5	.idata
                                           _PWM_cnt
                                           	.db	0x00, 0x00
                                           ID_main_6	.idata
                                           _stop_ctl
                                           	.db	0x00, 0x00
                                           ID_main_7	.idata
                                           _stop_ctl_h
                                           	.db	0x00, 0x00
                                           ID_main_8	.idata
                                           _PWM_read_o
                                           	.db	0x00
                                           ID_main_9	.idata
                                           _PWM_read_buf
                                           	.db	0x00
                                           ID_main_10	.idata
                                           _PWM_duty
                                           	.db	0x00
                                           ID_main_11	.idata
                                           _PWM_T
                                           	.db	0x00
                                           ID_main_12	.idata
                                           _Mode_o
                                           	.db	0x00
                                           ID_main_13	.idata
                                           _Mode
                                           	.db	0x00
                                           ID_main_14	.idata
                                           _ms_flag
                                           	.db	0x00
                                           STARTUP	.code 0x0000
000000   0376     CLR	0x76                 	CLR 0x76
000001   0373     CLR	0x73                 	CLR 0x73
000002   e070     MOVP	#0x70               	PAGESEL	init_imp
000003   c0ad     JMP	#0xad                	JMP		init_imp
                                           INIT_IMP	.code
                                           init_imp
0070ad   e00f     MOVP	#0x0F               	PAGESEL	_startup
0070ae   df7a     CALL	#0xf7a              	CALL	_startup
0070af   e070     MOVP	#0x70               	PAGESEL	__gsinit_startup
0070b0   d0b5     CALL	#0xb5               	CALL	__gsinit_startup
0070b1   9f0c     MOV	R7, #0xc             	TRAPPC1	_main
0070b2   5f73     MOV	0x73, R7             	TRAPPC2	_main
0070b3   e00c     MOVP	#0x0C               	PAGESEL	_main
0070b4   ccfd     JMP	#0xcfd               	JMP		_main
                                           interrupt_0x04	.code	0x4
000004   f8c2     MOV	R2, R0               	MOV		R2,R0
000005   5617     MOV	R3, 0x17             	MOV		R3,BANK
000006   5003     MOV	R0, 0x3              	MOV		R0,PSW
000007   e100     MOVB	#0x00               	BANKSEL	I0PSW
000008   51c1     MOV	0xc1, R0             	MOV		I0PSW,R0
000009   53bf     MOV	0xbf, R1             	MOV		I0R1,R1
00000a   5fc0     MOV	0xc0, R7             	MOV		I0R7,R7
00000b   6a76     SET	0x76, 2              	SET		TRAPRx76,2
00000c   9f07     MOV	R7, #0x7             	TRAPPC1	interrupt_service_routine_0x04
00000d   5f75     MOV	0x75, R7             	TRAPPC2	interrupt_service_routine_0x04
00000e   e007     MOVP	#0x07               	PAGESEL	interrupt_service_routine_0x04
00000f   c7f3     JMP	#0x7f3               	JMP		interrupt_service_routine_0x04
                                           func._int_fun0	.code
                                           _int_fun0	;Function start
                                           interrupt_service_routine_0x04
0007f3   e100     MOVB	#0x00               	BANKSEL	r0x1012
0007f4   0382     CLR	0x82                 	CLR	r0x1012
                                           	BANKSEL	_INTCTL_bits
0007f5   7a0b     JB	0xb, 2                	JB	_INTCTL_bits, 2
0007f6   c7f8     JMP	#0x7f8               	JMP	_00134_DS_
                                           	BANKSEL	r0x1012
0007f7   0b82     INC	0x82                 	INC	r0x1012
                                           _00134_DS_
0007f8   9800     MOV	R0, #0               	MOV	R0,# 0x00
                                           	BANKSEL	_INTCTL_bits
0007f9   750b     JNB	0xb, 5               	JNB	_INTCTL_bits, 5
0007fa   9801     MOV	R0, #0x1             	MOV	R0,# 0x01
                                           	BANKSEL	r0x1013
0007fb   5181     MOV	0x81, R0             	MOV	r0x1013, R0
                                           	BANKSEL	r0x1013
0007fc   0e81     MOVZ	R0, 0x81            	MOVZ	R0, r0x1013
                                           	BANKSEL	r0x1012
0007fd   2982     AND	0x82, R0             	AND	r0x1012, R0
0007fe   9800     MOV	R0, #0               	MOV	R0,# 0x00
                                           	BANKSEL	r0x1012
0007ff   3082     ORL	R0, 0x82             	ORL	R0, r0x1012
000800   7203     JNB	0x3, 2               	JNB	PSW, 2
000801   c81a     JMP	#0x81a               	JMP	_00025_DS_
                                           	BANKSEL	_INTCTL_bits
000802   620b     CLR	0xb, 2               	CLR	_INTCTL_bits, 2
000803   9808     MOV	R0, #0x8             	MOV	R0,# 0x08
                                           	BANKSEL	_T0
000804   5101     MOV	0x1, R0              	MOV	_T0, R0
000805   9800     MOV	R0, #0               	MOV	R0,# 0x00
                                           	BANKSEL	_Mode
000806   3084     ORL	R0, 0x84             	ORL	R0, _Mode
000807   7203     JNB	0x3, 2               	JNB	PSW, 2
000808   c818     JMP	#0x818               	JMP	_00022_DS_
000809   9801     MOV	R0, #0x1             	MOV	R0,# 0x01
                                           	BANKSEL	_ms_flag
00080a   5183     MOV	0x83, R0             	MOV	_ms_flag, R0
00080b   983a     MOV	R0, #0x3a            	MOV	R0,# 0x3a
                                           	BANKSEL	_PWM_cnt
00080c   38b6     SUB	R0, 0xb6             	SUB	R0, (_PWM_cnt + 1)
00080d   7a03     JB	0x3, 2                	JB	PSW, 2
00080e   c811     JMP	#0x811               	JMP	_00125_DS_
00080f   9898     MOV	R0, #0x98            	MOV	R0,# 0x98
                                           	BANKSEL	_PWM_cnt
000810   38b5     SUB	R0, 0xb5             	SUB	R0, _PWM_cnt
                                           _00125_DS_
000811   7003     JNB	0x3, 0               	JNB	PSW, 0
000812   c81a     JMP	#0x81a               	JMP	_00025_DS_
                                           	BANKSEL	_PWM_cnt
000813   0bb5     INC	0xb5                 	INC	_PWM_cnt
000814   7a03     JB	0x3, 2                	JB	PSW, 2
000815   c817     JMP	#0x817               	JMP	_00135_DS_
                                           	BANKSEL	_PWM_cnt
000816   0bb6     INC	0xb6                 	INC	(_PWM_cnt + 1)
                                           _00135_DS_
000817   c81a     JMP	#0x81a               	JMP	_00025_DS_
                                           _00022_DS_
                                           	BANKSEL	_PWM_cnt
000818   03b5     CLR	0xb5                 	CLR	_PWM_cnt
                                           	BANKSEL	_PWM_cnt
000819   03b6     CLR	0xb6                 	CLR	(_PWM_cnt + 1)
                                           _00025_DS_
                                           	BANKSEL	r0x1012
00081a   0382     CLR	0x82                 	CLR	r0x1012
                                           	BANKSEL	_EIF1_bits
00081b   780c     JB	0xc, 0                	JB	_EIF1_bits, 0
00081c   c81e     JMP	#0x81e               	JMP	_00136_DS_
                                           	BANKSEL	r0x1012
00081d   0b82     INC	0x82                 	INC	r0x1012
                                           _00136_DS_
                                           	BANKSEL	r0x1014
00081e   0380     CLR	0x80                 	CLR	r0x1014
                                           	BANKSEL	_EIE1_bits
00081f   782c     JB	0x2c, 0               	JB	_EIE1_bits, 0
000820   c822     JMP	#0x822               	JMP	_00137_DS_
                                           	BANKSEL	r0x1014
000821   0b80     INC	0x80                 	INC	r0x1014
                                           _00137_DS_
                                           	BANKSEL	r0x1014
000822   0e80     MOVZ	R0, 0x80            	MOVZ	R0, r0x1014
                                           	BANKSEL	r0x1012
000823   2982     AND	0x82, R0             	AND	r0x1012, R0
000824   9800     MOV	R0, #0               	MOV	R0,# 0x00
                                           	BANKSEL	r0x1012
000825   3082     ORL	R0, 0x82             	ORL	R0, r0x1012
000826   7203     JNB	0x3, 2               	JNB	PSW, 2
000827   c89d     JMP	#0x89d               	JMP	_00080_DS_
                                           	BANKSEL	_EIF1_bits
000828   600c     CLR	0xc, 0               	CLR	_EIF1_bits, 0
000829   9802     MOV	R0, #0x2             	MOV	R0,# 0x02
                                           	BANKSEL	_mode_stop
00082a   3888     SUB	R0, 0x88             	SUB	R0, _mode_stop
00082b   7803     JB	0x3, 0                	JB	PSW, 0
00082c   c89d     JMP	#0x89d               	JMP	_00080_DS_
00082d   9800     MOV	R0, #0               	MOV	R0,# 0x00
                                           	BANKSEL	_var
00082e   3087     ORL	R0, 0x87             	ORL	R0, _var
00082f   7203     JNB	0x3, 2               	JNB	PSW, 2
000830   c867     JMP	#0x867               	JMP	_00075_DS_
000831   98f1     MOV	R0, #0xf1            	MOV	R0,# 0xf1
                                           	BANKSEL	_T1H
000832   510f     MOV	0xf, R0              	MOV	_T1H, R0
000833   9860     MOV	R0, #0x60            	MOV	R0,# 0x60
                                           	BANKSEL	_T1L
000834   510e     MOV	0xe, R0              	MOV	_T1L, R0
                                           	BANKSEL	_stop_ctl_h
000835   78b1     JB	0xb1, 0               	JB	_stop_ctl_h, 0
000836   c838     JMP	#0x838               	JMP	_00138_DS_
                                           	BANKSEL	_P2LR_bits
000837   6346     CLR	0x46, 3              	CLR	_P2LR_bits, 3
                                           _00138_DS_
                                           	BANKSEL	_stop_ctl_h
000838   79b1     JB	0xb1, 1               	JB	_stop_ctl_h, 1
000839   c83b     JMP	#0x83b               	JMP	_00139_DS_
                                           	BANKSEL	_P2LR_bits
00083a   6446     CLR	0x46, 4              	CLR	_P2LR_bits, 4
                                           _00139_DS_
                                           	BANKSEL	_stop_ctl_h
00083b   7ab1     JB	0xb1, 2               	JB	_stop_ctl_h, 2
00083c   c83e     JMP	#0x83e               	JMP	_00031_DS_
                                           	BANKSEL	_P2LR_bits
00083d   6046     CLR	0x46, 0              	CLR	_P2LR_bits, 0
                                           _00031_DS_
                                           	BANKSEL	_stop_ctl_h
00083e   7bb1     JB	0xb1, 3               	JB	_stop_ctl_h, 3
00083f   c841     JMP	#0x841               	JMP	_00033_DS_
                                           	BANKSEL	_P2LR_bits
000840   6146     CLR	0x46, 1              	CLR	_P2LR_bits, 1
                                           _00033_DS_
                                           	BANKSEL	_stop_ctl_h
000841   7cb1     JB	0xb1, 4               	JB	_stop_ctl_h, 4
000842   c845     JMP	#0x845               	JMP	_00035_DS_
000843   e101     MOVB	#0x01               	BANKSEL	_P6LR_bits
000844   6146     CLR	0x46, 1              	CLR	_P6LR_bits, 1
                                           _00035_DS_
000845   e100     MOVB	#0x00               	BANKSEL	_stop_ctl_h
000846   7db1     JB	0xb1, 5               	JB	_stop_ctl_h, 5
000847   c84a     JMP	#0x84a               	JMP	_00037_DS_
000848   e101     MOVB	#0x01               	BANKSEL	_P6LR_bits
000849   6346     CLR	0x46, 3              	CLR	_P6LR_bits, 3
                                           _00037_DS_
00084a   e100     MOVB	#0x00               	BANKSEL	_stop_ctl_h
00084b   7eb1     JB	0xb1, 6               	JB	_stop_ctl_h, 6
00084c   c84f     JMP	#0x84f               	JMP	_00039_DS_
00084d   e101     MOVB	#0x01               	BANKSEL	_P6LR_bits
00084e   6546     CLR	0x46, 5              	CLR	_P6LR_bits, 5
                                           _00039_DS_
00084f   e100     MOVB	#0x00               	BANKSEL	_stop_ctl_h
000850   7fb1     JB	0xb1, 7               	JB	_stop_ctl_h, 7
000851   c854     JMP	#0x854               	JMP	_00041_DS_
000852   e101     MOVB	#0x01               	BANKSEL	_P6LR_bits
000853   6646     CLR	0x46, 6              	CLR	_P6LR_bits, 6
                                           _00041_DS_
000854   e100     MOVB	#0x00               	BANKSEL	(_stop_ctl_h + 1)
000855   78b2     JB	0xb2, 0               	JB	(_stop_ctl_h + 1), 0
000856   c859     JMP	#0x859               	JMP	_00043_DS_
000857   e101     MOVB	#0x01               	BANKSEL	_P9LR_bits
000858   6549     CLR	0x49, 5              	CLR	_P9LR_bits, 5
                                           _00043_DS_
000859   e100     MOVB	#0x00               	BANKSEL	(_stop_ctl_h + 1)
00085a   79b2     JB	0xb2, 1               	JB	(_stop_ctl_h + 1), 1
00085b   c85e     JMP	#0x85e               	JMP	_00045_DS_
00085c   e101     MOVB	#0x01               	BANKSEL	_P9LR_bits
00085d   6449     CLR	0x49, 4              	CLR	_P9LR_bits, 4
                                           _00045_DS_
00085e   e100     MOVB	#0x00               	BANKSEL	(_stop_ctl_h + 1)
00085f   7ab2     JB	0xb2, 2               	JB	(_stop_ctl_h + 1), 2
000860   c862     JMP	#0x862               	JMP	_00047_DS_
                                           	BANKSEL	_P4LR_bits
000861   6349     CLR	0x49, 3              	CLR	_P4LR_bits, 3
                                           _00047_DS_
                                           	BANKSEL	(_stop_ctl_h + 1)
000862   7bb2     JB	0xb2, 3               	JB	(_stop_ctl_h + 1), 3
000863   c865     JMP	#0x865               	JMP	_00049_DS_
                                           	BANKSEL	_P4LR_bits
000864   6549     CLR	0x49, 5              	CLR	_P4LR_bits, 5
                                           _00049_DS_
                                           	BANKSEL	_var
000865   0387     CLR	0x87                 	CLR	_var
000866   c89d     JMP	#0x89d               	JMP	_00080_DS_
                                           _00075_DS_
000867   98ff     MOV	R0, #0xff            	MOV	R0,# 0xff
                                           	BANKSEL	_T1H
000868   510f     MOV	0xf, R0              	MOV	_T1H, R0
000869   9862     MOV	R0, #0x62            	MOV	R0,# 0x62
                                           	BANKSEL	_T1L
00086a   510e     MOV	0xe, R0              	MOV	_T1L, R0
                                           	BANKSEL	_stop_ctl
00086b   78b3     JB	0xb3, 0               	JB	_stop_ctl, 0
00086c   c86e     JMP	#0x86e               	JMP	_00140_DS_
                                           	BANKSEL	_P2LR_bits
00086d   6b46     SET	0x46, 3              	SET	_P2LR_bits, 3
                                           _00140_DS_
                                           	BANKSEL	_stop_ctl
00086e   79b3     JB	0xb3, 1               	JB	_stop_ctl, 1
00086f   c871     JMP	#0x871               	JMP	_00141_DS_
                                           	BANKSEL	_P2LR_bits
000870   6c46     SET	0x46, 4              	SET	_P2LR_bits, 4
                                           _00141_DS_
                                           	BANKSEL	_stop_ctl
000871   7ab3     JB	0xb3, 2               	JB	_stop_ctl, 2
000872   c874     JMP	#0x874               	JMP	_00055_DS_
                                           	BANKSEL	_P2LR_bits
000873   6846     SET	0x46, 0              	SET	_P2LR_bits, 0
                                           _00055_DS_
                                           	BANKSEL	_stop_ctl
000874   7bb3     JB	0xb3, 3               	JB	_stop_ctl, 3
000875   c877     JMP	#0x877               	JMP	_00057_DS_
                                           	BANKSEL	_P2LR_bits
000876   6946     SET	0x46, 1              	SET	_P2LR_bits, 1
                                           _00057_DS_
                                           	BANKSEL	_stop_ctl
000877   7cb3     JB	0xb3, 4               	JB	_stop_ctl, 4
000878   c87b     JMP	#0x87b               	JMP	_00059_DS_
000879   e101     MOVB	#0x01               	BANKSEL	_P6LR_bits
00087a   6946     SET	0x46, 1              	SET	_P6LR_bits, 1
                                           _00059_DS_
00087b   e100     MOVB	#0x00               	BANKSEL	_stop_ctl
00087c   7db3     JB	0xb3, 5               	JB	_stop_ctl, 5
00087d   c880     JMP	#0x880               	JMP	_00061_DS_
00087e   e101     MOVB	#0x01               	BANKSEL	_P6LR_bits
00087f   6b46     SET	0x46, 3              	SET	_P6LR_bits, 3
                                           _00061_DS_
000880   e100     MOVB	#0x00               	BANKSEL	_stop_ctl
000881   7eb3     JB	0xb3, 6               	JB	_stop_ctl, 6
000882   c885     JMP	#0x885               	JMP	_00063_DS_
000883   e101     MOVB	#0x01               	BANKSEL	_P6LR_bits
000884   6d46     SET	0x46, 5              	SET	_P6LR_bits, 5
                                           _00063_DS_
000885   e100     MOVB	#0x00               	BANKSEL	_stop_ctl
000886   7fb3     JB	0xb3, 7               	JB	_stop_ctl, 7
000887   c88a     JMP	#0x88a               	JMP	_00065_DS_
000888   e101     MOVB	#0x01               	BANKSEL	_P6LR_bits
000889   6e46     SET	0x46, 6              	SET	_P6LR_bits, 6
                                           _00065_DS_
00088a   e100     MOVB	#0x00               	BANKSEL	(_stop_ctl + 1)
00088b   78b4     JB	0xb4, 0               	JB	(_stop_ctl + 1), 0
00088c   c88f     JMP	#0x88f               	JMP	_00067_DS_
00088d   e101     MOVB	#0x01               	BANKSEL	_P9LR_bits
00088e   6d49     SET	0x49, 5              	SET	_P9LR_bits, 5
                                           _00067_DS_
00088f   e100     MOVB	#0x00               	BANKSEL	(_stop_ctl + 1)
000890   79b4     JB	0xb4, 1               	JB	(_stop_ctl + 1), 1
000891   c894     JMP	#0x894               	JMP	_00069_DS_
000892   e101     MOVB	#0x01               	BANKSEL	_P9LR_bits
000893   6c49     SET	0x49, 4              	SET	_P9LR_bits, 4
                                           _00069_DS_
000894   e100     MOVB	#0x00               	BANKSEL	(_stop_ctl + 1)
000895   7ab4     JB	0xb4, 2               	JB	(_stop_ctl + 1), 2
000896   c898     JMP	#0x898               	JMP	_00071_DS_
                                           	BANKSEL	_P4LR_bits
000897   6b49     SET	0x49, 3              	SET	_P4LR_bits, 3
                                           _00071_DS_
                                           	BANKSEL	(_stop_ctl + 1)
000898   7bb4     JB	0xb4, 3               	JB	(_stop_ctl + 1), 3
000899   c89b     JMP	#0x89b               	JMP	_00073_DS_
                                           	BANKSEL	_P4LR_bits
00089a   6d49     SET	0x49, 5              	SET	_P4LR_bits, 5
                                           _00073_DS_
00089b   9801     MOV	R0, #0x1             	MOV	R0,# 0x01
                                           	BANKSEL	_var
00089c   5187     MOV	0x87, R0             	MOV	_var, R0
                                           _00080_DS_
                                           	BANKSEL	r0x1012
00089d   0382     CLR	0x82                 	CLR	r0x1012
                                           	BANKSEL	_EIF1_bits
00089e   790c     JB	0xc, 1                	JB	_EIF1_bits, 1
00089f   c8a1     JMP	#0x8a1               	JMP	_00142_DS_
                                           	BANKSEL	r0x1012
0008a0   0b82     INC	0x82                 	INC	r0x1012
                                           _00142_DS_
                                           	BANKSEL	r0x1014
0008a1   0380     CLR	0x80                 	CLR	r0x1014
                                           	BANKSEL	_EIE1_bits
0008a2   792c     JB	0x2c, 1               	JB	_EIE1_bits, 1
0008a3   c8a5     JMP	#0x8a5               	JMP	_00143_DS_
                                           	BANKSEL	r0x1014
0008a4   0b80     INC	0x80                 	INC	r0x1014
                                           _00143_DS_
                                           	BANKSEL	r0x1014
0008a5   0e80     MOVZ	R0, 0x80            	MOVZ	R0, r0x1014
                                           	BANKSEL	r0x1012
0008a6   2982     AND	0x82, R0             	AND	r0x1012, R0
0008a7   9800     MOV	R0, #0               	MOV	R0,# 0x00
                                           	BANKSEL	r0x1012
0008a8   3082     ORL	R0, 0x82             	ORL	R0, r0x1012
0008a9   7203     JNB	0x3, 2               	JNB	PSW, 2
0008aa   c8d5     JMP	#0x8d5               	JMP	_00089_DS_
                                           	BANKSEL	_EIF1_bits
0008ab   610c     CLR	0xc, 1               	CLR	_EIF1_bits, 1
                                           	BANKSEL	_mode_rt
0008ac   0e8a     MOVZ	R0, 0x8a            	MOVZ	R0, _mode_rt
0008ad   a802     XOR	R0, #0x2             	XOR	R0,# 0x02
0008ae   7a03     JB	0x3, 2                	JB	PSW, 2
0008af   c8d5     JMP	#0x8d5               	JMP	_00089_DS_
                                           	BANKSEL	_RT_cnt
0008b0   0bbb     INC	0xbb                 	INC	_RT_cnt
0008b1   7a03     JB	0x3, 2                	JB	PSW, 2
0008b2   c8b4     JMP	#0x8b4               	JMP	_00144_DS_
                                           	BANKSEL	_RT_cnt
0008b3   0bbc     INC	0xbc                 	INC	(_RT_cnt + 1)
                                           _00144_DS_
0008b4   9800     MOV	R0, #0               	MOV	R0,# 0x00
                                           	BANKSEL	_RT_cnt
0008b5   38bc     SUB	R0, 0xbc             	SUB	R0, (_RT_cnt + 1)
0008b6   7a03     JB	0x3, 2                	JB	PSW, 2
0008b7   c8ba     JMP	#0x8ba               	JMP	_00127_DS_
0008b8   980f     MOV	R0, #0xf             	MOV	R0,# 0x0f
                                           	BANKSEL	_RT_cnt
0008b9   38bb     SUB	R0, 0xbb             	SUB	R0, _RT_cnt
                                           _00127_DS_
0008ba   7803     JB	0x3, 0                	JB	PSW, 0
0008bb   c8d5     JMP	#0x8d5               	JMP	_00089_DS_
                                           	BANKSEL	_RT_cnt
0008bc   03bb     CLR	0xbb                 	CLR	_RT_cnt
                                           	BANKSEL	_RT_cnt
0008bd   03bc     CLR	0xbc                 	CLR	(_RT_cnt + 1)
                                           	BANKSEL	_RT_ctl
0008be   0eba     MOVZ	R0, 0xba            	MOVZ	R0, (_RT_ctl + 1)
0008bf   88c0     AND	R0, #0xc0            	AND	R0,# 0xc0
0008c0   7a03     JB	0x3, 2                	JB	PSW, 2
0008c1   c8d5     JMP	#0x8d5               	JMP	_00089_DS_
0008c2   9801     MOV	R0, #0x1             	MOV	R0,# 0x01
                                           	BANKSEL	_RT_ctl
0008c3   51b9     MOV	0xb9, R0             	MOV	_RT_ctl, R0
0008c4   9800     MOV	R0, #0               	MOV	R0,# 0x00
                                           	BANKSEL	_RT_ctl
0008c5   51ba     MOV	0xba, R0             	MOV	(_RT_ctl + 1), R0
                                           	BANKSEL	_RT_ctl_1
0008c6   0eb7     MOVZ	R0, 0xb7            	MOVZ	R0, _RT_ctl_1
0008c7   ff10     INC	R0                   	INC	R0
0008c8   c8cd     JMP	#0x8cd               	JMP	_00131_DS_
                                           _00130_DS_
0008c9   6003     CLR	0x3, 0               	CLR	PSW, 0
0008ca   e100     MOVB	#0x00               	BANKSEL	_RT_ctl
0008cb   13b9     RLC	0xb9                 	RLC	_RT_ctl
                                           	BANKSEL	_RT_ctl
0008cc   13ba     RLC	0xba                 	RLC	(_RT_ctl + 1)
                                           _00131_DS_
0008cd   ff58     DECJZ	R0                 	DECJZ	R0
0008ce   c8c9     JMP	#0x8c9               	JMP	_00130_DS_
                                           	BANKSEL	_RT_ctl_1
0008cf   0bb7     INC	0xb7                 	INC	_RT_ctl_1
0008d0   7a03     JB	0x3, 2                	JB	PSW, 2
0008d1   c8d3     JMP	#0x8d3               	JMP	_00145_DS_
                                           	BANKSEL	_RT_ctl_1
0008d2   0bb8     INC	0xb8                 	INC	(_RT_ctl_1 + 1)
                                           _00145_DS_
0008d3   9801     MOV	R0, #0x1             	MOV	R0,# 0x01
                                           	BANKSEL	_flash_flag
0008d4   5186     MOV	0x86, R0             	MOV	_flash_flag, R0
                                           _00089_DS_
                                           	BANKSEL	I0R1
0008d5   52bf     MOV	R1, 0xbf             	MOV	R1, I0R1
                                           	BANKSEL	I0R7
0008d6   5ec0     MOV	R7, 0xc0             	MOV	R7, I0R7
                                           	BANKSEL	I0PSW
0008d7   50c1     MOV	R0, 0xc1             	MOV	R0, I0PSW
0008d8   5103     MOV	0x3, R0              	MOV	PSW, R0
0008d9   5073     MOV	R0, 0x73             	MOV	R0, TRAPRx73
0008da   7176     JNB	0x76, 1              	JNB	TRAPRx76, 1
0008db   5074     MOV	R0, 0x74             	MOV	R0, TRAPRx74
0008dc   6276     CLR	0x76, 2              	CLR	TRAPRx76, 2
0008dd   510a     MOV	0xa, R0              	MOV	PCH, R0
0008de   5717     MOV	0x17, R3             	MOV	BANK, R3
0008df   f8d0     MOV	R0, R2               	MOV	R0, R2
0008e0   0009     IRET                     	IRET	
                                           func._int_fun1	.code
                                           _int_fun1	;Function start
                                           interrupt_service_routine_0x14
                                           _00132_DS_
                                           	IRET	
                                           func._main	.code
                                           _main	;Function start
000cfd   9878     MOV	R0, #0x78            	MOV	R0,# 0x78
000cfe   e100     MOVB	#0x00               	BANKSEL	_SCLKCTL
000cff   5169     MOV	0x69, R0             	MOV	_SCLKCTL, R0
000d00   988e     MOV	R0, #0x8e            	MOV	R0,# 0x8e
                                           	BANKSEL	_HFCKCTL
000d01   516a     MOV	0x6a, R0             	MOV	_HFCKCTL, R0
000d02   9f70     MOV	R7, #0x70            	TRAPPC1	_Init_T0
000d03   5f73     MOV	0x73, R7             	TRAPPC2	_Init_T0
000d04   e070     MOVP	#0x70               	PAGESEL	_Init_T0
000d05   d0a5     CALL	#0xa5               	CALL	_Init_T0
000d06   9f0d     MOV	R7, #0xd             	TRAPPC1	$+2
000d07   5f73     MOV	0x73, R7             	TRAPPC2	$+1
000d08   e00d     MOVP	#0x0D               	PAGESEL	$
000d09   9f70     MOV	R7, #0x70            	TRAPPC1	_Init_T1
000d0a   5f73     MOV	0x73, R7             	TRAPPC2	_Init_T1
000d0b   e070     MOVP	#0x70               	PAGESEL	_Init_T1
000d0c   d099     CALL	#0x99               	CALL	_Init_T1
000d0d   9f0d     MOV	R7, #0xd             	TRAPPC1	$+2
000d0e   5f73     MOV	0x73, R7             	TRAPPC2	$+1
000d0f   e00d     MOVP	#0x0D               	PAGESEL	$
000d10   9f70     MOV	R7, #0x70            	TRAPPC1	_Init_T2
000d11   5f73     MOV	0x73, R7             	TRAPPC2	_Init_T2
000d12   e070     MOVP	#0x70               	PAGESEL	_Init_T2
000d13   d08a     CALL	#0x8a               	CALL	_Init_T2
000d14   9f0d     MOV	R7, #0xd             	TRAPPC1	$+2
000d15   5f73     MOV	0x73, R7             	TRAPPC2	$+1
000d16   e00d     MOVP	#0x0D               	PAGESEL	$
000d17   9f0f     MOV	R7, #0xf             	TRAPPC1	_Init_IO
000d18   5f73     MOV	0x73, R7             	TRAPPC2	_Init_IO
000d19   e00f     MOVP	#0x0F               	PAGESEL	_Init_IO
000d1a   df1f     CALL	#0xf1f              	CALL	_Init_IO
000d1b   9f0d     MOV	R7, #0xd             	TRAPPC1	$+2
000d1c   5f73     MOV	0x73, R7             	TRAPPC2	$+1
000d1d   e00d     MOVP	#0x0D               	PAGESEL	$
000d1e   9f0f     MOV	R7, #0xf             	TRAPPC1	_Init_SPI
000d1f   5f73     MOV	0x73, R7             	TRAPPC2	_Init_SPI
000d20   e00f     MOVP	#0x0F               	PAGESEL	_Init_SPI
000d21   dfe5     CALL	#0xfe5              	CALL	_Init_SPI
000d22   9f0d     MOV	R7, #0xd             	TRAPPC1	$+2
000d23   5f73     MOV	0x73, R7             	TRAPPC2	$+1
000d24   e00d     MOVP	#0x0D               	PAGESEL	$
000d25   9f0c     MOV	R7, #0xc             	TRAPPC1	_IS31FL3265B_Init
000d26   5f73     MOV	0x73, R7             	TRAPPC2	_IS31FL3265B_Init
000d27   e00c     MOVP	#0x0C               	PAGESEL	_IS31FL3265B_Init
000d28   dc92     CALL	#0xc92              	CALL	_IS31FL3265B_Init
000d29   9f0d     MOV	R7, #0xd             	TRAPPC1	$+2
000d2a   5f73     MOV	0x73, R7             	TRAPPC2	$+1
000d2b   e00d     MOVP	#0x0D               	PAGESEL	$
000d2c   e100     MOVB	#0x00               	BANKSEL	_INTCTL_bits
000d2d   6e0b     SET	0xb, 6               	SET	_INTCTL_bits, 6
                                           	BANKSEL	_INTCTL_bits
000d2e   6f0b     SET	0xb, 7               	SET	_INTCTL_bits, 7
                                           _00010_DS_
000d2f   9f05     MOV	R7, #0x5             	TRAPPC1	_check_input
000d30   5f73     MOV	0x73, R7             	TRAPPC2	_check_input
000d31   e005     MOVP	#0x05               	PAGESEL	_check_input
000d32   d5e0     CALL	#0x5e0              	CALL	_check_input
000d33   9f0d     MOV	R7, #0xd             	TRAPPC1	$+2
000d34   5f73     MOV	0x73, R7             	TRAPPC2	$+1
000d35   e00d     MOVP	#0x0D               	PAGESEL	$
000d36   9800     MOV	R0, #0               	MOV	R0,# 0x00
000d37   e100     MOVB	#0x00               	BANKSEL	_flash_flag
000d38   3086     ORL	R0, 0x86             	ORL	R0, _flash_flag
000d39   7203     JNB	0x3, 2               	JNB	PSW, 2
000d3a   cd46     JMP	#0xd46               	JMP	_00002_DS_
                                           	BANKSEL	_flash_flag
000d3b   0386     CLR	0x86                 	CLR	_flash_flag
                                           	BANKSEL	_RT_ctl
000d3c   0eb9     MOVZ	R0, 0xb9            	MOVZ	R0, _RT_ctl
                                           	BANKSEL	STK00
000d3d   51d2     MOV	0xd2, R0             	MOV	STK00, R0
                                           	BANKSEL	_RT_ctl
000d3e   0eba     MOVZ	R0, 0xba            	MOVZ	R0, (_RT_ctl + 1)
000d3f   9f00     MOV	R7, #0               	TRAPPC1	_Reflash_rt_flow
000d40   5f73     MOV	0x73, R7             	TRAPPC2	_Reflash_rt_flow
000d41   e000     MOVP	#0x00               	PAGESEL	_Reflash_rt_flow
000d42   d010     CALL	#0x10               	CALL	_Reflash_rt_flow
000d43   9f0d     MOV	R7, #0xd             	TRAPPC1	$+2
000d44   5f73     MOV	0x73, R7             	TRAPPC2	$+1
000d45   e00d     MOVP	#0x0D               	PAGESEL	$
                                           _00002_DS_
000d46   9800     MOV	R0, #0               	MOV	R0,# 0x00
000d47   e100     MOVB	#0x00               	BANKSEL	_ms_flag
000d48   3083     ORL	R0, 0x83             	ORL	R0, _ms_flag
000d49   7203     JNB	0x3, 2               	JNB	PSW, 2
000d4a   cd2f     JMP	#0xd2f               	JMP	_00010_DS_
                                           	BANKSEL	_ms_flag
000d4b   0383     CLR	0x83                 	CLR	_ms_flag
                                           	BANKSEL	_Mode
000d4c   0e84     MOVZ	R0, 0x84            	MOVZ	R0, _Mode
000d4d   a801     XOR	R0, #0x1             	XOR	R0,# 0x01
000d4e   7a03     JB	0x3, 2                	JB	PSW, 2
000d4f   cd57     JMP	#0xd57               	JMP	_00004_DS_
000d50   9f06     MOV	R7, #0x6             	TRAPPC1	_LED_Hello
000d51   5f73     MOV	0x73, R7             	TRAPPC2	_LED_Hello
000d52   e006     MOVP	#0x06               	PAGESEL	_LED_Hello
000d53   d6ed     CALL	#0x6ed              	CALL	_LED_Hello
000d54   9f0d     MOV	R7, #0xd             	TRAPPC1	$+2
000d55   5f73     MOV	0x73, R7             	TRAPPC2	$+1
000d56   e00d     MOVP	#0x0D               	PAGESEL	$
                                           _00004_DS_
000d57   e100     MOVB	#0x00               	BANKSEL	_Mode
000d58   0e84     MOVZ	R0, 0x84            	MOVZ	R0, _Mode
000d59   a802     XOR	R0, #0x2             	XOR	R0,# 0x02
000d5a   7a03     JB	0x3, 2                	JB	PSW, 2
000d5b   cd2f     JMP	#0xd2f               	JMP	_00010_DS_
000d5c   9f09     MOV	R7, #0x9             	TRAPPC1	_LED_ByeBye
000d5d   5f73     MOV	0x73, R7             	TRAPPC2	_LED_ByeBye
000d5e   e009     MOVP	#0x09               	PAGESEL	_LED_ByeBye
000d5f   d9cc     CALL	#0x9cc              	CALL	_LED_ByeBye
000d60   9f0d     MOV	R7, #0xd             	TRAPPC1	$+2
000d61   5f73     MOV	0x73, R7             	TRAPPC2	$+1
000d62   e00d     MOVP	#0x0D               	PAGESEL	$
000d63   cd2f     JMP	#0xd2f               	JMP	_00010_DS_
000d64   0008     CRET                     	CRET	
                                           	.end
                                           .config
008007   06d4     DECR	0xd4               
008008   ffff     NOPZ                    
                                           func.__h16udiv8
007046   e100     MOVB	#0x00              
007047   52d2     MOV	R1, 0xd2            
007048   e101     MOVB	#0x01              
007049   033a     CLR	0x3a                
00704a   513b     MOV	0x3b, R0            
00704b   533c     MOV	0x3c, R1            
00704c   e100     MOVB	#0x00              
00704d   50d1     MOV	R0, 0xd1            
00704e   e101     MOVB	#0x01              
00704f   0339     CLR	0x39                
007050   513d     MOV	0x3d, R0            
007051   683a     SET	0x3a, 0             
007052   793a     JB	0x3a, 1              
007053   c052     JMP	#0x52               
007054   033a     CLR	0x3a                
007055   523f     MOV	R1, 0x3f            
007056   503e     MOV	R0, 0x3e            
007057   e100     MOVB	#0x00              
007058   53d2     MOV	0xd2, R1            
007059   0008     CRET                    
                                           func.__hmulchar
00707a   e102     MOVB	#0x02              
00707b   034f     CLR	0x4f                
00707c   0350     CLR	0x50                
00707d   0349     CLR	0x49                
00707e   5148     MOV	0x48, R0            
00707f   e100     MOVB	#0x00              
007080   50d2     MOV	R0, 0xd2            
007081   e102     MOVB	#0x02              
007082   514e     MOV	0x4e, R0            
007083   694f     SET	0x4f, 1             
007084   784f     JB	0x4f, 0              
007085   c084     JMP	#0x84               
007086   034f     CLR	0x4f                
007087   504d     MOV	R0, 0x4d            
007088   0008     CRET                    
007089   0008     CRET                    
                                           func.__gsinit_startup
0070b5   9f0e     MOV	R7, #0xe            
0070b6   5f73     MOV	0x73, R7            
0070b7   e00e     MOVP	#0x0E              
0070b8   de1c     CALL	#0xe1c             
0070b9   9f70     MOV	R7, #0x70           
0070ba   5f73     MOV	0x73, R7            
0070bb   e070     MOVP	#0x70              
0070bc   0008     CRET                    
                                           _sartup_A100GQS
000f7a   e100     MOVB	#0x00              
000f7b   6f53     SET	0x53, 7             
000f7c   6853     SET	0x53, 0             
000f7d   e070     MOVP	#0x70              
000f7e   dffb     CALL	#0xffb             
000f7f   e103     MOVB	#0x03              
000f80   5161     MOV	0x61, R0            
000f81   ffff     NOPZ                    
000f82   ffff     NOPZ                    
000f83   dff8     CALL	#0xff8             
000f84   5165     MOV	0x65, R0            
000f85   ffff     NOPZ                    
000f86   ffff     NOPZ                    
000f87   e100     MOVB	#0x00              
000f88   6753     CLR	0x53, 7             
000f89   dffe     CALL	#0xffe             
000f8a   e100     MOVB	#0x00              
000f8b   5137     MOV	0x37, R0            
000f8c   ffff     NOPZ                    
000f8d   ffff     NOPZ                    
000f8e   dffd     CALL	#0xffd             
000f8f   5130     MOV	0x30, R0            
000f90   ffff     NOPZ                    
000f91   ffff     NOPZ                    
000f92   dffc     CALL	#0xffc             
000f93   e101     MOVB	#0x01              
000f94   5132     MOV	0x32, R0            
000f95   ffff     NOPZ                    
000f96   ffff     NOPZ                    
000f97   dffa     CALL	#0xffa             
000f98   e102     MOVB	#0x02              
000f99   513b     MOV	0x3b, R0            
000f9a   ffff     NOPZ                    
000f9b   dff9     CALL	#0xff9             
000f9c   513c     MOV	0x3c, R0            
000f9d   ffff     NOPZ                    
000f9e   0008     CRET                    
                                           .cinit
000e1c   e100     MOVB	#0x00              
000e1d   9880     MOV	R0, #0x80           
000e1e   9903     MOV	R1, #0x3            
000e1f   e00e     MOVP	#0x0E              
000e20   de5a     CALL	#0xe5a             
000e21   9888     MOV	R0, #0x88           
000e22   9903     MOV	R1, #0x3            
000e23   e00e     MOVP	#0x0E              
000e24   de5a     CALL	#0xe5a             
000e25   9890     MOV	R0, #0x90           
000e26   9921     MOV	R1, #0x21           
000e27   e00e     MOVP	#0x0E              
000e28   de5a     CALL	#0xe5a             
000e29   98bd     MOV	R0, #0xbd           
000e2a   9916     MOV	R1, #0x16           
000e2b   e00e     MOVP	#0x0E              
000e2c   de5a     CALL	#0xe5a             
000e2d   9800     MOV	R0, #0              
000e2e   5173     MOV	0x73, R0            
000e2f   5174     MOV	0x74, R0            
000e30   5175     MOV	0x75, R0            
000e31   5176     MOV	0x76, R0            
000e32   5177     MOV	0x77, R0            
000e33   9800     MOV	R0, #0              
000e34   5183     MOV	0x83, R0            
000e35   9800     MOV	R0, #0              
000e36   5184     MOV	0x84, R0            
000e37   9800     MOV	R0, #0              
000e38   5185     MOV	0x85, R0            
000e39   9800     MOV	R0, #0              
000e3a   5186     MOV	0x86, R0            
000e3b   9800     MOV	R0, #0              
000e3c   5187     MOV	0x87, R0            
000e3d   98ff     MOV	R0, #0xff           
000e3e   518b     MOV	0x8b, R0            
000e3f   98ff     MOV	R0, #0xff           
000e40   518c     MOV	0x8c, R0            
000e41   9800     MOV	R0, #0              
000e42   518d     MOV	0x8d, R0            
000e43   9800     MOV	R0, #0              
000e44   518e     MOV	0x8e, R0            
000e45   9800     MOV	R0, #0              
000e46   518f     MOV	0x8f, R0            
000e47   9800     MOV	R0, #0              
000e48   51b1     MOV	0xb1, R0            
000e49   51b2     MOV	0xb2, R0            
000e4a   9800     MOV	R0, #0              
000e4b   51b3     MOV	0xb3, R0            
000e4c   51b4     MOV	0xb4, R0            
000e4d   9800     MOV	R0, #0              
000e4e   51b5     MOV	0xb5, R0            
000e4f   51b6     MOV	0xb6, R0            
000e50   9800     MOV	R0, #0              
000e51   51b7     MOV	0xb7, R0            
000e52   51b8     MOV	0xb8, R0            
000e53   9800     MOV	R0, #0              
000e54   51b9     MOV	0xb9, R0            
000e55   51ba     MOV	0xba, R0            
000e56   9800     MOV	R0, #0              
000e57   51bb     MOV	0xbb, R0            
000e58   51bc     MOV	0xbc, R0            
000e59   0008     CRET                    
000e5a   020a     CLR	R2                  
000e5b   f750     ST	[R0], R2             
000e5c   ff10     INC	R0                  
000e5d   ff59     DECJZ	R1                
000e5e   ce5b     JMP	#0xe5b              
000e5f   0008     CRET                    
