gplink-2.0.0
Copyright (c) IDE Tool Project
 
 
Address  Value    Disassembly              Source
-------  -----    -----------              ------
                                           	.radix dec
                                           	.include "KF8A100GQS.inc"
                                           func._Tail1_2_Stop_FullWater_Close	.code
                                           _Tail1_2_Stop_FullWater_Close	;Function start
000010   98ff     MOV	R0, #0xff            	MOV	R0,# 0xff
000011   e100     MOVB	#0x00               	BANKSEL	_Stop_High_Addr
000012   51e3     MOV	0xe3, R0             	MOV	_Stop_High_Addr, R0
000013   980f     MOV	R0, #0xf             	MOV	R0,# 0x0f
                                           	BANKSEL	_Stop_High_Addr
000014   51e4     MOV	0xe4, R0             	MOV	(_Stop_High_Addr + 1), R0
000015   98ff     MOV	R0, #0xff            	MOV	R0,# 0xff
                                           	BANKSEL	_Stop_Low_Addr
000016   51cb     MOV	0xcb, R0             	MOV	_Stop_Low_Addr, R0
000017   980f     MOV	R0, #0xf             	MOV	R0,# 0x0f
                                           	BANKSEL	_Stop_Low_Addr
000018   51cc     MOV	0xcc, R0             	MOV	(_Stop_Low_Addr + 1), R0
000019   982b     MOV	R0, #0x2b            	MOV	R0,# 0x2b
                                           	BANKSEL	r0x1010
00001a   51a5     MOV	0xa5, R0             	MOV	r0x1010, R0
                                           _00227_DS_
00001b   981f     MOV	R0, #0x1f            	MOV	R0,# 0x1f
                                           	BANKSEL	r0x1010
00001c   38a5     SUB	R0, 0xa5             	SUB	R0, r0x1010
00001d   7803     JB	0x3, 0                	JB	PSW, 0
00001e   c074     JMP	#0x74                	JMP	_00230_DS_
                                           	BANKSEL	r0x1010
00001f   0ea5     MOVZ	R0, 0xa5            	MOVZ	R0, r0x1010
                                           	BANKSEL	r0x1011
000020   51a4     MOV	0xa4, R0             	MOV	r0x1011, R0
                                           	BANKSEL	r0x1012
000021   03a3     CLR	0xa3                 	CLR	r0x1012
000022   98e1     MOV	R0, #0xe1            	MOV	R0,# 0xe1
                                           	BANKSEL	r0x1011
000023   21a4     ADD	0xa4, R0             	ADD	r0x1011, R0
000024   7003     JNB	0x3, 0               	JNB	PSW, 0
000025   c027     JMP	#0x27                	JMP	_00321_DS_
                                           	BANKSEL	r0x1012
000026   07a3     DEC	0xa3                 	DEC	r0x1012
                                           _00321_DS_
000027   9801     MOV	R0, #0x1             	MOV	R0,# 0x01
                                           	BANKSEL	r0x1013
000028   51a2     MOV	0xa2, R0             	MOV	r0x1013, R0
000029   9800     MOV	R0, #0               	MOV	R0,# 0x00
                                           	BANKSEL	r0x1014
00002a   51a1     MOV	0xa1, R0             	MOV	r0x1014, R0
                                           	BANKSEL	r0x1011
00002b   0ea4     MOVZ	R0, 0xa4            	MOVZ	R0, r0x1011
00002c   ff10     INC	R0                   	INC	R0
00002d   c032     JMP	#0x32                	JMP	_00303_DS_
                                           _00302_DS_
00002e   6003     CLR	0x3, 0               	CLR	PSW, 0
00002f   e100     MOVB	#0x00               	BANKSEL	r0x1013
000030   13a2     RLC	0xa2                 	RLC	r0x1013
                                           	BANKSEL	r0x1014
000031   13a1     RLC	0xa1                 	RLC	r0x1014
                                           _00303_DS_
000032   ff58     DECJZ	R0                 	DECJZ	R0
000033   c02e     JMP	#0x2e                	JMP	_00302_DS_
                                           	BANKSEL	r0x1013
000034   0ea2     MOVZ	R0, 0xa2            	MOVZ	R0, r0x1013
                                           	BANKSEL	r0x1011
000035   51a4     MOV	0xa4, R0             	MOV	r0x1011, R0
                                           	BANKSEL	_Stop_Low_Addr
000036   39cb     SUB	0xcb, R0             	SUB	_Stop_Low_Addr, R0
                                           	BANKSEL	r0x1014
000037   0ea1     MOVZ	R0, 0xa1            	MOVZ	R0, r0x1014
                                           	BANKSEL	r0x1012
000038   51a3     MOV	0xa3, R0             	MOV	r0x1012, R0
000039   7803     JB	0x3, 0                	JB	PSW, 0
00003a   ff10     INC	R0                   	INC	R0
00003b   7203     JNB	0x3, 2               	JNB	PSW, 2
00003c   c03e     JMP	#0x3e                	JMP	_00322_DS_
                                           	BANKSEL	_Stop_Low_Addr
00003d   39cc     SUB	0xcc, R0             	SUB	(_Stop_Low_Addr + 1), R0
                                           _00322_DS_
00003e   9810     MOV	R0, #0x10            	MOV	R0,# 0x10
                                           	BANKSEL	STK01
00003f   51fd     MOV	0xfd, R0             	MOV	STK01, R0
                                           	BANKSEL	r0x1010
000040   0ea5     MOVZ	R0, 0xa5            	MOVZ	R0, r0x1010
                                           	BANKSEL	STK00
000041   51fe     MOV	0xfe, R0             	MOV	STK00, R0
000042   9802     MOV	R0, #0x2             	MOV	R0,# 0x02
000043   9f0d     MOV	R7, #0xd             	TRAPPC1	_SPI_Write_2Byte
000044   5f73     MOV	0x73, R7             	TRAPPC2	_SPI_Write_2Byte
000045   e00d     MOVP	#0x0D               	PAGESEL	_SPI_Write_2Byte
000046   ddcf     CALL	#0xdcf              	CALL	_SPI_Write_2Byte
000047   9f00     MOV	R7, #0               	TRAPPC1	$+2
000048   5f73     MOV	0x73, R7             	TRAPPC2	$+1
000049   e000     MOVP	#0x00               	PAGESEL	$
00004a   e100     MOVB	#0x00               	BANKSEL	r0x1010
00004b   06a5     DECR	0xa5                	DECR	r0x1010
                                           	BANKSEL	r0x1011
00004c   51a4     MOV	0xa4, R0             	MOV	r0x1011, R0
00004d   98ff     MOV	R0, #0xff            	MOV	R0,# 0xff
                                           	BANKSEL	STK01
00004e   51fd     MOV	0xfd, R0             	MOV	STK01, R0
                                           	BANKSEL	r0x1011
00004f   0ea4     MOVZ	R0, 0xa4            	MOVZ	R0, r0x1011
                                           	BANKSEL	STK00
000050   51fe     MOV	0xfe, R0             	MOV	STK00, R0
000051   9802     MOV	R0, #0x2             	MOV	R0,# 0x02
000052   9f0d     MOV	R7, #0xd             	TRAPPC1	_SPI_Write_2Byte
000053   5f73     MOV	0x73, R7             	TRAPPC2	_SPI_Write_2Byte
000054   e00d     MOVP	#0x0D               	PAGESEL	_SPI_Write_2Byte
000055   ddcf     CALL	#0xdcf              	CALL	_SPI_Write_2Byte
000056   9f00     MOV	R7, #0               	TRAPPC1	$+2
000057   5f73     MOV	0x73, R7             	TRAPPC2	$+1
000058   e000     MOVP	#0x00               	PAGESEL	$
000059   9800     MOV	R0, #0               	MOV	R0,# 0x00
00005a   e100     MOVB	#0x00               	BANKSEL	STK01
00005b   51fd     MOV	0xfd, R0             	MOV	STK01, R0
00005c   9837     MOV	R0, #0x37            	MOV	R0,# 0x37
                                           	BANKSEL	STK00
00005d   51fe     MOV	0xfe, R0             	MOV	STK00, R0
00005e   9802     MOV	R0, #0x2             	MOV	R0,# 0x02
00005f   9f0d     MOV	R7, #0xd             	TRAPPC1	_SPI_Write_2Byte
000060   5f73     MOV	0x73, R7             	TRAPPC2	_SPI_Write_2Byte
000061   e00d     MOVP	#0x0D               	PAGESEL	_SPI_Write_2Byte
000062   ddcf     CALL	#0xdcf              	CALL	_SPI_Write_2Byte
000063   9f00     MOV	R7, #0               	TRAPPC1	$+2
000064   5f73     MOV	0x73, R7             	TRAPPC2	$+1
000065   e000     MOVP	#0x00               	PAGESEL	$
000066   9841     MOV	R0, #0x41            	MOV	R0,# 0x41
000067   e100     MOVB	#0x00               	BANKSEL	STK00
000068   51fe     MOV	0xfe, R0             	MOV	STK00, R0
000069   9800     MOV	R0, #0               	MOV	R0,# 0x00
00006a   9f0e     MOV	R7, #0xe             	TRAPPC1	_delay_ms
00006b   5f73     MOV	0x73, R7             	TRAPPC2	_delay_ms
00006c   e00e     MOVP	#0x0E               	PAGESEL	_delay_ms
00006d   de87     CALL	#0xe87              	CALL	_delay_ms
00006e   9f00     MOV	R7, #0               	TRAPPC1	$+2
00006f   5f73     MOV	0x73, R7             	TRAPPC2	$+1
000070   e000     MOVP	#0x00               	PAGESEL	$
000071   e100     MOVB	#0x00               	BANKSEL	r0x1010
000072   07a5     DEC	0xa5                 	DEC	r0x1010
000073   c01b     JMP	#0x1b                	JMP	_00227_DS_
                                           _00230_DS_
                                           	BANKSEL	_Stop_High_Addr
000074   03e3     CLR	0xe3                 	CLR	_Stop_High_Addr
                                           	BANKSEL	_Stop_High_Addr
000075   03e4     CLR	0xe4                 	CLR	(_Stop_High_Addr + 1)
                                           	BANKSEL	_Stop_Low_Addr
000076   03cb     CLR	0xcb                 	CLR	_Stop_Low_Addr
                                           	BANKSEL	_Stop_Low_Addr
000077   03cc     CLR	0xcc                 	CLR	(_Stop_Low_Addr + 1)
000078   982b     MOV	R0, #0x2b            	MOV	R0,# 0x2b
                                           	BANKSEL	r0x1010
000079   51a5     MOV	0xa5, R0             	MOV	r0x1010, R0
                                           _00231_DS_
00007a   9820     MOV	R0, #0x20            	MOV	R0,# 0x20
                                           	BANKSEL	r0x1010
00007b   38a5     SUB	R0, 0xa5             	SUB	R0, r0x1010
00007c   7803     JB	0x3, 0                	JB	PSW, 0
00007d   c0da     JMP	#0xda                	JMP	_00234_DS_
                                           	BANKSEL	r0x1010
00007e   0ea5     MOVZ	R0, 0xa5            	MOVZ	R0, r0x1010
                                           	BANKSEL	r0x1011
00007f   51a4     MOV	0xa4, R0             	MOV	r0x1011, R0
                                           	BANKSEL	r0x1012
000080   03a3     CLR	0xa3                 	CLR	r0x1012
000081   98e1     MOV	R0, #0xe1            	MOV	R0,# 0xe1
                                           	BANKSEL	r0x1011
000082   21a4     ADD	0xa4, R0             	ADD	r0x1011, R0
000083   7003     JNB	0x3, 0               	JNB	PSW, 0
000084   c086     JMP	#0x86                	JMP	_00323_DS_
                                           	BANKSEL	r0x1012
000085   07a3     DEC	0xa3                 	DEC	r0x1012
                                           _00323_DS_
                                           	BANKSEL	r0x1011
000086   0ea4     MOVZ	R0, 0xa4            	MOVZ	R0, r0x1011
000087   a00d     SUB	R0, #0xd             	SUB	R0,# 0x0d
                                           	BANKSEL	r0x1011
000088   51a4     MOV	0xa4, R0             	MOV	r0x1011, R0
                                           	BANKSEL	r0x1012
000089   0ea3     MOVZ	R0, 0xa3            	MOVZ	R0, r0x1012
00008a   7003     JNB	0x3, 0               	JNB	PSW, 0
00008b   c08d     JMP	#0x8d                	JMP	_00324_DS_
                                           	BANKSEL	r0x1012
00008c   0aa3     INCR	0xa3                	INCR	r0x1012
                                           _00324_DS_
00008d   a000     SUB	R0, #0               	SUB	R0,# 0x00
                                           	BANKSEL	r0x1012
00008e   51a3     MOV	0xa3, R0             	MOV	r0x1012, R0
00008f   9801     MOV	R0, #0x1             	MOV	R0,# 0x01
                                           	BANKSEL	r0x1013
000090   51a2     MOV	0xa2, R0             	MOV	r0x1013, R0
000091   9800     MOV	R0, #0               	MOV	R0,# 0x00
                                           	BANKSEL	r0x1014
000092   51a1     MOV	0xa1, R0             	MOV	r0x1014, R0
                                           	BANKSEL	r0x1011
000093   0ea4     MOVZ	R0, 0xa4            	MOVZ	R0, r0x1011
000094   ff10     INC	R0                   	INC	R0
000095   c09a     JMP	#0x9a                	JMP	_00306_DS_
                                           _00305_DS_
000096   6003     CLR	0x3, 0               	CLR	PSW, 0
000097   e100     MOVB	#0x00               	BANKSEL	r0x1013
000098   13a2     RLC	0xa2                 	RLC	r0x1013
                                           	BANKSEL	r0x1014
000099   13a1     RLC	0xa1                 	RLC	r0x1014
                                           _00306_DS_
00009a   ff58     DECJZ	R0                 	DECJZ	R0
00009b   c096     JMP	#0x96                	JMP	_00305_DS_
                                           	BANKSEL	r0x1013
00009c   0ea2     MOVZ	R0, 0xa2            	MOVZ	R0, r0x1013
                                           	BANKSEL	_Stop_Low_Addr
00009d   51cb     MOV	0xcb, R0             	MOV	_Stop_Low_Addr, R0
                                           	BANKSEL	r0x1014
00009e   0ea1     MOVZ	R0, 0xa1            	MOVZ	R0, r0x1014
                                           	BANKSEL	_Stop_Low_Addr
00009f   51cc     MOV	0xcc, R0             	MOV	(_Stop_Low_Addr + 1), R0
                                           	BANKSEL	_Stop_Low_Addr
0000a0   04cb     CPLR	0xcb                	CPLR	_Stop_Low_Addr
                                           	BANKSEL	_Stop_High_Addr
0000a1   51e3     MOV	0xe3, R0             	MOV	_Stop_High_Addr, R0
                                           	BANKSEL	_Stop_Low_Addr
0000a2   04cc     CPLR	0xcc                	CPLR	(_Stop_Low_Addr + 1)
                                           	BANKSEL	_Stop_High_Addr
0000a3   51e4     MOV	0xe4, R0             	MOV	(_Stop_High_Addr + 1), R0
0000a4   9810     MOV	R0, #0x10            	MOV	R0,# 0x10
                                           	BANKSEL	STK01
0000a5   51fd     MOV	0xfd, R0             	MOV	STK01, R0
                                           	BANKSEL	r0x1010
0000a6   0ea5     MOVZ	R0, 0xa5            	MOVZ	R0, r0x1010
                                           	BANKSEL	STK00
0000a7   51fe     MOV	0xfe, R0             	MOV	STK00, R0
0000a8   9801     MOV	R0, #0x1             	MOV	R0,# 0x01
0000a9   9f0d     MOV	R7, #0xd             	TRAPPC1	_SPI_Write_2Byte
0000aa   5f73     MOV	0x73, R7             	TRAPPC2	_SPI_Write_2Byte
0000ab   e00d     MOVP	#0x0D               	PAGESEL	_SPI_Write_2Byte
0000ac   ddcf     CALL	#0xdcf              	CALL	_SPI_Write_2Byte
0000ad   9f00     MOV	R7, #0               	TRAPPC1	$+2
0000ae   5f73     MOV	0x73, R7             	TRAPPC2	$+1
0000af   e000     MOVP	#0x00               	PAGESEL	$
0000b0   e100     MOVB	#0x00               	BANKSEL	r0x1010
0000b1   06a5     DECR	0xa5                	DECR	r0x1010
                                           	BANKSEL	r0x1011
0000b2   51a4     MOV	0xa4, R0             	MOV	r0x1011, R0
0000b3   98ff     MOV	R0, #0xff            	MOV	R0,# 0xff
                                           	BANKSEL	STK01
0000b4   51fd     MOV	0xfd, R0             	MOV	STK01, R0
                                           	BANKSEL	r0x1011
0000b5   0ea4     MOVZ	R0, 0xa4            	MOVZ	R0, r0x1011
                                           	BANKSEL	STK00
0000b6   51fe     MOV	0xfe, R0             	MOV	STK00, R0
0000b7   9801     MOV	R0, #0x1             	MOV	R0,# 0x01
0000b8   9f0d     MOV	R7, #0xd             	TRAPPC1	_SPI_Write_2Byte
0000b9   5f73     MOV	0x73, R7             	TRAPPC2	_SPI_Write_2Byte
0000ba   e00d     MOVP	#0x0D               	PAGESEL	_SPI_Write_2Byte
0000bb   ddcf     CALL	#0xdcf              	CALL	_SPI_Write_2Byte
0000bc   9f00     MOV	R7, #0               	TRAPPC1	$+2
0000bd   5f73     MOV	0x73, R7             	TRAPPC2	$+1
0000be   e000     MOVP	#0x00               	PAGESEL	$
0000bf   9800     MOV	R0, #0               	MOV	R0,# 0x00
0000c0   e100     MOVB	#0x00               	BANKSEL	STK01
0000c1   51fd     MOV	0xfd, R0             	MOV	STK01, R0
0000c2   9837     MOV	R0, #0x37            	MOV	R0,# 0x37
                                           	BANKSEL	STK00
0000c3   51fe     MOV	0xfe, R0             	MOV	STK00, R0
0000c4   9801     MOV	R0, #0x1             	MOV	R0,# 0x01
0000c5   9f0d     MOV	R7, #0xd             	TRAPPC1	_SPI_Write_2Byte
0000c6   5f73     MOV	0x73, R7             	TRAPPC2	_SPI_Write_2Byte
0000c7   e00d     MOVP	#0x0D               	PAGESEL	_SPI_Write_2Byte
0000c8   ddcf     CALL	#0xdcf              	CALL	_SPI_Write_2Byte
0000c9   9f00     MOV	R7, #0               	TRAPPC1	$+2
0000ca   5f73     MOV	0x73, R7             	TRAPPC2	$+1
0000cb   e000     MOVP	#0x00               	PAGESEL	$
0000cc   9841     MOV	R0, #0x41            	MOV	R0,# 0x41
0000cd   e100     MOVB	#0x00               	BANKSEL	STK00
0000ce   51fe     MOV	0xfe, R0             	MOV	STK00, R0
0000cf   9800     MOV	R0, #0               	MOV	R0,# 0x00
0000d0   9f0e     MOV	R7, #0xe             	TRAPPC1	_delay_ms
0000d1   5f73     MOV	0x73, R7             	TRAPPC2	_delay_ms
0000d2   e00e     MOVP	#0x0E               	PAGESEL	_delay_ms
0000d3   de87     CALL	#0xe87              	CALL	_delay_ms
0000d4   9f00     MOV	R7, #0               	TRAPPC1	$+2
0000d5   5f73     MOV	0x73, R7             	TRAPPC2	$+1
0000d6   e000     MOVP	#0x00               	PAGESEL	$
0000d7   e100     MOVB	#0x00               	BANKSEL	r0x1010
0000d8   07a5     DEC	0xa5                 	DEC	r0x1010
0000d9   c07a     JMP	#0x7a                	JMP	_00231_DS_
                                           _00234_DS_
0000da   982b     MOV	R0, #0x2b            	MOV	R0,# 0x2b
                                           	BANKSEL	r0x1010
0000db   51a5     MOV	0xa5, R0             	MOV	r0x1010, R0
                                           _00235_DS_
0000dc   981f     MOV	R0, #0x1f            	MOV	R0,# 0x1f
                                           	BANKSEL	r0x1010
0000dd   38a5     SUB	R0, 0xa5             	SUB	R0, r0x1010
0000de   7803     JB	0x3, 0                	JB	PSW, 0
0000df   c107     JMP	#0x107               	JMP	_00238_DS_
0000e0   9800     MOV	R0, #0               	MOV	R0,# 0x00
                                           	BANKSEL	STK01
0000e1   51fd     MOV	0xfd, R0             	MOV	STK01, R0
                                           	BANKSEL	r0x1010
0000e2   0ea5     MOVZ	R0, 0xa5            	MOVZ	R0, r0x1010
                                           	BANKSEL	STK00
0000e3   51fe     MOV	0xfe, R0             	MOV	STK00, R0
0000e4   9802     MOV	R0, #0x2             	MOV	R0,# 0x02
0000e5   9f0d     MOV	R7, #0xd             	TRAPPC1	_SPI_Write_2Byte
0000e6   5f73     MOV	0x73, R7             	TRAPPC2	_SPI_Write_2Byte
0000e7   e00d     MOVP	#0x0D               	PAGESEL	_SPI_Write_2Byte
0000e8   ddcf     CALL	#0xdcf              	CALL	_SPI_Write_2Byte
0000e9   9f00     MOV	R7, #0               	TRAPPC1	$+2
0000ea   5f73     MOV	0x73, R7             	TRAPPC2	$+1
0000eb   e000     MOVP	#0x00               	PAGESEL	$
0000ec   9800     MOV	R0, #0               	MOV	R0,# 0x00
0000ed   e100     MOVB	#0x00               	BANKSEL	STK01
0000ee   51fd     MOV	0xfd, R0             	MOV	STK01, R0
0000ef   9837     MOV	R0, #0x37            	MOV	R0,# 0x37
                                           	BANKSEL	STK00
0000f0   51fe     MOV	0xfe, R0             	MOV	STK00, R0
0000f1   9802     MOV	R0, #0x2             	MOV	R0,# 0x02
0000f2   9f0d     MOV	R7, #0xd             	TRAPPC1	_SPI_Write_2Byte
0000f3   5f73     MOV	0x73, R7             	TRAPPC2	_SPI_Write_2Byte
0000f4   e00d     MOVP	#0x0D               	PAGESEL	_SPI_Write_2Byte
0000f5   ddcf     CALL	#0xdcf              	CALL	_SPI_Write_2Byte
0000f6   9f00     MOV	R7, #0               	TRAPPC1	$+2
0000f7   5f73     MOV	0x73, R7             	TRAPPC2	$+1
0000f8   e000     MOVP	#0x00               	PAGESEL	$
0000f9   9841     MOV	R0, #0x41            	MOV	R0,# 0x41
0000fa   e100     MOVB	#0x00               	BANKSEL	STK00
0000fb   51fe     MOV	0xfe, R0             	MOV	STK00, R0
0000fc   9800     MOV	R0, #0               	MOV	R0,# 0x00
0000fd   9f0e     MOV	R7, #0xe             	TRAPPC1	_delay_ms
0000fe   5f73     MOV	0x73, R7             	TRAPPC2	_delay_ms
0000ff   e00e     MOVP	#0x0E               	PAGESEL	_delay_ms
000100   de87     CALL	#0xe87              	CALL	_delay_ms
000101   9f01     MOV	R7, #0x1             	TRAPPC1	$+2
000102   5f73     MOV	0x73, R7             	TRAPPC2	$+1
000103   e001     MOVP	#0x01               	PAGESEL	$
000104   e100     MOVB	#0x00               	BANKSEL	r0x1010
000105   07a5     DEC	0xa5                 	DEC	r0x1010
000106   c0dc     JMP	#0xdc                	JMP	_00235_DS_
                                           _00238_DS_
                                           	BANKSEL	_Stop_High_Addr
000107   03e3     CLR	0xe3                 	CLR	_Stop_High_Addr
                                           	BANKSEL	_Stop_High_Addr
000108   03e4     CLR	0xe4                 	CLR	(_Stop_High_Addr + 1)
                                           	BANKSEL	_Stop_Low_Addr
000109   03cb     CLR	0xcb                 	CLR	_Stop_Low_Addr
                                           	BANKSEL	_Stop_Low_Addr
00010a   03cc     CLR	0xcc                 	CLR	(_Stop_Low_Addr + 1)
00010b   982b     MOV	R0, #0x2b            	MOV	R0,# 0x2b
                                           	BANKSEL	r0x1010
00010c   51a5     MOV	0xa5, R0             	MOV	r0x1010, R0
                                           _00239_DS_
00010d   981f     MOV	R0, #0x1f            	MOV	R0,# 0x1f
                                           	BANKSEL	r0x1010
00010e   38a5     SUB	R0, 0xa5             	SUB	R0, r0x1010
00010f   7803     JB	0x3, 0                	JB	PSW, 0
000110   c13b     JMP	#0x13b               	JMP	_00242_DS_
                                           	BANKSEL	r0x1010
000111   0ea5     MOVZ	R0, 0xa5            	MOVZ	R0, r0x1010
                                           	BANKSEL	r0x1011
000112   51a4     MOV	0xa4, R0             	MOV	r0x1011, R0
                                           	BANKSEL	r0x1012
000113   03a3     CLR	0xa3                 	CLR	r0x1012
000114   98e0     MOV	R0, #0xe0            	MOV	R0,# 0xe0
                                           	BANKSEL	r0x1011
000115   21a4     ADD	0xa4, R0             	ADD	r0x1011, R0
000116   7003     JNB	0x3, 0               	JNB	PSW, 0
000117   c119     JMP	#0x119               	JMP	_00325_DS_
                                           	BANKSEL	r0x1012
000118   07a3     DEC	0xa3                 	DEC	r0x1012
                                           _00325_DS_
000119   9801     MOV	R0, #0x1             	MOV	R0,# 0x01
                                           	BANKSEL	r0x1013
00011a   51a2     MOV	0xa2, R0             	MOV	r0x1013, R0
00011b   9800     MOV	R0, #0               	MOV	R0,# 0x00
                                           	BANKSEL	r0x1014
00011c   51a1     MOV	0xa1, R0             	MOV	r0x1014, R0
                                           	BANKSEL	r0x1011
00011d   0ea4     MOVZ	R0, 0xa4            	MOVZ	R0, r0x1011
00011e   ff10     INC	R0                   	INC	R0
00011f   c124     JMP	#0x124               	JMP	_00310_DS_
                                           _00309_DS_
000120   6003     CLR	0x3, 0               	CLR	PSW, 0
000121   e100     MOVB	#0x00               	BANKSEL	r0x1013
000122   13a2     RLC	0xa2                 	RLC	r0x1013
                                           	BANKSEL	r0x1014
000123   13a1     RLC	0xa1                 	RLC	r0x1014
                                           _00310_DS_
000124   ff58     DECJZ	R0                 	DECJZ	R0
000125   c120     JMP	#0x120               	JMP	_00309_DS_
                                           	BANKSEL	r0x1013
000126   0ea2     MOVZ	R0, 0xa2            	MOVZ	R0, r0x1013
                                           	BANKSEL	_Stop_Low_Addr
000127   51cb     MOV	0xcb, R0             	MOV	_Stop_Low_Addr, R0
                                           	BANKSEL	r0x1014
000128   0ea1     MOVZ	R0, 0xa1            	MOVZ	R0, r0x1014
                                           	BANKSEL	_Stop_Low_Addr
000129   51cc     MOV	0xcc, R0             	MOV	(_Stop_Low_Addr + 1), R0
                                           	BANKSEL	_Stop_Low_Addr
00012a   04cb     CPLR	0xcb                	CPLR	_Stop_Low_Addr
                                           	BANKSEL	_Stop_High_Addr
00012b   51e3     MOV	0xe3, R0             	MOV	_Stop_High_Addr, R0
                                           	BANKSEL	_Stop_Low_Addr
00012c   04cc     CPLR	0xcc                	CPLR	(_Stop_Low_Addr + 1)
                                           	BANKSEL	_Stop_High_Addr
00012d   51e4     MOV	0xe4, R0             	MOV	(_Stop_High_Addr + 1), R0
00012e   9841     MOV	R0, #0x41            	MOV	R0,# 0x41
                                           	BANKSEL	STK00
00012f   51fe     MOV	0xfe, R0             	MOV	STK00, R0
000130   9800     MOV	R0, #0               	MOV	R0,# 0x00
000131   9f0e     MOV	R7, #0xe             	TRAPPC1	_delay_ms
000132   5f73     MOV	0x73, R7             	TRAPPC2	_delay_ms
000133   e00e     MOVP	#0x0E               	PAGESEL	_delay_ms
000134   de87     CALL	#0xe87              	CALL	_delay_ms
000135   9f01     MOV	R7, #0x1             	TRAPPC1	$+2
000136   5f73     MOV	0x73, R7             	TRAPPC2	$+1
000137   e001     MOVP	#0x01               	PAGESEL	$
000138   e100     MOVB	#0x00               	BANKSEL	r0x1010
000139   07a5     DEC	0xa5                 	DEC	r0x1010
00013a   c10d     JMP	#0x10d               	JMP	_00239_DS_
                                           _00242_DS_
                                           	BANKSEL	_Stop_Low_Addr
00013b   03cb     CLR	0xcb                 	CLR	_Stop_Low_Addr
                                           	BANKSEL	_Stop_Low_Addr
00013c   03cc     CLR	0xcc                 	CLR	(_Stop_Low_Addr + 1)
00013d   98ff     MOV	R0, #0xff            	MOV	R0,# 0xff
                                           	BANKSEL	_Stop_High_Addr
00013e   51e3     MOV	0xe3, R0             	MOV	_Stop_High_Addr, R0
                                           	BANKSEL	_Stop_High_Addr
00013f   51e4     MOV	0xe4, R0             	MOV	(_Stop_High_Addr + 1), R0
000140   982b     MOV	R0, #0x2b            	MOV	R0,# 0x2b
                                           	BANKSEL	r0x1010
000141   51a5     MOV	0xa5, R0             	MOV	r0x1010, R0
                                           _00243_DS_
000142   981f     MOV	R0, #0x1f            	MOV	R0,# 0x1f
                                           	BANKSEL	r0x1010
000143   38a5     SUB	R0, 0xa5             	SUB	R0, r0x1010
000144   7803     JB	0x3, 0                	JB	PSW, 0
000145   c162     JMP	#0x162               	JMP	_00246_DS_
000146   98ff     MOV	R0, #0xff            	MOV	R0,# 0xff
                                           	BANKSEL	STK01
000147   51fd     MOV	0xfd, R0             	MOV	STK01, R0
                                           	BANKSEL	r0x1010
000148   0ea5     MOVZ	R0, 0xa5            	MOVZ	R0, r0x1010
                                           	BANKSEL	STK00
000149   51fe     MOV	0xfe, R0             	MOV	STK00, R0
00014a   9802     MOV	R0, #0x2             	MOV	R0,# 0x02
00014b   9f0d     MOV	R7, #0xd             	TRAPPC1	_SPI_Write_2Byte
00014c   5f73     MOV	0x73, R7             	TRAPPC2	_SPI_Write_2Byte
00014d   e00d     MOVP	#0x0D               	PAGESEL	_SPI_Write_2Byte
00014e   ddcf     CALL	#0xdcf              	CALL	_SPI_Write_2Byte
00014f   9f01     MOV	R7, #0x1             	TRAPPC1	$+2
000150   5f73     MOV	0x73, R7             	TRAPPC2	$+1
000151   e001     MOVP	#0x01               	PAGESEL	$
000152   9800     MOV	R0, #0               	MOV	R0,# 0x00
000153   e100     MOVB	#0x00               	BANKSEL	STK01
000154   51fd     MOV	0xfd, R0             	MOV	STK01, R0
000155   9837     MOV	R0, #0x37            	MOV	R0,# 0x37
                                           	BANKSEL	STK00
000156   51fe     MOV	0xfe, R0             	MOV	STK00, R0
000157   9802     MOV	R0, #0x2             	MOV	R0,# 0x02
000158   9f0d     MOV	R7, #0xd             	TRAPPC1	_SPI_Write_2Byte
000159   5f73     MOV	0x73, R7             	TRAPPC2	_SPI_Write_2Byte
00015a   e00d     MOVP	#0x0D               	PAGESEL	_SPI_Write_2Byte
00015b   ddcf     CALL	#0xdcf              	CALL	_SPI_Write_2Byte
00015c   9f01     MOV	R7, #0x1             	TRAPPC1	$+2
00015d   5f73     MOV	0x73, R7             	TRAPPC2	$+1
00015e   e001     MOVP	#0x01               	PAGESEL	$
00015f   e100     MOVB	#0x00               	BANKSEL	r0x1010
000160   07a5     DEC	0xa5                 	DEC	r0x1010
000161   c142     JMP	#0x142               	JMP	_00243_DS_
                                           _00246_DS_
000162   981f     MOV	R0, #0x1f            	MOV	R0,# 0x1f
                                           	BANKSEL	r0x1010
000163   51a5     MOV	0xa5, R0             	MOV	r0x1010, R0
                                           _00247_DS_
000164   982c     MOV	R0, #0x2c            	MOV	R0,# 0x2c
                                           	BANKSEL	r0x1010
000165   38a5     SUB	R0, 0xa5             	SUB	R0, r0x1010
000166   7003     JNB	0x3, 0               	JNB	PSW, 0
000167   c18f     JMP	#0x18f               	JMP	_00250_DS_
000168   9810     MOV	R0, #0x10            	MOV	R0,# 0x10
                                           	BANKSEL	STK01
000169   51fd     MOV	0xfd, R0             	MOV	STK01, R0
                                           	BANKSEL	r0x1010
00016a   0ea5     MOVZ	R0, 0xa5            	MOVZ	R0, r0x1010
                                           	BANKSEL	STK00
00016b   51fe     MOV	0xfe, R0             	MOV	STK00, R0
00016c   9802     MOV	R0, #0x2             	MOV	R0,# 0x02
00016d   9f0d     MOV	R7, #0xd             	TRAPPC1	_SPI_Write_2Byte
00016e   5f73     MOV	0x73, R7             	TRAPPC2	_SPI_Write_2Byte
00016f   e00d     MOVP	#0x0D               	PAGESEL	_SPI_Write_2Byte
000170   ddcf     CALL	#0xdcf              	CALL	_SPI_Write_2Byte
000171   9f01     MOV	R7, #0x1             	TRAPPC1	$+2
000172   5f73     MOV	0x73, R7             	TRAPPC2	$+1
000173   e001     MOVP	#0x01               	PAGESEL	$
000174   9800     MOV	R0, #0               	MOV	R0,# 0x00
000175   e100     MOVB	#0x00               	BANKSEL	STK01
000176   51fd     MOV	0xfd, R0             	MOV	STK01, R0
000177   9837     MOV	R0, #0x37            	MOV	R0,# 0x37
                                           	BANKSEL	STK00
000178   51fe     MOV	0xfe, R0             	MOV	STK00, R0
000179   9802     MOV	R0, #0x2             	MOV	R0,# 0x02
00017a   9f0d     MOV	R7, #0xd             	TRAPPC1	_SPI_Write_2Byte
00017b   5f73     MOV	0x73, R7             	TRAPPC2	_SPI_Write_2Byte
00017c   e00d     MOVP	#0x0D               	PAGESEL	_SPI_Write_2Byte
00017d   ddcf     CALL	#0xdcf              	CALL	_SPI_Write_2Byte
00017e   9f01     MOV	R7, #0x1             	TRAPPC1	$+2
00017f   5f73     MOV	0x73, R7             	TRAPPC2	$+1
000180   e001     MOVP	#0x01               	PAGESEL	$
000181   981e     MOV	R0, #0x1e            	MOV	R0,# 0x1e
000182   e100     MOVB	#0x00               	BANKSEL	STK00
000183   51fe     MOV	0xfe, R0             	MOV	STK00, R0
000184   9800     MOV	R0, #0               	MOV	R0,# 0x00
000185   9f0e     MOV	R7, #0xe             	TRAPPC1	_delay_ms
000186   5f73     MOV	0x73, R7             	TRAPPC2	_delay_ms
000187   e00e     MOVP	#0x0E               	PAGESEL	_delay_ms
000188   de87     CALL	#0xe87              	CALL	_delay_ms
000189   9f01     MOV	R7, #0x1             	TRAPPC1	$+2
00018a   5f73     MOV	0x73, R7             	TRAPPC2	$+1
00018b   e001     MOVP	#0x01               	PAGESEL	$
00018c   e100     MOVB	#0x00               	BANKSEL	r0x1010
00018d   0ba5     INC	0xa5                 	INC	r0x1010
00018e   c164     JMP	#0x164               	JMP	_00247_DS_
                                           _00250_DS_
00018f   982b     MOV	R0, #0x2b            	MOV	R0,# 0x2b
                                           	BANKSEL	r0x1010
000190   51a5     MOV	0xa5, R0             	MOV	r0x1010, R0
                                           _00251_DS_
000191   981f     MOV	R0, #0x1f            	MOV	R0,# 0x1f
                                           	BANKSEL	r0x1010
000192   38a5     SUB	R0, 0xa5             	SUB	R0, r0x1010
000193   7803     JB	0x3, 0                	JB	PSW, 0
000194   c1bc     JMP	#0x1bc               	JMP	_00254_DS_
000195   9800     MOV	R0, #0               	MOV	R0,# 0x00
                                           	BANKSEL	STK01
000196   51fd     MOV	0xfd, R0             	MOV	STK01, R0
                                           	BANKSEL	r0x1010
000197   0ea5     MOVZ	R0, 0xa5            	MOVZ	R0, r0x1010
                                           	BANKSEL	STK00
000198   51fe     MOV	0xfe, R0             	MOV	STK00, R0
000199   9802     MOV	R0, #0x2             	MOV	R0,# 0x02
00019a   9f0d     MOV	R7, #0xd             	TRAPPC1	_SPI_Write_2Byte
00019b   5f73     MOV	0x73, R7             	TRAPPC2	_SPI_Write_2Byte
00019c   e00d     MOVP	#0x0D               	PAGESEL	_SPI_Write_2Byte
00019d   ddcf     CALL	#0xdcf              	CALL	_SPI_Write_2Byte
00019e   9f01     MOV	R7, #0x1             	TRAPPC1	$+2
00019f   5f73     MOV	0x73, R7             	TRAPPC2	$+1
0001a0   e001     MOVP	#0x01               	PAGESEL	$
0001a1   9800     MOV	R0, #0               	MOV	R0,# 0x00
0001a2   e100     MOVB	#0x00               	BANKSEL	STK01
0001a3   51fd     MOV	0xfd, R0             	MOV	STK01, R0
0001a4   9837     MOV	R0, #0x37            	MOV	R0,# 0x37
                                           	BANKSEL	STK00
0001a5   51fe     MOV	0xfe, R0             	MOV	STK00, R0
0001a6   9802     MOV	R0, #0x2             	MOV	R0,# 0x02
0001a7   9f0d     MOV	R7, #0xd             	TRAPPC1	_SPI_Write_2Byte
0001a8   5f73     MOV	0x73, R7             	TRAPPC2	_SPI_Write_2Byte
0001a9   e00d     MOVP	#0x0D               	PAGESEL	_SPI_Write_2Byte
0001aa   ddcf     CALL	#0xdcf              	CALL	_SPI_Write_2Byte
0001ab   9f01     MOV	R7, #0x1             	TRAPPC1	$+2
0001ac   5f73     MOV	0x73, R7             	TRAPPC2	$+1
0001ad   e001     MOVP	#0x01               	PAGESEL	$
0001ae   981e     MOV	R0, #0x1e            	MOV	R0,# 0x1e
0001af   e100     MOVB	#0x00               	BANKSEL	STK00
0001b0   51fe     MOV	0xfe, R0             	MOV	STK00, R0
0001b1   9800     MOV	R0, #0               	MOV	R0,# 0x00
0001b2   9f0e     MOV	R7, #0xe             	TRAPPC1	_delay_ms
0001b3   5f73     MOV	0x73, R7             	TRAPPC2	_delay_ms
0001b4   e00e     MOVP	#0x0E               	PAGESEL	_delay_ms
0001b5   de87     CALL	#0xe87              	CALL	_delay_ms
0001b6   9f01     MOV	R7, #0x1             	TRAPPC1	$+2
0001b7   5f73     MOV	0x73, R7             	TRAPPC2	$+1
0001b8   e001     MOVP	#0x01               	PAGESEL	$
0001b9   e100     MOVB	#0x00               	BANKSEL	r0x1010
0001ba   07a5     DEC	0xa5                 	DEC	r0x1010
0001bb   c191     JMP	#0x191               	JMP	_00251_DS_
                                           _00254_DS_
0001bc   982b     MOV	R0, #0x2b            	MOV	R0,# 0x2b
                                           	BANKSEL	r0x1010
0001bd   51a5     MOV	0xa5, R0             	MOV	r0x1010, R0
                                           _00255_DS_
0001be   9820     MOV	R0, #0x20            	MOV	R0,# 0x20
                                           	BANKSEL	r0x1010
0001bf   38a5     SUB	R0, 0xa5             	SUB	R0, r0x1010
0001c0   7803     JB	0x3, 0                	JB	PSW, 0
0001c1   c1e9     JMP	#0x1e9               	JMP	_00258_DS_
0001c2   9800     MOV	R0, #0               	MOV	R0,# 0x00
                                           	BANKSEL	STK01
0001c3   51fd     MOV	0xfd, R0             	MOV	STK01, R0
                                           	BANKSEL	r0x1010
0001c4   0ea5     MOVZ	R0, 0xa5            	MOVZ	R0, r0x1010
                                           	BANKSEL	STK00
0001c5   51fe     MOV	0xfe, R0             	MOV	STK00, R0
0001c6   9801     MOV	R0, #0x1             	MOV	R0,# 0x01
0001c7   9f0d     MOV	R7, #0xd             	TRAPPC1	_SPI_Write_2Byte
0001c8   5f73     MOV	0x73, R7             	TRAPPC2	_SPI_Write_2Byte
0001c9   e00d     MOVP	#0x0D               	PAGESEL	_SPI_Write_2Byte
0001ca   ddcf     CALL	#0xdcf              	CALL	_SPI_Write_2Byte
0001cb   9f01     MOV	R7, #0x1             	TRAPPC1	$+2
0001cc   5f73     MOV	0x73, R7             	TRAPPC2	$+1
0001cd   e001     MOVP	#0x01               	PAGESEL	$
0001ce   9800     MOV	R0, #0               	MOV	R0,# 0x00
0001cf   e100     MOVB	#0x00               	BANKSEL	STK01
0001d0   51fd     MOV	0xfd, R0             	MOV	STK01, R0
0001d1   9837     MOV	R0, #0x37            	MOV	R0,# 0x37
                                           	BANKSEL	STK00
0001d2   51fe     MOV	0xfe, R0             	MOV	STK00, R0
0001d3   9801     MOV	R0, #0x1             	MOV	R0,# 0x01
0001d4   9f0d     MOV	R7, #0xd             	TRAPPC1	_SPI_Write_2Byte
0001d5   5f73     MOV	0x73, R7             	TRAPPC2	_SPI_Write_2Byte
0001d6   e00d     MOVP	#0x0D               	PAGESEL	_SPI_Write_2Byte
0001d7   ddcf     CALL	#0xdcf              	CALL	_SPI_Write_2Byte
0001d8   9f01     MOV	R7, #0x1             	TRAPPC1	$+2
0001d9   5f73     MOV	0x73, R7             	TRAPPC2	$+1
0001da   e001     MOVP	#0x01               	PAGESEL	$
0001db   981e     MOV	R0, #0x1e            	MOV	R0,# 0x1e
0001dc   e100     MOVB	#0x00               	BANKSEL	STK00
0001dd   51fe     MOV	0xfe, R0             	MOV	STK00, R0
0001de   9800     MOV	R0, #0               	MOV	R0,# 0x00
0001df   9f0e     MOV	R7, #0xe             	TRAPPC1	_delay_ms
0001e0   5f73     MOV	0x73, R7             	TRAPPC2	_delay_ms
0001e1   e00e     MOVP	#0x0E               	PAGESEL	_delay_ms
0001e2   de87     CALL	#0xe87              	CALL	_delay_ms
0001e3   9f01     MOV	R7, #0x1             	TRAPPC1	$+2
0001e4   5f73     MOV	0x73, R7             	TRAPPC2	$+1
0001e5   e001     MOVP	#0x01               	PAGESEL	$
0001e6   e100     MOVB	#0x00               	BANKSEL	r0x1010
0001e7   07a5     DEC	0xa5                 	DEC	r0x1010
0001e8   c1be     JMP	#0x1be               	JMP	_00255_DS_
                                           _00258_DS_
                                           	BANKSEL	_Stop_High_Addr
0001e9   03e3     CLR	0xe3                 	CLR	_Stop_High_Addr
                                           	BANKSEL	_Stop_High_Addr
0001ea   03e4     CLR	0xe4                 	CLR	(_Stop_High_Addr + 1)
                                           	BANKSEL	_Stop_Low_Addr
0001eb   03cb     CLR	0xcb                 	CLR	_Stop_Low_Addr
                                           	BANKSEL	_Stop_Low_Addr
0001ec   03cc     CLR	0xcc                 	CLR	(_Stop_Low_Addr + 1)
0001ed   982b     MOV	R0, #0x2b            	MOV	R0,# 0x2b
                                           	BANKSEL	r0x1010
0001ee   51a5     MOV	0xa5, R0             	MOV	r0x1010, R0
                                           _00259_DS_
0001ef   981f     MOV	R0, #0x1f            	MOV	R0,# 0x1f
                                           	BANKSEL	r0x1010
0001f0   38a5     SUB	R0, 0xa5             	SUB	R0, r0x1010
0001f1   7803     JB	0x3, 0                	JB	PSW, 0
0001f2   c26a     JMP	#0x26a               	JMP	_00262_DS_
                                           	BANKSEL	r0x1010
0001f3   70a5     JNB	0xa5, 0              	JNB	r0x1010, 0
0001f4   c229     JMP	#0x229               	JMP	_00224_DS_
                                           	BANKSEL	r0x1010
0001f5   0ea5     MOVZ	R0, 0xa5            	MOVZ	R0, r0x1010
                                           	BANKSEL	r0x1011
0001f6   51a4     MOV	0xa4, R0             	MOV	r0x1011, R0
                                           	BANKSEL	r0x1012
0001f7   03a3     CLR	0xa3                 	CLR	r0x1012
0001f8   98e1     MOV	R0, #0xe1            	MOV	R0,# 0xe1
                                           	BANKSEL	r0x1011
0001f9   21a4     ADD	0xa4, R0             	ADD	r0x1011, R0
0001fa   7003     JNB	0x3, 0               	JNB	PSW, 0
0001fb   c1fd     JMP	#0x1fd               	JMP	_00326_DS_
                                           	BANKSEL	r0x1012
0001fc   07a3     DEC	0xa3                 	DEC	r0x1012
                                           _00326_DS_
0001fd   9802     MOV	R0, #0x2             	MOV	R0,# 0x02
                                           	BANKSEL	STK02
0001fe   51fc     MOV	0xfc, R0             	MOV	STK02, R0
0001ff   9800     MOV	R0, #0               	MOV	R0,# 0x00
                                           	BANKSEL	STK01
000200   51fd     MOV	0xfd, R0             	MOV	STK01, R0
                                           	BANKSEL	r0x1011
000201   0ea4     MOVZ	R0, 0xa4            	MOVZ	R0, r0x1011
                                           	BANKSEL	STK00
000202   51fe     MOV	0xfe, R0             	MOV	STK00, R0
                                           	BANKSEL	r0x1012
000203   0ea3     MOVZ	R0, 0xa3            	MOVZ	R0, r0x1012
000204   9f0d     MOV	R7, #0xd             	TRAPPC1	__divsint
000205   5f73     MOV	0x73, R7             	TRAPPC2	__divsint
000206   e00d     MOVP	#0x0D               	PAGESEL	__divsint
000207   dd9c     CALL	#0xd9c              	CALL	__divsint
000208   9f02     MOV	R7, #0x2             	TRAPPC1	$+2
000209   5f73     MOV	0x73, R7             	TRAPPC2	$+1
00020a   e002     MOVP	#0x02               	PAGESEL	$
00020b   e100     MOVB	#0x00               	BANKSEL	r0x1012
00020c   51a3     MOV	0xa3, R0             	MOV	r0x1012, R0
                                           	BANKSEL	STK00
00020d   0efe     MOVZ	R0, 0xfe            	MOVZ	R0, STK00
                                           	BANKSEL	r0x1011
00020e   51a4     MOV	0xa4, R0             	MOV	r0x1011, R0
00020f   9806     MOV	R0, #0x6             	MOV	R0,# 0x06
                                           	BANKSEL	r0x1011
000210   21a4     ADD	0xa4, R0             	ADD	r0x1011, R0
000211   7803     JB	0x3, 0                	JB	PSW, 0
000212   c214     JMP	#0x214               	JMP	_00327_DS_
                                           	BANKSEL	r0x1012
000213   0ba3     INC	0xa3                 	INC	r0x1012
                                           _00327_DS_
000214   9801     MOV	R0, #0x1             	MOV	R0,# 0x01
                                           	BANKSEL	r0x1013
000215   51a2     MOV	0xa2, R0             	MOV	r0x1013, R0
000216   9800     MOV	R0, #0               	MOV	R0,# 0x00
                                           	BANKSEL	r0x1014
000217   51a1     MOV	0xa1, R0             	MOV	r0x1014, R0
                                           	BANKSEL	r0x1011
000218   0ea4     MOVZ	R0, 0xa4            	MOVZ	R0, r0x1011
000219   ff10     INC	R0                   	INC	R0
00021a   c21f     JMP	#0x21f               	JMP	_00317_DS_
                                           _00316_DS_
00021b   6003     CLR	0x3, 0               	CLR	PSW, 0
00021c   e100     MOVB	#0x00               	BANKSEL	r0x1013
00021d   13a2     RLC	0xa2                 	RLC	r0x1013
                                           	BANKSEL	r0x1014
00021e   13a1     RLC	0xa1                 	RLC	r0x1014
                                           _00317_DS_
00021f   ff58     DECJZ	R0                 	DECJZ	R0
000220   c21b     JMP	#0x21b               	JMP	_00316_DS_
                                           	BANKSEL	r0x1013
000221   0ea2     MOVZ	R0, 0xa2            	MOVZ	R0, r0x1013
                                           	BANKSEL	_Stop_Low_Addr
000222   51cb     MOV	0xcb, R0             	MOV	_Stop_Low_Addr, R0
                                           	BANKSEL	r0x1014
000223   0ea1     MOVZ	R0, 0xa1            	MOVZ	R0, r0x1014
                                           	BANKSEL	_Stop_Low_Addr
000224   51cc     MOV	0xcc, R0             	MOV	(_Stop_Low_Addr + 1), R0
                                           	BANKSEL	_Stop_Low_Addr
000225   04cb     CPLR	0xcb                	CPLR	_Stop_Low_Addr
                                           	BANKSEL	_Stop_High_Addr
000226   51e3     MOV	0xe3, R0             	MOV	_Stop_High_Addr, R0
                                           	BANKSEL	_Stop_Low_Addr
000227   04cc     CPLR	0xcc                	CPLR	(_Stop_Low_Addr + 1)
                                           	BANKSEL	_Stop_High_Addr
000228   51e4     MOV	0xe4, R0             	MOV	(_Stop_High_Addr + 1), R0
                                           _00224_DS_
000229   98ff     MOV	R0, #0xff            	MOV	R0,# 0xff
                                           	BANKSEL	STK01
00022a   51fd     MOV	0xfd, R0             	MOV	STK01, R0
                                           	BANKSEL	r0x1010
00022b   0ea5     MOVZ	R0, 0xa5            	MOVZ	R0, r0x1010
                                           	BANKSEL	STK00
00022c   51fe     MOV	0xfe, R0             	MOV	STK00, R0
00022d   9802     MOV	R0, #0x2             	MOV	R0,# 0x02
00022e   9f0d     MOV	R7, #0xd             	TRAPPC1	_SPI_Write_2Byte
00022f   5f73     MOV	0x73, R7             	TRAPPC2	_SPI_Write_2Byte
000230   e00d     MOVP	#0x0D               	PAGESEL	_SPI_Write_2Byte
000231   ddcf     CALL	#0xdcf              	CALL	_SPI_Write_2Byte
000232   9f02     MOV	R7, #0x2             	TRAPPC1	$+2
000233   5f73     MOV	0x73, R7             	TRAPPC2	$+1
000234   e002     MOVP	#0x02               	PAGESEL	$
000235   9800     MOV	R0, #0               	MOV	R0,# 0x00
000236   e100     MOVB	#0x00               	BANKSEL	STK01
000237   51fd     MOV	0xfd, R0             	MOV	STK01, R0
000238   9837     MOV	R0, #0x37            	MOV	R0,# 0x37
                                           	BANKSEL	STK00
000239   51fe     MOV	0xfe, R0             	MOV	STK00, R0
00023a   9802     MOV	R0, #0x2             	MOV	R0,# 0x02
00023b   9f0d     MOV	R7, #0xd             	TRAPPC1	_SPI_Write_2Byte
00023c   5f73     MOV	0x73, R7             	TRAPPC2	_SPI_Write_2Byte
00023d   e00d     MOVP	#0x0D               	PAGESEL	_SPI_Write_2Byte
00023e   ddcf     CALL	#0xdcf              	CALL	_SPI_Write_2Byte
00023f   9f02     MOV	R7, #0x2             	TRAPPC1	$+2
000240   5f73     MOV	0x73, R7             	TRAPPC2	$+1
000241   e002     MOVP	#0x02               	PAGESEL	$
000242   9814     MOV	R0, #0x14            	MOV	R0,# 0x14
000243   e100     MOVB	#0x00               	BANKSEL	STK00
000244   51fe     MOV	0xfe, R0             	MOV	STK00, R0
000245   9800     MOV	R0, #0               	MOV	R0,# 0x00
000246   9f0e     MOV	R7, #0xe             	TRAPPC1	_delay_ms
000247   5f73     MOV	0x73, R7             	TRAPPC2	_delay_ms
000248   e00e     MOVP	#0x0E               	PAGESEL	_delay_ms
000249   de87     CALL	#0xe87              	CALL	_delay_ms
00024a   9f02     MOV	R7, #0x2             	TRAPPC1	$+2
00024b   5f73     MOV	0x73, R7             	TRAPPC2	$+1
00024c   e002     MOVP	#0x02               	PAGESEL	$
00024d   9800     MOV	R0, #0               	MOV	R0,# 0x00
00024e   e100     MOVB	#0x00               	BANKSEL	STK01
00024f   51fd     MOV	0xfd, R0             	MOV	STK01, R0
                                           	BANKSEL	r0x1010
000250   0ea5     MOVZ	R0, 0xa5            	MOVZ	R0, r0x1010
                                           	BANKSEL	STK00
000251   51fe     MOV	0xfe, R0             	MOV	STK00, R0
000252   9802     MOV	R0, #0x2             	MOV	R0,# 0x02
000253   9f0d     MOV	R7, #0xd             	TRAPPC1	_SPI_Write_2Byte
000254   5f73     MOV	0x73, R7             	TRAPPC2	_SPI_Write_2Byte
000255   e00d     MOVP	#0x0D               	PAGESEL	_SPI_Write_2Byte
000256   ddcf     CALL	#0xdcf              	CALL	_SPI_Write_2Byte
000257   9f02     MOV	R7, #0x2             	TRAPPC1	$+2
000258   5f73     MOV	0x73, R7             	TRAPPC2	$+1
000259   e002     MOVP	#0x02               	PAGESEL	$
00025a   9800     MOV	R0, #0               	MOV	R0,# 0x00
00025b   e100     MOVB	#0x00               	BANKSEL	STK01
00025c   51fd     MOV	0xfd, R0             	MOV	STK01, R0
00025d   9837     MOV	R0, #0x37            	MOV	R0,# 0x37
                                           	BANKSEL	STK00
00025e   51fe     MOV	0xfe, R0             	MOV	STK00, R0
00025f   9802     MOV	R0, #0x2             	MOV	R0,# 0x02
000260   9f0d     MOV	R7, #0xd             	TRAPPC1	_SPI_Write_2Byte
000261   5f73     MOV	0x73, R7             	TRAPPC2	_SPI_Write_2Byte
000262   e00d     MOVP	#0x0D               	PAGESEL	_SPI_Write_2Byte
000263   ddcf     CALL	#0xdcf              	CALL	_SPI_Write_2Byte
000264   9f02     MOV	R7, #0x2             	TRAPPC1	$+2
000265   5f73     MOV	0x73, R7             	TRAPPC2	$+1
000266   e002     MOVP	#0x02               	PAGESEL	$
000267   e100     MOVB	#0x00               	BANKSEL	r0x1010
000268   07a5     DEC	0xa5                 	DEC	r0x1010
000269   c1ef     JMP	#0x1ef               	JMP	_00259_DS_
                                           _00262_DS_
                                           	BANKSEL	_Stop_High_Addr
00026a   03e3     CLR	0xe3                 	CLR	_Stop_High_Addr
                                           	BANKSEL	_Stop_High_Addr
00026b   03e4     CLR	0xe4                 	CLR	(_Stop_High_Addr + 1)
                                           	BANKSEL	_Stop_Low_Addr
00026c   03cb     CLR	0xcb                 	CLR	_Stop_Low_Addr
                                           	BANKSEL	_Stop_Low_Addr
00026d   03cc     CLR	0xcc                 	CLR	(_Stop_Low_Addr + 1)
00026e   982b     MOV	R0, #0x2b            	MOV	R0,# 0x2b
                                           	BANKSEL	r0x1010
00026f   51a5     MOV	0xa5, R0             	MOV	r0x1010, R0
                                           _00263_DS_
000270   9820     MOV	R0, #0x20            	MOV	R0,# 0x20
                                           	BANKSEL	r0x1010
000271   38a5     SUB	R0, 0xa5             	SUB	R0, r0x1010
000272   7803     JB	0x3, 0                	JB	PSW, 0
000273   c2e6     JMP	#0x2e6               	JMP	_00266_DS_
                                           	BANKSEL	r0x1010
000274   70a5     JNB	0xa5, 0              	JNB	r0x1010, 0
000275   c2a5     JMP	#0x2a5               	JMP	_00226_DS_
                                           	BANKSEL	r0x1010
000276   0ea5     MOVZ	R0, 0xa5            	MOVZ	R0, r0x1010
                                           	BANKSEL	r0x1011
000277   51a4     MOV	0xa4, R0             	MOV	r0x1011, R0
                                           	BANKSEL	r0x1012
000278   03a3     CLR	0xa3                 	CLR	r0x1012
000279   98e1     MOV	R0, #0xe1            	MOV	R0,# 0xe1
                                           	BANKSEL	r0x1011
00027a   21a4     ADD	0xa4, R0             	ADD	r0x1011, R0
00027b   7003     JNB	0x3, 0               	JNB	PSW, 0
00027c   c27e     JMP	#0x27e               	JMP	_00328_DS_
                                           	BANKSEL	r0x1012
00027d   07a3     DEC	0xa3                 	DEC	r0x1012
                                           _00328_DS_
00027e   9802     MOV	R0, #0x2             	MOV	R0,# 0x02
                                           	BANKSEL	STK02
00027f   51fc     MOV	0xfc, R0             	MOV	STK02, R0
000280   9800     MOV	R0, #0               	MOV	R0,# 0x00
                                           	BANKSEL	STK01
000281   51fd     MOV	0xfd, R0             	MOV	STK01, R0
                                           	BANKSEL	r0x1011
000282   0ea4     MOVZ	R0, 0xa4            	MOVZ	R0, r0x1011
                                           	BANKSEL	STK00
000283   51fe     MOV	0xfe, R0             	MOV	STK00, R0
                                           	BANKSEL	r0x1012
000284   0ea3     MOVZ	R0, 0xa3            	MOVZ	R0, r0x1012
000285   9f0d     MOV	R7, #0xd             	TRAPPC1	__divsint
000286   5f73     MOV	0x73, R7             	TRAPPC2	__divsint
000287   e00d     MOVP	#0x0D               	PAGESEL	__divsint
000288   dd9c     CALL	#0xd9c              	CALL	__divsint
000289   9f02     MOV	R7, #0x2             	TRAPPC1	$+2
00028a   5f73     MOV	0x73, R7             	TRAPPC2	$+1
00028b   e002     MOVP	#0x02               	PAGESEL	$
00028c   e100     MOVB	#0x00               	BANKSEL	r0x1012
00028d   51a3     MOV	0xa3, R0             	MOV	r0x1012, R0
                                           	BANKSEL	STK00
00028e   0efe     MOVZ	R0, 0xfe            	MOVZ	R0, STK00
                                           	BANKSEL	r0x1011
00028f   51a4     MOV	0xa4, R0             	MOV	r0x1011, R0
000290   9801     MOV	R0, #0x1             	MOV	R0,# 0x01
                                           	BANKSEL	r0x1013
000291   51a2     MOV	0xa2, R0             	MOV	r0x1013, R0
000292   9800     MOV	R0, #0               	MOV	R0,# 0x00
                                           	BANKSEL	r0x1014
000293   51a1     MOV	0xa1, R0             	MOV	r0x1014, R0
                                           	BANKSEL	r0x1011
000294   0ea4     MOVZ	R0, 0xa4            	MOVZ	R0, r0x1011
000295   ff10     INC	R0                   	INC	R0
000296   c29b     JMP	#0x29b               	JMP	_00320_DS_
                                           _00319_DS_
000297   6003     CLR	0x3, 0               	CLR	PSW, 0
000298   e100     MOVB	#0x00               	BANKSEL	r0x1013
000299   13a2     RLC	0xa2                 	RLC	r0x1013
                                           	BANKSEL	r0x1014
00029a   13a1     RLC	0xa1                 	RLC	r0x1014
                                           _00320_DS_
00029b   ff58     DECJZ	R0                 	DECJZ	R0
00029c   c297     JMP	#0x297               	JMP	_00319_DS_
                                           	BANKSEL	r0x1013
00029d   0ea2     MOVZ	R0, 0xa2            	MOVZ	R0, r0x1013
                                           	BANKSEL	_Stop_Low_Addr
00029e   51cb     MOV	0xcb, R0             	MOV	_Stop_Low_Addr, R0
                                           	BANKSEL	r0x1014
00029f   0ea1     MOVZ	R0, 0xa1            	MOVZ	R0, r0x1014
                                           	BANKSEL	_Stop_Low_Addr
0002a0   51cc     MOV	0xcc, R0             	MOV	(_Stop_Low_Addr + 1), R0
                                           	BANKSEL	_Stop_Low_Addr
0002a1   04cb     CPLR	0xcb                	CPLR	_Stop_Low_Addr
                                           	BANKSEL	_Stop_High_Addr
0002a2   51e3     MOV	0xe3, R0             	MOV	_Stop_High_Addr, R0
                                           	BANKSEL	_Stop_Low_Addr
0002a3   04cc     CPLR	0xcc                	CPLR	(_Stop_Low_Addr + 1)
                                           	BANKSEL	_Stop_High_Addr
0002a4   51e4     MOV	0xe4, R0             	MOV	(_Stop_High_Addr + 1), R0
                                           _00226_DS_
0002a5   98ff     MOV	R0, #0xff            	MOV	R0,# 0xff
                                           	BANKSEL	STK01
0002a6   51fd     MOV	0xfd, R0             	MOV	STK01, R0
                                           	BANKSEL	r0x1010
0002a7   0ea5     MOVZ	R0, 0xa5            	MOVZ	R0, r0x1010
                                           	BANKSEL	STK00
0002a8   51fe     MOV	0xfe, R0             	MOV	STK00, R0
0002a9   9801     MOV	R0, #0x1             	MOV	R0,# 0x01
0002aa   9f0d     MOV	R7, #0xd             	TRAPPC1	_SPI_Write_2Byte
0002ab   5f73     MOV	0x73, R7             	TRAPPC2	_SPI_Write_2Byte
0002ac   e00d     MOVP	#0x0D               	PAGESEL	_SPI_Write_2Byte
0002ad   ddcf     CALL	#0xdcf              	CALL	_SPI_Write_2Byte
0002ae   9f02     MOV	R7, #0x2             	TRAPPC1	$+2
0002af   5f73     MOV	0x73, R7             	TRAPPC2	$+1
0002b0   e002     MOVP	#0x02               	PAGESEL	$
0002b1   9800     MOV	R0, #0               	MOV	R0,# 0x00
0002b2   e100     MOVB	#0x00               	BANKSEL	STK01
0002b3   51fd     MOV	0xfd, R0             	MOV	STK01, R0
0002b4   9837     MOV	R0, #0x37            	MOV	R0,# 0x37
                                           	BANKSEL	STK00
0002b5   51fe     MOV	0xfe, R0             	MOV	STK00, R0
0002b6   9801     MOV	R0, #0x1             	MOV	R0,# 0x01
0002b7   9f0d     MOV	R7, #0xd             	TRAPPC1	_SPI_Write_2Byte
0002b8   5f73     MOV	0x73, R7             	TRAPPC2	_SPI_Write_2Byte
0002b9   e00d     MOVP	#0x0D               	PAGESEL	_SPI_Write_2Byte
0002ba   ddcf     CALL	#0xdcf              	CALL	_SPI_Write_2Byte
0002bb   9f02     MOV	R7, #0x2             	TRAPPC1	$+2
0002bc   5f73     MOV	0x73, R7             	TRAPPC2	$+1
0002bd   e002     MOVP	#0x02               	PAGESEL	$
0002be   9814     MOV	R0, #0x14            	MOV	R0,# 0x14
0002bf   e100     MOVB	#0x00               	BANKSEL	STK00
0002c0   51fe     MOV	0xfe, R0             	MOV	STK00, R0
0002c1   9800     MOV	R0, #0               	MOV	R0,# 0x00
0002c2   9f0e     MOV	R7, #0xe             	TRAPPC1	_delay_ms
0002c3   5f73     MOV	0x73, R7             	TRAPPC2	_delay_ms
0002c4   e00e     MOVP	#0x0E               	PAGESEL	_delay_ms
0002c5   de87     CALL	#0xe87              	CALL	_delay_ms
0002c6   9f02     MOV	R7, #0x2             	TRAPPC1	$+2
0002c7   5f73     MOV	0x73, R7             	TRAPPC2	$+1
0002c8   e002     MOVP	#0x02               	PAGESEL	$
0002c9   9800     MOV	R0, #0               	MOV	R0,# 0x00
0002ca   e100     MOVB	#0x00               	BANKSEL	STK01
0002cb   51fd     MOV	0xfd, R0             	MOV	STK01, R0
                                           	BANKSEL	r0x1010
0002cc   0ea5     MOVZ	R0, 0xa5            	MOVZ	R0, r0x1010
                                           	BANKSEL	STK00
0002cd   51fe     MOV	0xfe, R0             	MOV	STK00, R0
0002ce   9801     MOV	R0, #0x1             	MOV	R0,# 0x01
0002cf   9f0d     MOV	R7, #0xd             	TRAPPC1	_SPI_Write_2Byte
0002d0   5f73     MOV	0x73, R7             	TRAPPC2	_SPI_Write_2Byte
0002d1   e00d     MOVP	#0x0D               	PAGESEL	_SPI_Write_2Byte
0002d2   ddcf     CALL	#0xdcf              	CALL	_SPI_Write_2Byte
0002d3   9f02     MOV	R7, #0x2             	TRAPPC1	$+2
0002d4   5f73     MOV	0x73, R7             	TRAPPC2	$+1
0002d5   e002     MOVP	#0x02               	PAGESEL	$
0002d6   9800     MOV	R0, #0               	MOV	R0,# 0x00
0002d7   e100     MOVB	#0x00               	BANKSEL	STK01
0002d8   51fd     MOV	0xfd, R0             	MOV	STK01, R0
0002d9   9837     MOV	R0, #0x37            	MOV	R0,# 0x37
                                           	BANKSEL	STK00
0002da   51fe     MOV	0xfe, R0             	MOV	STK00, R0
0002db   9801     MOV	R0, #0x1             	MOV	R0,# 0x01
0002dc   9f0d     MOV	R7, #0xd             	TRAPPC1	_SPI_Write_2Byte
0002dd   5f73     MOV	0x73, R7             	TRAPPC2	_SPI_Write_2Byte
0002de   e00d     MOVP	#0x0D               	PAGESEL	_SPI_Write_2Byte
0002df   ddcf     CALL	#0xdcf              	CALL	_SPI_Write_2Byte
0002e0   9f02     MOV	R7, #0x2             	TRAPPC1	$+2
0002e1   5f73     MOV	0x73, R7             	TRAPPC2	$+1
0002e2   e002     MOVP	#0x02               	PAGESEL	$
0002e3   e100     MOVB	#0x00               	BANKSEL	r0x1010
0002e4   07a5     DEC	0xa5                 	DEC	r0x1010
0002e5   c270     JMP	#0x270               	JMP	_00263_DS_
                                           _00266_DS_
0002e6   98ff     MOV	R0, #0xff            	MOV	R0,# 0xff
                                           	BANKSEL	_Stop_High_Addr
0002e7   51e3     MOV	0xe3, R0             	MOV	_Stop_High_Addr, R0
                                           	BANKSEL	_Stop_High_Addr
0002e8   51e4     MOV	0xe4, R0             	MOV	(_Stop_High_Addr + 1), R0
                                           	BANKSEL	_Stop_Low_Addr
0002e9   03cb     CLR	0xcb                 	CLR	_Stop_Low_Addr
                                           	BANKSEL	_Stop_Low_Addr
0002ea   03cc     CLR	0xcc                 	CLR	(_Stop_Low_Addr + 1)
0002eb   0008     CRET                     	CRET	
                                           func._Tail1_2_Stop_BackWater_Close	.code
                                           _Tail1_2_Stop_BackWater_Close	;Function start
000639   e100     MOVB	#0x00               	BANKSEL	_Stop_High_Addr
00063a   03e3     CLR	0xe3                 	CLR	_Stop_High_Addr
                                           	BANKSEL	_Stop_High_Addr
00063b   03e4     CLR	0xe4                 	CLR	(_Stop_High_Addr + 1)
00063c   98ff     MOV	R0, #0xff            	MOV	R0,# 0xff
                                           	BANKSEL	_Stop_Low_Addr
00063d   51cb     MOV	0xcb, R0             	MOV	_Stop_Low_Addr, R0
00063e   980f     MOV	R0, #0xf             	MOV	R0,# 0x0f
                                           	BANKSEL	_Stop_Low_Addr
00063f   51cc     MOV	0xcc, R0             	MOV	(_Stop_Low_Addr + 1), R0
000640   982b     MOV	R0, #0x2b            	MOV	R0,# 0x2b
                                           	BANKSEL	r0x1015
000641   51aa     MOV	0xaa, R0             	MOV	r0x1015, R0
                                           _00203_DS_
000642   981f     MOV	R0, #0x1f            	MOV	R0,# 0x1f
                                           	BANKSEL	r0x1015
000643   38aa     SUB	R0, 0xaa             	SUB	R0, r0x1015
000644   7803     JB	0x3, 0                	JB	PSW, 0
000645   c68d     JMP	#0x68d               	JMP	_00206_DS_
                                           	BANKSEL	r0x1015
000646   0eaa     MOVZ	R0, 0xaa            	MOVZ	R0, r0x1015
                                           	BANKSEL	r0x1016
000647   51a9     MOV	0xa9, R0             	MOV	r0x1016, R0
                                           	BANKSEL	r0x1017
000648   03a8     CLR	0xa8                 	CLR	r0x1017
000649   98e1     MOV	R0, #0xe1            	MOV	R0,# 0xe1
                                           	BANKSEL	r0x1016
00064a   21a9     ADD	0xa9, R0             	ADD	r0x1016, R0
00064b   7003     JNB	0x3, 0               	JNB	PSW, 0
00064c   c64e     JMP	#0x64e               	JMP	_00329_DS_
                                           	BANKSEL	r0x1017
00064d   07a8     DEC	0xa8                 	DEC	r0x1017
                                           _00329_DS_
00064e   9801     MOV	R0, #0x1             	MOV	R0,# 0x01
                                           	BANKSEL	r0x1018
00064f   51a7     MOV	0xa7, R0             	MOV	r0x1018, R0
000650   9800     MOV	R0, #0               	MOV	R0,# 0x00
                                           	BANKSEL	r0x1019
000651   51a6     MOV	0xa6, R0             	MOV	r0x1019, R0
                                           	BANKSEL	r0x1016
000652   0ea9     MOVZ	R0, 0xa9            	MOVZ	R0, r0x1016
000653   ff10     INC	R0                   	INC	R0
000654   c659     JMP	#0x659               	JMP	_00221_DS_
                                           _00220_DS_
000655   6003     CLR	0x3, 0               	CLR	PSW, 0
000656   e100     MOVB	#0x00               	BANKSEL	r0x1018
000657   13a7     RLC	0xa7                 	RLC	r0x1018
                                           	BANKSEL	r0x1019
000658   13a6     RLC	0xa6                 	RLC	r0x1019
                                           _00221_DS_
000659   ff58     DECJZ	R0                 	DECJZ	R0
00065a   c655     JMP	#0x655               	JMP	_00220_DS_
                                           	BANKSEL	r0x1018
00065b   0ea7     MOVZ	R0, 0xa7            	MOVZ	R0, r0x1018
                                           	BANKSEL	r0x1016
00065c   51a9     MOV	0xa9, R0             	MOV	r0x1016, R0
                                           	BANKSEL	r0x1016
00065d   50a9     MOV	R0, 0xa9             	MOV	R0, r0x1016
                                           	BANKSEL	_Stop_High_Addr
00065e   21e3     ADD	0xe3, R0             	ADD	_Stop_High_Addr, R0
                                           	BANKSEL	r0x1019
00065f   0ea6     MOVZ	R0, 0xa6            	MOVZ	R0, r0x1019
                                           	BANKSEL	r0x1017
000660   51a8     MOV	0xa8, R0             	MOV	r0x1017, R0
000661   7003     JNB	0x3, 0               	JNB	PSW, 0
000662   ff10     INC	R0                   	INC	R0
000663   7203     JNB	0x3, 2               	JNB	PSW, 2
000664   c666     JMP	#0x666               	JMP	_00330_DS_
                                           	BANKSEL	_Stop_High_Addr
000665   21e4     ADD	0xe4, R0             	ADD	(_Stop_High_Addr + 1), R0
                                           _00330_DS_
000666   9810     MOV	R0, #0x10            	MOV	R0,# 0x10
                                           	BANKSEL	STK01
000667   51fd     MOV	0xfd, R0             	MOV	STK01, R0
                                           	BANKSEL	r0x1015
000668   0eaa     MOVZ	R0, 0xaa            	MOVZ	R0, r0x1015
                                           	BANKSEL	STK00
000669   51fe     MOV	0xfe, R0             	MOV	STK00, R0
00066a   9802     MOV	R0, #0x2             	MOV	R0,# 0x02
00066b   9f0d     MOV	R7, #0xd             	TRAPPC1	_SPI_Write_2Byte
00066c   5f73     MOV	0x73, R7             	TRAPPC2	_SPI_Write_2Byte
00066d   e00d     MOVP	#0x0D               	PAGESEL	_SPI_Write_2Byte
00066e   ddcf     CALL	#0xdcf              	CALL	_SPI_Write_2Byte
00066f   9f06     MOV	R7, #0x6             	TRAPPC1	$+2
000670   5f73     MOV	0x73, R7             	TRAPPC2	$+1
000671   e006     MOVP	#0x06               	PAGESEL	$
000672   9800     MOV	R0, #0               	MOV	R0,# 0x00
000673   e100     MOVB	#0x00               	BANKSEL	STK01
000674   51fd     MOV	0xfd, R0             	MOV	STK01, R0
000675   9837     MOV	R0, #0x37            	MOV	R0,# 0x37
                                           	BANKSEL	STK00
000676   51fe     MOV	0xfe, R0             	MOV	STK00, R0
000677   9802     MOV	R0, #0x2             	MOV	R0,# 0x02
000678   9f0d     MOV	R7, #0xd             	TRAPPC1	_SPI_Write_2Byte
000679   5f73     MOV	0x73, R7             	TRAPPC2	_SPI_Write_2Byte
00067a   e00d     MOVP	#0x0D               	PAGESEL	_SPI_Write_2Byte
00067b   ddcf     CALL	#0xdcf              	CALL	_SPI_Write_2Byte
00067c   9f06     MOV	R7, #0x6             	TRAPPC1	$+2
00067d   5f73     MOV	0x73, R7             	TRAPPC2	$+1
00067e   e006     MOVP	#0x06               	PAGESEL	$
00067f   9841     MOV	R0, #0x41            	MOV	R0,# 0x41
000680   e100     MOVB	#0x00               	BANKSEL	STK00
000681   51fe     MOV	0xfe, R0             	MOV	STK00, R0
000682   9800     MOV	R0, #0               	MOV	R0,# 0x00
000683   9f0e     MOV	R7, #0xe             	TRAPPC1	_delay_ms
000684   5f73     MOV	0x73, R7             	TRAPPC2	_delay_ms
000685   e00e     MOVP	#0x0E               	PAGESEL	_delay_ms
000686   de87     CALL	#0xe87              	CALL	_delay_ms
000687   9f06     MOV	R7, #0x6             	TRAPPC1	$+2
000688   5f73     MOV	0x73, R7             	TRAPPC2	$+1
000689   e006     MOVP	#0x06               	PAGESEL	$
00068a   e100     MOVB	#0x00               	BANKSEL	r0x1015
00068b   07aa     DEC	0xaa                 	DEC	r0x1015
00068c   c642     JMP	#0x642               	JMP	_00203_DS_
                                           _00206_DS_
00068d   982b     MOV	R0, #0x2b            	MOV	R0,# 0x2b
                                           	BANKSEL	r0x1015
00068e   51aa     MOV	0xaa, R0             	MOV	r0x1015, R0
                                           _00207_DS_
00068f   9820     MOV	R0, #0x20            	MOV	R0,# 0x20
                                           	BANKSEL	r0x1015
000690   38aa     SUB	R0, 0xaa             	SUB	R0, r0x1015
000691   7803     JB	0x3, 0                	JB	PSW, 0
000692   c6ba     JMP	#0x6ba               	JMP	_00211_DS_
000693   9810     MOV	R0, #0x10            	MOV	R0,# 0x10
                                           	BANKSEL	STK01
000694   51fd     MOV	0xfd, R0             	MOV	STK01, R0
                                           	BANKSEL	r0x1015
000695   0eaa     MOVZ	R0, 0xaa            	MOVZ	R0, r0x1015
                                           	BANKSEL	STK00
000696   51fe     MOV	0xfe, R0             	MOV	STK00, R0
000697   9801     MOV	R0, #0x1             	MOV	R0,# 0x01
000698   9f0d     MOV	R7, #0xd             	TRAPPC1	_SPI_Write_2Byte
000699   5f73     MOV	0x73, R7             	TRAPPC2	_SPI_Write_2Byte
00069a   e00d     MOVP	#0x0D               	PAGESEL	_SPI_Write_2Byte
00069b   ddcf     CALL	#0xdcf              	CALL	_SPI_Write_2Byte
00069c   9f06     MOV	R7, #0x6             	TRAPPC1	$+2
00069d   5f73     MOV	0x73, R7             	TRAPPC2	$+1
00069e   e006     MOVP	#0x06               	PAGESEL	$
00069f   9800     MOV	R0, #0               	MOV	R0,# 0x00
0006a0   e100     MOVB	#0x00               	BANKSEL	STK01
0006a1   51fd     MOV	0xfd, R0             	MOV	STK01, R0
0006a2   9837     MOV	R0, #0x37            	MOV	R0,# 0x37
                                           	BANKSEL	STK00
0006a3   51fe     MOV	0xfe, R0             	MOV	STK00, R0
0006a4   9801     MOV	R0, #0x1             	MOV	R0,# 0x01
0006a5   9f0d     MOV	R7, #0xd             	TRAPPC1	_SPI_Write_2Byte
0006a6   5f73     MOV	0x73, R7             	TRAPPC2	_SPI_Write_2Byte
0006a7   e00d     MOVP	#0x0D               	PAGESEL	_SPI_Write_2Byte
0006a8   ddcf     CALL	#0xdcf              	CALL	_SPI_Write_2Byte
0006a9   9f06     MOV	R7, #0x6             	TRAPPC1	$+2
0006aa   5f73     MOV	0x73, R7             	TRAPPC2	$+1
0006ab   e006     MOVP	#0x06               	PAGESEL	$
0006ac   9841     MOV	R0, #0x41            	MOV	R0,# 0x41
0006ad   e100     MOVB	#0x00               	BANKSEL	STK00
0006ae   51fe     MOV	0xfe, R0             	MOV	STK00, R0
0006af   9800     MOV	R0, #0               	MOV	R0,# 0x00
0006b0   9f0e     MOV	R7, #0xe             	TRAPPC1	_delay_ms
0006b1   5f73     MOV	0x73, R7             	TRAPPC2	_delay_ms
0006b2   e00e     MOVP	#0x0E               	PAGESEL	_delay_ms
0006b3   de87     CALL	#0xe87              	CALL	_delay_ms
0006b4   9f06     MOV	R7, #0x6             	TRAPPC1	$+2
0006b5   5f73     MOV	0x73, R7             	TRAPPC2	$+1
0006b6   e006     MOVP	#0x06               	PAGESEL	$
0006b7   e100     MOVB	#0x00               	BANKSEL	r0x1015
0006b8   07aa     DEC	0xaa                 	DEC	r0x1015
0006b9   c68f     JMP	#0x68f               	JMP	_00207_DS_
                                           _00211_DS_
0006ba   0008     CRET                     	CRET	
                                           func._Tail2_Stop_FullWater_Open	.code
                                           _Tail2_Stop_FullWater_Open	;Function start
000a4b   98ff     MOV	R0, #0xff            	MOV	R0,# 0xff
000a4c   e100     MOVB	#0x00               	BANKSEL	_Stop_High_Addr
000a4d   51e3     MOV	0xe3, R0             	MOV	_Stop_High_Addr, R0
000a4e   980f     MOV	R0, #0xf             	MOV	R0,# 0x0f
                                           	BANKSEL	_Stop_High_Addr
000a4f   51e4     MOV	0xe4, R0             	MOV	(_Stop_High_Addr + 1), R0
000a50   981f     MOV	R0, #0x1f            	MOV	R0,# 0x1f
                                           	BANKSEL	r0x101A
000a51   51af     MOV	0xaf, R0             	MOV	r0x101A, R0
                                           _00191_DS_
000a52   9831     MOV	R0, #0x31            	MOV	R0,# 0x31
                                           	BANKSEL	r0x101A
000a53   38af     SUB	R0, 0xaf             	SUB	R0, r0x101A
000a54   7003     JNB	0x3, 0               	JNB	PSW, 0
000a55   ca9c     JMP	#0xa9c               	JMP	_00195_DS_
                                           	BANKSEL	r0x101A
000a56   0eaf     MOVZ	R0, 0xaf            	MOVZ	R0, r0x101A
                                           	BANKSEL	r0x101B
000a57   51ae     MOV	0xae, R0             	MOV	r0x101B, R0
                                           	BANKSEL	r0x101C
000a58   03ad     CLR	0xad                 	CLR	r0x101C
000a59   98e1     MOV	R0, #0xe1            	MOV	R0,# 0xe1
                                           	BANKSEL	r0x101B
000a5a   21ae     ADD	0xae, R0             	ADD	r0x101B, R0
000a5b   7003     JNB	0x3, 0               	JNB	PSW, 0
000a5c   ca5e     JMP	#0xa5e               	JMP	_00331_DS_
                                           	BANKSEL	r0x101C
000a5d   07ad     DEC	0xad                 	DEC	r0x101C
                                           _00331_DS_
000a5e   9801     MOV	R0, #0x1             	MOV	R0,# 0x01
                                           	BANKSEL	r0x101D
000a5f   51ac     MOV	0xac, R0             	MOV	r0x101D, R0
000a60   9800     MOV	R0, #0               	MOV	R0,# 0x00
                                           	BANKSEL	r0x101E
000a61   51ab     MOV	0xab, R0             	MOV	r0x101E, R0
                                           	BANKSEL	r0x101B
000a62   0eae     MOVZ	R0, 0xae            	MOVZ	R0, r0x101B
000a63   ff10     INC	R0                   	INC	R0
000a64   ca69     JMP	#0xa69               	JMP	_00202_DS_
                                           _00201_DS_
000a65   6003     CLR	0x3, 0               	CLR	PSW, 0
000a66   e100     MOVB	#0x00               	BANKSEL	r0x101D
000a67   13ac     RLC	0xac                 	RLC	r0x101D
                                           	BANKSEL	r0x101E
000a68   13ab     RLC	0xab                 	RLC	r0x101E
                                           _00202_DS_
000a69   ff58     DECJZ	R0                 	DECJZ	R0
000a6a   ca65     JMP	#0xa65               	JMP	_00201_DS_
                                           	BANKSEL	r0x101D
000a6b   0eac     MOVZ	R0, 0xac            	MOVZ	R0, r0x101D
                                           	BANKSEL	r0x101B
000a6c   51ae     MOV	0xae, R0             	MOV	r0x101B, R0
                                           	BANKSEL	_Stop_High_Addr
000a6d   39e3     SUB	0xe3, R0             	SUB	_Stop_High_Addr, R0
                                           	BANKSEL	r0x101E
000a6e   0eab     MOVZ	R0, 0xab            	MOVZ	R0, r0x101E
                                           	BANKSEL	r0x101C
000a6f   51ad     MOV	0xad, R0             	MOV	r0x101C, R0
000a70   7803     JB	0x3, 0                	JB	PSW, 0
000a71   ff10     INC	R0                   	INC	R0
000a72   7203     JNB	0x3, 2               	JNB	PSW, 2
000a73   ca75     JMP	#0xa75               	JMP	_00332_DS_
                                           	BANKSEL	_Stop_High_Addr
000a74   39e4     SUB	0xe4, R0             	SUB	(_Stop_High_Addr + 1), R0
                                           _00332_DS_
000a75   98ff     MOV	R0, #0xff            	MOV	R0,# 0xff
                                           	BANKSEL	STK01
000a76   51fd     MOV	0xfd, R0             	MOV	STK01, R0
                                           	BANKSEL	r0x101A
000a77   0eaf     MOVZ	R0, 0xaf            	MOVZ	R0, r0x101A
                                           	BANKSEL	STK00
000a78   51fe     MOV	0xfe, R0             	MOV	STK00, R0
000a79   9802     MOV	R0, #0x2             	MOV	R0,# 0x02
000a7a   9f0d     MOV	R7, #0xd             	TRAPPC1	_SPI_Write_2Byte
000a7b   5f73     MOV	0x73, R7             	TRAPPC2	_SPI_Write_2Byte
000a7c   e00d     MOVP	#0x0D               	PAGESEL	_SPI_Write_2Byte
000a7d   ddcf     CALL	#0xdcf              	CALL	_SPI_Write_2Byte
000a7e   9f0a     MOV	R7, #0xa             	TRAPPC1	$+2
000a7f   5f73     MOV	0x73, R7             	TRAPPC2	$+1
000a80   e00a     MOVP	#0x0A               	PAGESEL	$
000a81   9800     MOV	R0, #0               	MOV	R0,# 0x00
000a82   e100     MOVB	#0x00               	BANKSEL	STK01
000a83   51fd     MOV	0xfd, R0             	MOV	STK01, R0
000a84   9837     MOV	R0, #0x37            	MOV	R0,# 0x37
                                           	BANKSEL	STK00
000a85   51fe     MOV	0xfe, R0             	MOV	STK00, R0
000a86   9802     MOV	R0, #0x2             	MOV	R0,# 0x02
000a87   9f0d     MOV	R7, #0xd             	TRAPPC1	_SPI_Write_2Byte
000a88   5f73     MOV	0x73, R7             	TRAPPC2	_SPI_Write_2Byte
000a89   e00d     MOVP	#0x0D               	PAGESEL	_SPI_Write_2Byte
000a8a   ddcf     CALL	#0xdcf              	CALL	_SPI_Write_2Byte
000a8b   9f0a     MOV	R7, #0xa             	TRAPPC1	$+2
000a8c   5f73     MOV	0x73, R7             	TRAPPC2	$+1
000a8d   e00a     MOVP	#0x0A               	PAGESEL	$
000a8e   9841     MOV	R0, #0x41            	MOV	R0,# 0x41
000a8f   e100     MOVB	#0x00               	BANKSEL	STK00
000a90   51fe     MOV	0xfe, R0             	MOV	STK00, R0
000a91   9800     MOV	R0, #0               	MOV	R0,# 0x00
000a92   9f0e     MOV	R7, #0xe             	TRAPPC1	_delay_ms
000a93   5f73     MOV	0x73, R7             	TRAPPC2	_delay_ms
000a94   e00e     MOVP	#0x0E               	PAGESEL	_delay_ms
000a95   de87     CALL	#0xe87              	CALL	_delay_ms
000a96   9f0a     MOV	R7, #0xa             	TRAPPC1	$+2
000a97   5f73     MOV	0x73, R7             	TRAPPC2	$+1
000a98   e00a     MOVP	#0x0A               	PAGESEL	$
000a99   e100     MOVB	#0x00               	BANKSEL	r0x101A
000a9a   0baf     INC	0xaf                 	INC	r0x101A
000a9b   ca52     JMP	#0xa52               	JMP	_00191_DS_
                                           _00195_DS_
000a9c   0008     CRET                     	CRET	
                                           func._Tail1_FullBackWater_Open	.code
                                           _Tail1_FullBackWater_Open	;Function start
000e33   981f     MOV	R0, #0x1f            	MOV	R0,# 0x1f
000e34   e100     MOVB	#0x00               	BANKSEL	r0x101F
000e35   51b0     MOV	0xb0, R0             	MOV	r0x101F, R0
                                           _00181_DS_
000e36   9829     MOV	R0, #0x29            	MOV	R0,# 0x29
                                           	BANKSEL	r0x101F
000e37   38b0     SUB	R0, 0xb0             	SUB	R0, r0x101F
000e38   7003     JNB	0x3, 0               	JNB	PSW, 0
000e39   ce61     JMP	#0xe61               	JMP	_00185_DS_
000e3a   98ff     MOV	R0, #0xff            	MOV	R0,# 0xff
                                           	BANKSEL	STK01
000e3b   51fd     MOV	0xfd, R0             	MOV	STK01, R0
                                           	BANKSEL	r0x101F
000e3c   0eb0     MOVZ	R0, 0xb0            	MOVZ	R0, r0x101F
                                           	BANKSEL	STK00
000e3d   51fe     MOV	0xfe, R0             	MOV	STK00, R0
000e3e   9801     MOV	R0, #0x1             	MOV	R0,# 0x01
000e3f   9f0d     MOV	R7, #0xd             	TRAPPC1	_SPI_Write_2Byte
000e40   5f73     MOV	0x73, R7             	TRAPPC2	_SPI_Write_2Byte
000e41   e00d     MOVP	#0x0D               	PAGESEL	_SPI_Write_2Byte
000e42   ddcf     CALL	#0xdcf              	CALL	_SPI_Write_2Byte
000e43   9f0e     MOV	R7, #0xe             	TRAPPC1	$+2
000e44   5f73     MOV	0x73, R7             	TRAPPC2	$+1
000e45   e00e     MOVP	#0x0E               	PAGESEL	$
000e46   9800     MOV	R0, #0               	MOV	R0,# 0x00
000e47   e100     MOVB	#0x00               	BANKSEL	STK01
000e48   51fd     MOV	0xfd, R0             	MOV	STK01, R0
000e49   9837     MOV	R0, #0x37            	MOV	R0,# 0x37
                                           	BANKSEL	STK00
000e4a   51fe     MOV	0xfe, R0             	MOV	STK00, R0
000e4b   9801     MOV	R0, #0x1             	MOV	R0,# 0x01
000e4c   9f0d     MOV	R7, #0xd             	TRAPPC1	_SPI_Write_2Byte
000e4d   5f73     MOV	0x73, R7             	TRAPPC2	_SPI_Write_2Byte
000e4e   e00d     MOVP	#0x0D               	PAGESEL	_SPI_Write_2Byte
000e4f   ddcf     CALL	#0xdcf              	CALL	_SPI_Write_2Byte
000e50   9f0e     MOV	R7, #0xe             	TRAPPC1	$+2
000e51   5f73     MOV	0x73, R7             	TRAPPC2	$+1
000e52   e00e     MOVP	#0x0E               	PAGESEL	$
000e53   9841     MOV	R0, #0x41            	MOV	R0,# 0x41
000e54   e100     MOVB	#0x00               	BANKSEL	STK00
000e55   51fe     MOV	0xfe, R0             	MOV	STK00, R0
000e56   9800     MOV	R0, #0               	MOV	R0,# 0x00
000e57   9f0e     MOV	R7, #0xe             	TRAPPC1	_delay_ms
000e58   5f73     MOV	0x73, R7             	TRAPPC2	_delay_ms
000e59   e00e     MOVP	#0x0E               	PAGESEL	_delay_ms
000e5a   de87     CALL	#0xe87              	CALL	_delay_ms
000e5b   9f0e     MOV	R7, #0xe             	TRAPPC1	$+2
000e5c   5f73     MOV	0x73, R7             	TRAPPC2	$+1
000e5d   e00e     MOVP	#0x0E               	PAGESEL	$
000e5e   e100     MOVB	#0x00               	BANKSEL	r0x101F
000e5f   0bb0     INC	0xb0                 	INC	r0x101F
000e60   ce36     JMP	#0xe36               	JMP	_00181_DS_
                                           _00185_DS_
000e61   0008     CRET                     	CRET	
                                           func._Stop_HighBackWater_Open	.code
                                           _Stop_HighBackWater_Open	;Function start
0008e2   e100     MOVB	#0x00               	BANKSEL	r0x1020
0008e3   03b4     CLR	0xb4                 	CLR	r0x1020
                                           _00161_DS_
0008e4   980d     MOV	R0, #0xd             	MOV	R0,# 0x0d
                                           	BANKSEL	r0x1020
0008e5   38b4     SUB	R0, 0xb4             	SUB	R0, r0x1020
0008e6   7003     JNB	0x3, 0               	JNB	PSW, 0
0008e7   c909     JMP	#0x909               	JMP	_00164_DS_
                                           	BANKSEL	r0x1020
0008e8   0eb4     MOVZ	R0, 0xb4            	MOVZ	R0, r0x1020
                                           	BANKSEL	r0x1021
0008e9   51b1     MOV	0xb1, R0             	MOV	r0x1021, R0
0008ea   9800     MOV	R0, #0               	MOV	R0,# 0x00
                                           	BANKSEL	r0x1022
0008eb   51b3     MOV	0xb3, R0             	MOV	r0x1022, R0
0008ec   9808     MOV	R0, #0x8             	MOV	R0,# 0x08
                                           	BANKSEL	r0x1023
0008ed   51b2     MOV	0xb2, R0             	MOV	r0x1023, R0
                                           	BANKSEL	r0x1021
0008ee   0bb1     INC	0xb1                 	INC	r0x1021
0008ef   c8f4     JMP	#0x8f4               	JMP	_00179_DS_
                                           _00178_DS_
0008f0   e100     MOVB	#0x00               	BANKSEL	r0x1023
0008f1   12b2     RLCR	0xb2                	RLCR	r0x1023
                                           	BANKSEL	r0x1023
0008f2   11b2     RRC	0xb2                 	RRC	r0x1023
                                           	BANKSEL	r0x1022
0008f3   11b3     RRC	0xb3                 	RRC	r0x1022
                                           _00179_DS_
                                           	BANKSEL	r0x1021
0008f4   09b1     DECJZ	0xb1               	DECJZ	r0x1021
0008f5   c8f0     JMP	#0x8f0               	JMP	_00178_DS_
                                           	BANKSEL	r0x1022
0008f6   05b3     CPL	0xb3                 	CPL	r0x1022
                                           	BANKSEL	r0x1023
0008f7   05b2     CPL	0xb2                 	CPL	r0x1023
                                           	BANKSEL	r0x1022
0008f8   0eb3     MOVZ	R0, 0xb3            	MOVZ	R0, r0x1022
                                           	BANKSEL	_Stop_High_Addr
0008f9   51e3     MOV	0xe3, R0             	MOV	_Stop_High_Addr, R0
                                           	BANKSEL	r0x1023
0008fa   0eb2     MOVZ	R0, 0xb2            	MOVZ	R0, r0x1023
                                           	BANKSEL	_Stop_High_Addr
0008fb   51e4     MOV	0xe4, R0             	MOV	(_Stop_High_Addr + 1), R0
0008fc   9841     MOV	R0, #0x41            	MOV	R0,# 0x41
                                           	BANKSEL	STK00
0008fd   51fe     MOV	0xfe, R0             	MOV	STK00, R0
0008fe   9800     MOV	R0, #0               	MOV	R0,# 0x00
0008ff   9f0e     MOV	R7, #0xe             	TRAPPC1	_delay_ms
000900   5f73     MOV	0x73, R7             	TRAPPC2	_delay_ms
000901   e00e     MOVP	#0x0E               	PAGESEL	_delay_ms
000902   de87     CALL	#0xe87              	CALL	_delay_ms
000903   9f09     MOV	R7, #0x9             	TRAPPC1	$+2
000904   5f73     MOV	0x73, R7             	TRAPPC2	$+1
000905   e009     MOVP	#0x09               	PAGESEL	$
000906   e100     MOVB	#0x00               	BANKSEL	r0x1020
000907   0bb4     INC	0xb4                 	INC	r0x1020
000908   c8e4     JMP	#0x8e4               	JMP	_00161_DS_
                                           _00164_DS_
000909   9802     MOV	R0, #0x2             	MOV	R0,# 0x02
                                           	BANKSEL	r0x1020
00090a   51b4     MOV	0xb4, R0             	MOV	r0x1020, R0
                                           _00165_DS_
00090b   9834     MOV	R0, #0x34            	MOV	R0,# 0x34
                                           	BANKSEL	r0x1020
00090c   38b4     SUB	R0, 0xb4             	SUB	R0, r0x1020
00090d   7003     JNB	0x3, 0               	JNB	PSW, 0
00090e   c942     JMP	#0x942               	JMP	_00169_DS_
00090f   9805     MOV	R0, #0x5             	MOV	R0,# 0x05
                                           	BANKSEL	STK00
000910   51fe     MOV	0xfe, R0             	MOV	STK00, R0
                                           	BANKSEL	r0x1020
000911   0eb4     MOVZ	R0, 0xb4            	MOVZ	R0, r0x1020
000912   9f0f     MOV	R7, #0xf             	TRAPPC1	__hmulchar
000913   5f73     MOV	0x73, R7             	TRAPPC2	__hmulchar
000914   e00f     MOVP	#0x0F               	PAGESEL	__hmulchar
000915   df1b     CALL	#0xf1b              	CALL	__hmulchar
000916   9f09     MOV	R7, #0x9             	TRAPPC1	$+2
000917   5f73     MOV	0x73, R7             	TRAPPC2	$+1
000918   e009     MOVP	#0x09               	PAGESEL	$
000919   e100     MOVB	#0x00               	BANKSEL	r0x1022
00091a   51b3     MOV	0xb3, R0             	MOV	r0x1022, R0
                                           	BANKSEL	r0x1022
00091b   0eb3     MOVZ	R0, 0xb3            	MOVZ	R0, r0x1022
                                           	BANKSEL	STK01
00091c   51fd     MOV	0xfd, R0             	MOV	STK01, R0
00091d   981f     MOV	R0, #0x1f            	MOV	R0,# 0x1f
                                           	BANKSEL	STK00
00091e   51fe     MOV	0xfe, R0             	MOV	STK00, R0
00091f   9801     MOV	R0, #0x1             	MOV	R0,# 0x01
000920   9f0d     MOV	R7, #0xd             	TRAPPC1	_SPI_Write_2Byte
000921   5f73     MOV	0x73, R7             	TRAPPC2	_SPI_Write_2Byte
000922   e00d     MOVP	#0x0D               	PAGESEL	_SPI_Write_2Byte
000923   ddcf     CALL	#0xdcf              	CALL	_SPI_Write_2Byte
000924   9f09     MOV	R7, #0x9             	TRAPPC1	$+2
000925   5f73     MOV	0x73, R7             	TRAPPC2	$+1
000926   e009     MOVP	#0x09               	PAGESEL	$
000927   9800     MOV	R0, #0               	MOV	R0,# 0x00
000928   e100     MOVB	#0x00               	BANKSEL	STK01
000929   51fd     MOV	0xfd, R0             	MOV	STK01, R0
00092a   9837     MOV	R0, #0x37            	MOV	R0,# 0x37
                                           	BANKSEL	STK00
00092b   51fe     MOV	0xfe, R0             	MOV	STK00, R0
00092c   9801     MOV	R0, #0x1             	MOV	R0,# 0x01
00092d   9f0d     MOV	R7, #0xd             	TRAPPC1	_SPI_Write_2Byte
00092e   5f73     MOV	0x73, R7             	TRAPPC2	_SPI_Write_2Byte
00092f   e00d     MOVP	#0x0D               	PAGESEL	_SPI_Write_2Byte
000930   ddcf     CALL	#0xdcf              	CALL	_SPI_Write_2Byte
000931   9f09     MOV	R7, #0x9             	TRAPPC1	$+2
000932   5f73     MOV	0x73, R7             	TRAPPC2	$+1
000933   e009     MOVP	#0x09               	PAGESEL	$
000934   9814     MOV	R0, #0x14            	MOV	R0,# 0x14
000935   e100     MOVB	#0x00               	BANKSEL	STK00
000936   51fe     MOV	0xfe, R0             	MOV	STK00, R0
000937   9800     MOV	R0, #0               	MOV	R0,# 0x00
000938   9f0e     MOV	R7, #0xe             	TRAPPC1	_delay_ms
000939   5f73     MOV	0x73, R7             	TRAPPC2	_delay_ms
00093a   e00e     MOVP	#0x0E               	PAGESEL	_delay_ms
00093b   de87     CALL	#0xe87              	CALL	_delay_ms
00093c   9f09     MOV	R7, #0x9             	TRAPPC1	$+2
00093d   5f73     MOV	0x73, R7             	TRAPPC2	$+1
00093e   e009     MOVP	#0x09               	PAGESEL	$
00093f   e100     MOVB	#0x00               	BANKSEL	r0x1020
000940   0bb4     INC	0xb4                 	INC	r0x1020
000941   c90b     JMP	#0x90b               	JMP	_00165_DS_
                                           _00169_DS_
000942   0008     CRET                     	CRET	
                                           func._Tail_LowWater_Blinky	.code
                                           _Tail_LowWater_Blinky	;Function start
000515   9820     MOV	R0, #0x20            	MOV	R0,# 0x20
000516   e100     MOVB	#0x00               	BANKSEL	r0x1024
000517   51b9     MOV	0xb9, R0             	MOV	r0x1024, R0
                                           _00141_DS_
000518   982a     MOV	R0, #0x2a            	MOV	R0,# 0x2a
                                           	BANKSEL	r0x1024
000519   38b9     SUB	R0, 0xb9             	SUB	R0, r0x1024
00051a   7003     JNB	0x3, 0               	JNB	PSW, 0
00051b   c552     JMP	#0x552               	JMP	_00144_DS_
                                           	BANKSEL	r0x1024
00051c   06b9     DECR	0xb9                	DECR	r0x1024
                                           	BANKSEL	r0x1025
00051d   51b8     MOV	0xb8, R0             	MOV	r0x1025, R0
00051e   98ff     MOV	R0, #0xff            	MOV	R0,# 0xff
                                           	BANKSEL	STK01
00051f   51fd     MOV	0xfd, R0             	MOV	STK01, R0
                                           	BANKSEL	r0x1025
000520   0eb8     MOVZ	R0, 0xb8            	MOVZ	R0, r0x1025
                                           	BANKSEL	STK00
000521   51fe     MOV	0xfe, R0             	MOV	STK00, R0
000522   9801     MOV	R0, #0x1             	MOV	R0,# 0x01
000523   9f0d     MOV	R7, #0xd             	TRAPPC1	_SPI_Write_2Byte
000524   5f73     MOV	0x73, R7             	TRAPPC2	_SPI_Write_2Byte
000525   e00d     MOVP	#0x0D               	PAGESEL	_SPI_Write_2Byte
000526   ddcf     CALL	#0xdcf              	CALL	_SPI_Write_2Byte
000527   9f05     MOV	R7, #0x5             	TRAPPC1	$+2
000528   5f73     MOV	0x73, R7             	TRAPPC2	$+1
000529   e005     MOVP	#0x05               	PAGESEL	$
00052a   9810     MOV	R0, #0x10            	MOV	R0,# 0x10
00052b   e100     MOVB	#0x00               	BANKSEL	STK01
00052c   51fd     MOV	0xfd, R0             	MOV	STK01, R0
                                           	BANKSEL	r0x1024
00052d   0eb9     MOVZ	R0, 0xb9            	MOVZ	R0, r0x1024
                                           	BANKSEL	STK00
00052e   51fe     MOV	0xfe, R0             	MOV	STK00, R0
00052f   9801     MOV	R0, #0x1             	MOV	R0,# 0x01
000530   9f0d     MOV	R7, #0xd             	TRAPPC1	_SPI_Write_2Byte
000531   5f73     MOV	0x73, R7             	TRAPPC2	_SPI_Write_2Byte
000532   e00d     MOVP	#0x0D               	PAGESEL	_SPI_Write_2Byte
000533   ddcf     CALL	#0xdcf              	CALL	_SPI_Write_2Byte
000534   9f05     MOV	R7, #0x5             	TRAPPC1	$+2
000535   5f73     MOV	0x73, R7             	TRAPPC2	$+1
000536   e005     MOVP	#0x05               	PAGESEL	$
000537   9800     MOV	R0, #0               	MOV	R0,# 0x00
000538   e100     MOVB	#0x00               	BANKSEL	STK01
000539   51fd     MOV	0xfd, R0             	MOV	STK01, R0
00053a   9837     MOV	R0, #0x37            	MOV	R0,# 0x37
                                           	BANKSEL	STK00
00053b   51fe     MOV	0xfe, R0             	MOV	STK00, R0
00053c   9801     MOV	R0, #0x1             	MOV	R0,# 0x01
00053d   9f0d     MOV	R7, #0xd             	TRAPPC1	_SPI_Write_2Byte
00053e   5f73     MOV	0x73, R7             	TRAPPC2	_SPI_Write_2Byte
00053f   e00d     MOVP	#0x0D               	PAGESEL	_SPI_Write_2Byte
000540   ddcf     CALL	#0xdcf              	CALL	_SPI_Write_2Byte
000541   9f05     MOV	R7, #0x5             	TRAPPC1	$+2
000542   5f73     MOV	0x73, R7             	TRAPPC2	$+1
000543   e005     MOVP	#0x05               	PAGESEL	$
000544   9841     MOV	R0, #0x41            	MOV	R0,# 0x41
000545   e100     MOVB	#0x00               	BANKSEL	STK00
000546   51fe     MOV	0xfe, R0             	MOV	STK00, R0
000547   9800     MOV	R0, #0               	MOV	R0,# 0x00
000548   9f0e     MOV	R7, #0xe             	TRAPPC1	_delay_ms
000549   5f73     MOV	0x73, R7             	TRAPPC2	_delay_ms
00054a   e00e     MOVP	#0x0E               	PAGESEL	_delay_ms
00054b   de87     CALL	#0xe87              	CALL	_delay_ms
00054c   9f05     MOV	R7, #0x5             	TRAPPC1	$+2
00054d   5f73     MOV	0x73, R7             	TRAPPC2	$+1
00054e   e005     MOVP	#0x05               	PAGESEL	$
00054f   e100     MOVB	#0x00               	BANKSEL	r0x1024
000550   0bb9     INC	0xb9                 	INC	r0x1024
000551   c518     JMP	#0x518               	JMP	_00141_DS_
                                           _00144_DS_
000552   981f     MOV	R0, #0x1f            	MOV	R0,# 0x1f
                                           	BANKSEL	r0x1024
000553   51b9     MOV	0xb9, R0             	MOV	r0x1024, R0
                                           _00145_DS_
000554   9831     MOV	R0, #0x31            	MOV	R0,# 0x31
                                           	BANKSEL	r0x1024
000555   38b9     SUB	R0, 0xb9             	SUB	R0, r0x1024
000556   7003     JNB	0x3, 0               	JNB	PSW, 0
000557   c5ae     JMP	#0x5ae               	JMP	_00149_DS_
                                           	BANKSEL	r0x1024
000558   0eb9     MOVZ	R0, 0xb9            	MOVZ	R0, r0x1024
                                           	BANKSEL	r0x1025
000559   51b8     MOV	0xb8, R0             	MOV	r0x1025, R0
                                           	BANKSEL	r0x1026
00055a   03b7     CLR	0xb7                 	CLR	r0x1026
00055b   98e1     MOV	R0, #0xe1            	MOV	R0,# 0xe1
                                           	BANKSEL	r0x1025
00055c   21b8     ADD	0xb8, R0             	ADD	r0x1025, R0
00055d   7003     JNB	0x3, 0               	JNB	PSW, 0
00055e   c560     JMP	#0x560               	JMP	_00333_DS_
                                           	BANKSEL	r0x1026
00055f   07b7     DEC	0xb7                 	DEC	r0x1026
                                           _00333_DS_
000560   9801     MOV	R0, #0x1             	MOV	R0,# 0x01
                                           	BANKSEL	r0x1027
000561   51b6     MOV	0xb6, R0             	MOV	r0x1027, R0
000562   9800     MOV	R0, #0               	MOV	R0,# 0x00
                                           	BANKSEL	r0x1028
000563   51b5     MOV	0xb5, R0             	MOV	r0x1028, R0
                                           	BANKSEL	r0x1025
000564   0eb8     MOVZ	R0, 0xb8            	MOVZ	R0, r0x1025
000565   ff10     INC	R0                   	INC	R0
000566   c56b     JMP	#0x56b               	JMP	_00160_DS_
                                           _00159_DS_
000567   6003     CLR	0x3, 0               	CLR	PSW, 0
000568   e100     MOVB	#0x00               	BANKSEL	r0x1027
000569   13b6     RLC	0xb6                 	RLC	r0x1027
                                           	BANKSEL	r0x1028
00056a   13b5     RLC	0xb5                 	RLC	r0x1028
                                           _00160_DS_
00056b   ff58     DECJZ	R0                 	DECJZ	R0
00056c   c567     JMP	#0x567               	JMP	_00159_DS_
                                           	BANKSEL	r0x1027
00056d   0eb6     MOVZ	R0, 0xb6            	MOVZ	R0, r0x1027
                                           	BANKSEL	r0x1025
00056e   51b8     MOV	0xb8, R0             	MOV	r0x1025, R0
                                           	BANKSEL	r0x1025
00056f   50b8     MOV	R0, 0xb8             	MOV	R0, r0x1025
                                           	BANKSEL	_Stop_Low_Addr
000570   21cb     ADD	0xcb, R0             	ADD	_Stop_Low_Addr, R0
                                           	BANKSEL	r0x1028
000571   0eb5     MOVZ	R0, 0xb5            	MOVZ	R0, r0x1028
                                           	BANKSEL	r0x1026
000572   51b7     MOV	0xb7, R0             	MOV	r0x1026, R0
000573   7003     JNB	0x3, 0               	JNB	PSW, 0
000574   ff10     INC	R0                   	INC	R0
000575   7203     JNB	0x3, 2               	JNB	PSW, 2
000576   c578     JMP	#0x578               	JMP	_00334_DS_
                                           	BANKSEL	_Stop_Low_Addr
000577   21cc     ADD	0xcc, R0             	ADD	(_Stop_Low_Addr + 1), R0
                                           _00334_DS_
                                           	BANKSEL	r0x1024
000578   06b9     DECR	0xb9                	DECR	r0x1024
                                           	BANKSEL	r0x1025
000579   51b8     MOV	0xb8, R0             	MOV	r0x1025, R0
00057a   98ff     MOV	R0, #0xff            	MOV	R0,# 0xff
                                           	BANKSEL	STK01
00057b   51fd     MOV	0xfd, R0             	MOV	STK01, R0
                                           	BANKSEL	r0x1025
00057c   0eb8     MOVZ	R0, 0xb8            	MOVZ	R0, r0x1025
                                           	BANKSEL	STK00
00057d   51fe     MOV	0xfe, R0             	MOV	STK00, R0
00057e   9802     MOV	R0, #0x2             	MOV	R0,# 0x02
00057f   9f0d     MOV	R7, #0xd             	TRAPPC1	_SPI_Write_2Byte
000580   5f73     MOV	0x73, R7             	TRAPPC2	_SPI_Write_2Byte
000581   e00d     MOVP	#0x0D               	PAGESEL	_SPI_Write_2Byte
000582   ddcf     CALL	#0xdcf              	CALL	_SPI_Write_2Byte
000583   9f05     MOV	R7, #0x5             	TRAPPC1	$+2
000584   5f73     MOV	0x73, R7             	TRAPPC2	$+1
000585   e005     MOVP	#0x05               	PAGESEL	$
000586   9810     MOV	R0, #0x10            	MOV	R0,# 0x10
000587   e100     MOVB	#0x00               	BANKSEL	STK01
000588   51fd     MOV	0xfd, R0             	MOV	STK01, R0
                                           	BANKSEL	r0x1024
000589   0eb9     MOVZ	R0, 0xb9            	MOVZ	R0, r0x1024
                                           	BANKSEL	STK00
00058a   51fe     MOV	0xfe, R0             	MOV	STK00, R0
00058b   9802     MOV	R0, #0x2             	MOV	R0,# 0x02
00058c   9f0d     MOV	R7, #0xd             	TRAPPC1	_SPI_Write_2Byte
00058d   5f73     MOV	0x73, R7             	TRAPPC2	_SPI_Write_2Byte
00058e   e00d     MOVP	#0x0D               	PAGESEL	_SPI_Write_2Byte
00058f   ddcf     CALL	#0xdcf              	CALL	_SPI_Write_2Byte
000590   9f05     MOV	R7, #0x5             	TRAPPC1	$+2
000591   5f73     MOV	0x73, R7             	TRAPPC2	$+1
000592   e005     MOVP	#0x05               	PAGESEL	$
000593   9800     MOV	R0, #0               	MOV	R0,# 0x00
000594   e100     MOVB	#0x00               	BANKSEL	STK01
000595   51fd     MOV	0xfd, R0             	MOV	STK01, R0
000596   9837     MOV	R0, #0x37            	MOV	R0,# 0x37
                                           	BANKSEL	STK00
000597   51fe     MOV	0xfe, R0             	MOV	STK00, R0
000598   9802     MOV	R0, #0x2             	MOV	R0,# 0x02
000599   9f0d     MOV	R7, #0xd             	TRAPPC1	_SPI_Write_2Byte
00059a   5f73     MOV	0x73, R7             	TRAPPC2	_SPI_Write_2Byte
00059b   e00d     MOVP	#0x0D               	PAGESEL	_SPI_Write_2Byte
00059c   ddcf     CALL	#0xdcf              	CALL	_SPI_Write_2Byte
00059d   9f05     MOV	R7, #0x5             	TRAPPC1	$+2
00059e   5f73     MOV	0x73, R7             	TRAPPC2	$+1
00059f   e005     MOVP	#0x05               	PAGESEL	$
0005a0   9841     MOV	R0, #0x41            	MOV	R0,# 0x41
0005a1   e100     MOVB	#0x00               	BANKSEL	STK00
0005a2   51fe     MOV	0xfe, R0             	MOV	STK00, R0
0005a3   9800     MOV	R0, #0               	MOV	R0,# 0x00
0005a4   9f0e     MOV	R7, #0xe             	TRAPPC1	_delay_ms
0005a5   5f73     MOV	0x73, R7             	TRAPPC2	_delay_ms
0005a6   e00e     MOVP	#0x0E               	PAGESEL	_delay_ms
0005a7   de87     CALL	#0xe87              	CALL	_delay_ms
0005a8   9f05     MOV	R7, #0x5             	TRAPPC1	$+2
0005a9   5f73     MOV	0x73, R7             	TRAPPC2	$+1
0005aa   e005     MOVP	#0x05               	PAGESEL	$
0005ab   e100     MOVB	#0x00               	BANKSEL	r0x1024
0005ac   0bb9     INC	0xb9                 	INC	r0x1024
0005ad   c554     JMP	#0x554               	JMP	_00145_DS_
                                           _00149_DS_
0005ae   0008     CRET                     	CRET	
                                           func._Tail_HighWater_Open	.code
                                           _Tail_HighWater_Open	;Function start
000477   9820     MOV	R0, #0x20            	MOV	R0,# 0x20
000478   e100     MOVB	#0x00               	BANKSEL	r0x1029
000479   51be     MOV	0xbe, R0             	MOV	r0x1029, R0
                                           _00121_DS_
00047a   982a     MOV	R0, #0x2a            	MOV	R0,# 0x2a
                                           	BANKSEL	r0x1029
00047b   38be     SUB	R0, 0xbe             	SUB	R0, r0x1029
00047c   7003     JNB	0x3, 0               	JNB	PSW, 0
00047d   c4b4     JMP	#0x4b4               	JMP	_00124_DS_
                                           	BANKSEL	r0x1029
00047e   06be     DECR	0xbe                	DECR	r0x1029
                                           	BANKSEL	r0x102A
00047f   51bd     MOV	0xbd, R0             	MOV	r0x102A, R0
000480   9810     MOV	R0, #0x10            	MOV	R0,# 0x10
                                           	BANKSEL	STK01
000481   51fd     MOV	0xfd, R0             	MOV	STK01, R0
                                           	BANKSEL	r0x102A
000482   0ebd     MOVZ	R0, 0xbd            	MOVZ	R0, r0x102A
                                           	BANKSEL	STK00
000483   51fe     MOV	0xfe, R0             	MOV	STK00, R0
000484   9801     MOV	R0, #0x1             	MOV	R0,# 0x01
000485   9f0d     MOV	R7, #0xd             	TRAPPC1	_SPI_Write_2Byte
000486   5f73     MOV	0x73, R7             	TRAPPC2	_SPI_Write_2Byte
000487   e00d     MOVP	#0x0D               	PAGESEL	_SPI_Write_2Byte
000488   ddcf     CALL	#0xdcf              	CALL	_SPI_Write_2Byte
000489   9f04     MOV	R7, #0x4             	TRAPPC1	$+2
00048a   5f73     MOV	0x73, R7             	TRAPPC2	$+1
00048b   e004     MOVP	#0x04               	PAGESEL	$
00048c   98ff     MOV	R0, #0xff            	MOV	R0,# 0xff
00048d   e100     MOVB	#0x00               	BANKSEL	STK01
00048e   51fd     MOV	0xfd, R0             	MOV	STK01, R0
                                           	BANKSEL	r0x1029
00048f   0ebe     MOVZ	R0, 0xbe            	MOVZ	R0, r0x1029
                                           	BANKSEL	STK00
000490   51fe     MOV	0xfe, R0             	MOV	STK00, R0
000491   9801     MOV	R0, #0x1             	MOV	R0,# 0x01
000492   9f0d     MOV	R7, #0xd             	TRAPPC1	_SPI_Write_2Byte
000493   5f73     MOV	0x73, R7             	TRAPPC2	_SPI_Write_2Byte
000494   e00d     MOVP	#0x0D               	PAGESEL	_SPI_Write_2Byte
000495   ddcf     CALL	#0xdcf              	CALL	_SPI_Write_2Byte
000496   9f04     MOV	R7, #0x4             	TRAPPC1	$+2
000497   5f73     MOV	0x73, R7             	TRAPPC2	$+1
000498   e004     MOVP	#0x04               	PAGESEL	$
000499   9800     MOV	R0, #0               	MOV	R0,# 0x00
00049a   e100     MOVB	#0x00               	BANKSEL	STK01
00049b   51fd     MOV	0xfd, R0             	MOV	STK01, R0
00049c   9837     MOV	R0, #0x37            	MOV	R0,# 0x37
                                           	BANKSEL	STK00
00049d   51fe     MOV	0xfe, R0             	MOV	STK00, R0
00049e   9801     MOV	R0, #0x1             	MOV	R0,# 0x01
00049f   9f0d     MOV	R7, #0xd             	TRAPPC1	_SPI_Write_2Byte
0004a0   5f73     MOV	0x73, R7             	TRAPPC2	_SPI_Write_2Byte
0004a1   e00d     MOVP	#0x0D               	PAGESEL	_SPI_Write_2Byte
0004a2   ddcf     CALL	#0xdcf              	CALL	_SPI_Write_2Byte
0004a3   9f04     MOV	R7, #0x4             	TRAPPC1	$+2
0004a4   5f73     MOV	0x73, R7             	TRAPPC2	$+1
0004a5   e004     MOVP	#0x04               	PAGESEL	$
0004a6   9841     MOV	R0, #0x41            	MOV	R0,# 0x41
0004a7   e100     MOVB	#0x00               	BANKSEL	STK00
0004a8   51fe     MOV	0xfe, R0             	MOV	STK00, R0
0004a9   9800     MOV	R0, #0               	MOV	R0,# 0x00
0004aa   9f0e     MOV	R7, #0xe             	TRAPPC1	_delay_ms
0004ab   5f73     MOV	0x73, R7             	TRAPPC2	_delay_ms
0004ac   e00e     MOVP	#0x0E               	PAGESEL	_delay_ms
0004ad   de87     CALL	#0xe87              	CALL	_delay_ms
0004ae   9f04     MOV	R7, #0x4             	TRAPPC1	$+2
0004af   5f73     MOV	0x73, R7             	TRAPPC2	$+1
0004b0   e004     MOVP	#0x04               	PAGESEL	$
0004b1   e100     MOVB	#0x00               	BANKSEL	r0x1029
0004b2   0bbe     INC	0xbe                 	INC	r0x1029
0004b3   c47a     JMP	#0x47a               	JMP	_00121_DS_
                                           _00124_DS_
0004b4   98ff     MOV	R0, #0xff            	MOV	R0,# 0xff
                                           	BANKSEL	_Stop_High_Addr
0004b5   51e3     MOV	0xe3, R0             	MOV	_Stop_High_Addr, R0
0004b6   980f     MOV	R0, #0xf             	MOV	R0,# 0x0f
                                           	BANKSEL	_Stop_High_Addr
0004b7   51e4     MOV	0xe4, R0             	MOV	(_Stop_High_Addr + 1), R0
0004b8   981f     MOV	R0, #0x1f            	MOV	R0,# 0x1f
                                           	BANKSEL	r0x1029
0004b9   51be     MOV	0xbe, R0             	MOV	r0x1029, R0
                                           _00125_DS_
0004ba   9831     MOV	R0, #0x31            	MOV	R0,# 0x31
                                           	BANKSEL	r0x1029
0004bb   38be     SUB	R0, 0xbe             	SUB	R0, r0x1029
0004bc   7003     JNB	0x3, 0               	JNB	PSW, 0
0004bd   c514     JMP	#0x514               	JMP	_00129_DS_
                                           	BANKSEL	r0x1029
0004be   0ebe     MOVZ	R0, 0xbe            	MOVZ	R0, r0x1029
                                           	BANKSEL	r0x102A
0004bf   51bd     MOV	0xbd, R0             	MOV	r0x102A, R0
                                           	BANKSEL	r0x102B
0004c0   03bc     CLR	0xbc                 	CLR	r0x102B
0004c1   98e1     MOV	R0, #0xe1            	MOV	R0,# 0xe1
                                           	BANKSEL	r0x102A
0004c2   21bd     ADD	0xbd, R0             	ADD	r0x102A, R0
0004c3   7003     JNB	0x3, 0               	JNB	PSW, 0
0004c4   c4c6     JMP	#0x4c6               	JMP	_00335_DS_
                                           	BANKSEL	r0x102B
0004c5   07bc     DEC	0xbc                 	DEC	r0x102B
                                           _00335_DS_
0004c6   9801     MOV	R0, #0x1             	MOV	R0,# 0x01
                                           	BANKSEL	r0x102C
0004c7   51bb     MOV	0xbb, R0             	MOV	r0x102C, R0
0004c8   9800     MOV	R0, #0               	MOV	R0,# 0x00
                                           	BANKSEL	r0x102D
0004c9   51ba     MOV	0xba, R0             	MOV	r0x102D, R0
                                           	BANKSEL	r0x102A
0004ca   0ebd     MOVZ	R0, 0xbd            	MOVZ	R0, r0x102A
0004cb   ff10     INC	R0                   	INC	R0
0004cc   c4d1     JMP	#0x4d1               	JMP	_00140_DS_
                                           _00139_DS_
0004cd   6003     CLR	0x3, 0               	CLR	PSW, 0
0004ce   e100     MOVB	#0x00               	BANKSEL	r0x102C
0004cf   13bb     RLC	0xbb                 	RLC	r0x102C
                                           	BANKSEL	r0x102D
0004d0   13ba     RLC	0xba                 	RLC	r0x102D
                                           _00140_DS_
0004d1   ff58     DECJZ	R0                 	DECJZ	R0
0004d2   c4cd     JMP	#0x4cd               	JMP	_00139_DS_
                                           	BANKSEL	r0x102C
0004d3   0ebb     MOVZ	R0, 0xbb            	MOVZ	R0, r0x102C
                                           	BANKSEL	r0x102A
0004d4   51bd     MOV	0xbd, R0             	MOV	r0x102A, R0
                                           	BANKSEL	r0x102A
0004d5   50bd     MOV	R0, 0xbd             	MOV	R0, r0x102A
                                           	BANKSEL	_Stop_Low_Addr
0004d6   21cb     ADD	0xcb, R0             	ADD	_Stop_Low_Addr, R0
                                           	BANKSEL	r0x102D
0004d7   0eba     MOVZ	R0, 0xba            	MOVZ	R0, r0x102D
                                           	BANKSEL	r0x102B
0004d8   51bc     MOV	0xbc, R0             	MOV	r0x102B, R0
0004d9   7003     JNB	0x3, 0               	JNB	PSW, 0
0004da   ff10     INC	R0                   	INC	R0
0004db   7203     JNB	0x3, 2               	JNB	PSW, 2
0004dc   c4de     JMP	#0x4de               	JMP	_00336_DS_
                                           	BANKSEL	_Stop_Low_Addr
0004dd   21cc     ADD	0xcc, R0             	ADD	(_Stop_Low_Addr + 1), R0
                                           _00336_DS_
                                           	BANKSEL	r0x1029
0004de   06be     DECR	0xbe                	DECR	r0x1029
                                           	BANKSEL	r0x102A
0004df   51bd     MOV	0xbd, R0             	MOV	r0x102A, R0
0004e0   9810     MOV	R0, #0x10            	MOV	R0,# 0x10
                                           	BANKSEL	STK01
0004e1   51fd     MOV	0xfd, R0             	MOV	STK01, R0
                                           	BANKSEL	r0x102A
0004e2   0ebd     MOVZ	R0, 0xbd            	MOVZ	R0, r0x102A
                                           	BANKSEL	STK00
0004e3   51fe     MOV	0xfe, R0             	MOV	STK00, R0
0004e4   9802     MOV	R0, #0x2             	MOV	R0,# 0x02
0004e5   9f0d     MOV	R7, #0xd             	TRAPPC1	_SPI_Write_2Byte
0004e6   5f73     MOV	0x73, R7             	TRAPPC2	_SPI_Write_2Byte
0004e7   e00d     MOVP	#0x0D               	PAGESEL	_SPI_Write_2Byte
0004e8   ddcf     CALL	#0xdcf              	CALL	_SPI_Write_2Byte
0004e9   9f04     MOV	R7, #0x4             	TRAPPC1	$+2
0004ea   5f73     MOV	0x73, R7             	TRAPPC2	$+1
0004eb   e004     MOVP	#0x04               	PAGESEL	$
0004ec   98ff     MOV	R0, #0xff            	MOV	R0,# 0xff
0004ed   e100     MOVB	#0x00               	BANKSEL	STK01
0004ee   51fd     MOV	0xfd, R0             	MOV	STK01, R0
                                           	BANKSEL	r0x1029
0004ef   0ebe     MOVZ	R0, 0xbe            	MOVZ	R0, r0x1029
                                           	BANKSEL	STK00
0004f0   51fe     MOV	0xfe, R0             	MOV	STK00, R0
0004f1   9802     MOV	R0, #0x2             	MOV	R0,# 0x02
0004f2   9f0d     MOV	R7, #0xd             	TRAPPC1	_SPI_Write_2Byte
0004f3   5f73     MOV	0x73, R7             	TRAPPC2	_SPI_Write_2Byte
0004f4   e00d     MOVP	#0x0D               	PAGESEL	_SPI_Write_2Byte
0004f5   ddcf     CALL	#0xdcf              	CALL	_SPI_Write_2Byte
0004f6   9f04     MOV	R7, #0x4             	TRAPPC1	$+2
0004f7   5f73     MOV	0x73, R7             	TRAPPC2	$+1
0004f8   e004     MOVP	#0x04               	PAGESEL	$
0004f9   9800     MOV	R0, #0               	MOV	R0,# 0x00
0004fa   e100     MOVB	#0x00               	BANKSEL	STK01
0004fb   51fd     MOV	0xfd, R0             	MOV	STK01, R0
0004fc   9837     MOV	R0, #0x37            	MOV	R0,# 0x37
                                           	BANKSEL	STK00
0004fd   51fe     MOV	0xfe, R0             	MOV	STK00, R0
0004fe   9802     MOV	R0, #0x2             	MOV	R0,# 0x02
0004ff   9f0d     MOV	R7, #0xd             	TRAPPC1	_SPI_Write_2Byte
000500   5f73     MOV	0x73, R7             	TRAPPC2	_SPI_Write_2Byte
000501   e00d     MOVP	#0x0D               	PAGESEL	_SPI_Write_2Byte
000502   ddcf     CALL	#0xdcf              	CALL	_SPI_Write_2Byte
000503   9f05     MOV	R7, #0x5             	TRAPPC1	$+2
000504   5f73     MOV	0x73, R7             	TRAPPC2	$+1
000505   e005     MOVP	#0x05               	PAGESEL	$
000506   9841     MOV	R0, #0x41            	MOV	R0,# 0x41
000507   e100     MOVB	#0x00               	BANKSEL	STK00
000508   51fe     MOV	0xfe, R0             	MOV	STK00, R0
000509   9800     MOV	R0, #0               	MOV	R0,# 0x00
00050a   9f0e     MOV	R7, #0xe             	TRAPPC1	_delay_ms
00050b   5f73     MOV	0x73, R7             	TRAPPC2	_delay_ms
00050c   e00e     MOVP	#0x0E               	PAGESEL	_delay_ms
00050d   de87     CALL	#0xe87              	CALL	_delay_ms
00050e   9f05     MOV	R7, #0x5             	TRAPPC1	$+2
00050f   5f73     MOV	0x73, R7             	TRAPPC2	$+1
000510   e005     MOVP	#0x05               	PAGESEL	$
000511   e100     MOVB	#0x00               	BANKSEL	r0x1029
000512   0bbe     INC	0xbe                 	INC	r0x1029
000513   c4ba     JMP	#0x4ba               	JMP	_00125_DS_
                                           _00129_DS_
000514   0008     CRET                     	CRET	
                                           func._Tail_LowWater_Open	.code
                                           _Tail_LowWater_Open	;Function start
000943   9820     MOV	R0, #0x20            	MOV	R0,# 0x20
000944   e100     MOVB	#0x00               	BANKSEL	r0x102E
000945   51bf     MOV	0xbf, R0             	MOV	r0x102E, R0
                                           _00103_DS_
000946   9831     MOV	R0, #0x31            	MOV	R0,# 0x31
                                           	BANKSEL	r0x102E
000947   38bf     SUB	R0, 0xbf             	SUB	R0, r0x102E
000948   7003     JNB	0x3, 0               	JNB	PSW, 0
000949   c971     JMP	#0x971               	JMP	_00106_DS_
00094a   9810     MOV	R0, #0x10            	MOV	R0,# 0x10
                                           	BANKSEL	STK01
00094b   51fd     MOV	0xfd, R0             	MOV	STK01, R0
                                           	BANKSEL	r0x102E
00094c   0ebf     MOVZ	R0, 0xbf            	MOVZ	R0, r0x102E
                                           	BANKSEL	STK00
00094d   51fe     MOV	0xfe, R0             	MOV	STK00, R0
00094e   9801     MOV	R0, #0x1             	MOV	R0,# 0x01
00094f   9f0d     MOV	R7, #0xd             	TRAPPC1	_SPI_Write_2Byte
000950   5f73     MOV	0x73, R7             	TRAPPC2	_SPI_Write_2Byte
000951   e00d     MOVP	#0x0D               	PAGESEL	_SPI_Write_2Byte
000952   ddcf     CALL	#0xdcf              	CALL	_SPI_Write_2Byte
000953   9f09     MOV	R7, #0x9             	TRAPPC1	$+2
000954   5f73     MOV	0x73, R7             	TRAPPC2	$+1
000955   e009     MOVP	#0x09               	PAGESEL	$
000956   9800     MOV	R0, #0               	MOV	R0,# 0x00
000957   e100     MOVB	#0x00               	BANKSEL	STK01
000958   51fd     MOV	0xfd, R0             	MOV	STK01, R0
000959   9837     MOV	R0, #0x37            	MOV	R0,# 0x37
                                           	BANKSEL	STK00
00095a   51fe     MOV	0xfe, R0             	MOV	STK00, R0
00095b   9801     MOV	R0, #0x1             	MOV	R0,# 0x01
00095c   9f0d     MOV	R7, #0xd             	TRAPPC1	_SPI_Write_2Byte
00095d   5f73     MOV	0x73, R7             	TRAPPC2	_SPI_Write_2Byte
00095e   e00d     MOVP	#0x0D               	PAGESEL	_SPI_Write_2Byte
00095f   ddcf     CALL	#0xdcf              	CALL	_SPI_Write_2Byte
000960   9f09     MOV	R7, #0x9             	TRAPPC1	$+2
000961   5f73     MOV	0x73, R7             	TRAPPC2	$+1
000962   e009     MOVP	#0x09               	PAGESEL	$
000963   981e     MOV	R0, #0x1e            	MOV	R0,# 0x1e
000964   e100     MOVB	#0x00               	BANKSEL	STK00
000965   51fe     MOV	0xfe, R0             	MOV	STK00, R0
000966   9800     MOV	R0, #0               	MOV	R0,# 0x00
000967   9f0e     MOV	R7, #0xe             	TRAPPC1	_delay_ms
000968   5f73     MOV	0x73, R7             	TRAPPC2	_delay_ms
000969   e00e     MOVP	#0x0E               	PAGESEL	_delay_ms
00096a   de87     CALL	#0xe87              	CALL	_delay_ms
00096b   9f09     MOV	R7, #0x9             	TRAPPC1	$+2
00096c   5f73     MOV	0x73, R7             	TRAPPC2	$+1
00096d   e009     MOVP	#0x09               	PAGESEL	$
00096e   e100     MOVB	#0x00               	BANKSEL	r0x102E
00096f   0bbf     INC	0xbf                 	INC	r0x102E
000970   c946     JMP	#0x946               	JMP	_00103_DS_
                                           _00106_DS_
000971   981f     MOV	R0, #0x1f            	MOV	R0,# 0x1f
                                           	BANKSEL	r0x102E
000972   51bf     MOV	0xbf, R0             	MOV	r0x102E, R0
                                           _00107_DS_
000973   9831     MOV	R0, #0x31            	MOV	R0,# 0x31
                                           	BANKSEL	r0x102E
000974   38bf     SUB	R0, 0xbf             	SUB	R0, r0x102E
000975   7003     JNB	0x3, 0               	JNB	PSW, 0
000976   c99e     JMP	#0x99e               	JMP	_00111_DS_
000977   9810     MOV	R0, #0x10            	MOV	R0,# 0x10
                                           	BANKSEL	STK01
000978   51fd     MOV	0xfd, R0             	MOV	STK01, R0
                                           	BANKSEL	r0x102E
000979   0ebf     MOVZ	R0, 0xbf            	MOVZ	R0, r0x102E
                                           	BANKSEL	STK00
00097a   51fe     MOV	0xfe, R0             	MOV	STK00, R0
00097b   9802     MOV	R0, #0x2             	MOV	R0,# 0x02
00097c   9f0d     MOV	R7, #0xd             	TRAPPC1	_SPI_Write_2Byte
00097d   5f73     MOV	0x73, R7             	TRAPPC2	_SPI_Write_2Byte
00097e   e00d     MOVP	#0x0D               	PAGESEL	_SPI_Write_2Byte
00097f   ddcf     CALL	#0xdcf              	CALL	_SPI_Write_2Byte
000980   9f09     MOV	R7, #0x9             	TRAPPC1	$+2
000981   5f73     MOV	0x73, R7             	TRAPPC2	$+1
000982   e009     MOVP	#0x09               	PAGESEL	$
000983   9800     MOV	R0, #0               	MOV	R0,# 0x00
000984   e100     MOVB	#0x00               	BANKSEL	STK01
000985   51fd     MOV	0xfd, R0             	MOV	STK01, R0
000986   9837     MOV	R0, #0x37            	MOV	R0,# 0x37
                                           	BANKSEL	STK00
000987   51fe     MOV	0xfe, R0             	MOV	STK00, R0
000988   9802     MOV	R0, #0x2             	MOV	R0,# 0x02
000989   9f0d     MOV	R7, #0xd             	TRAPPC1	_SPI_Write_2Byte
00098a   5f73     MOV	0x73, R7             	TRAPPC2	_SPI_Write_2Byte
00098b   e00d     MOVP	#0x0D               	PAGESEL	_SPI_Write_2Byte
00098c   ddcf     CALL	#0xdcf              	CALL	_SPI_Write_2Byte
00098d   9f09     MOV	R7, #0x9             	TRAPPC1	$+2
00098e   5f73     MOV	0x73, R7             	TRAPPC2	$+1
00098f   e009     MOVP	#0x09               	PAGESEL	$
000990   981e     MOV	R0, #0x1e            	MOV	R0,# 0x1e
000991   e100     MOVB	#0x00               	BANKSEL	STK00
000992   51fe     MOV	0xfe, R0             	MOV	STK00, R0
000993   9800     MOV	R0, #0               	MOV	R0,# 0x00
000994   9f0e     MOV	R7, #0xe             	TRAPPC1	_delay_ms
000995   5f73     MOV	0x73, R7             	TRAPPC2	_delay_ms
000996   e00e     MOVP	#0x0E               	PAGESEL	_delay_ms
000997   de87     CALL	#0xe87              	CALL	_delay_ms
000998   9f09     MOV	R7, #0x9             	TRAPPC1	$+2
000999   5f73     MOV	0x73, R7             	TRAPPC2	$+1
00099a   e009     MOVP	#0x09               	PAGESEL	$
00099b   e100     MOVB	#0x00               	BANKSEL	r0x102E
00099c   0bbf     INC	0xbf                 	INC	r0x102E
00099d   c973     JMP	#0x973               	JMP	_00107_DS_
                                           _00111_DS_
00099e   0008     CRET                     	CRET	
                                           func._Tail12_Breath_CloseTo10	.code
                                           _Tail12_Breath_CloseTo10	;Function start
000c7f   e100     MOVB	#0x00               	BANKSEL	r0x102F
000c80   03c1     CLR	0xc1                 	CLR	r0x102F
                                           _00093_DS_
000c81   9831     MOV	R0, #0x31            	MOV	R0,# 0x31
                                           	BANKSEL	r0x102F
000c82   38c1     SUB	R0, 0xc1             	SUB	R0, r0x102F
000c83   7003     JNB	0x3, 0               	JNB	PSW, 0
000c84   ccb9     JMP	#0xcb9               	JMP	_00097_DS_
000c85   9805     MOV	R0, #0x5             	MOV	R0,# 0x05
                                           	BANKSEL	STK00
000c86   51fe     MOV	0xfe, R0             	MOV	STK00, R0
                                           	BANKSEL	r0x102F
000c87   0ec1     MOVZ	R0, 0xc1            	MOVZ	R0, r0x102F
000c88   9f0f     MOV	R7, #0xf             	TRAPPC1	__hmulchar
000c89   5f73     MOV	0x73, R7             	TRAPPC2	__hmulchar
000c8a   e00f     MOVP	#0x0F               	PAGESEL	__hmulchar
000c8b   df1b     CALL	#0xf1b              	CALL	__hmulchar
000c8c   9f0c     MOV	R7, #0xc             	TRAPPC1	$+2
000c8d   5f73     MOV	0x73, R7             	TRAPPC2	$+1
000c8e   e00c     MOVP	#0x0C               	PAGESEL	$
000c8f   e100     MOVB	#0x00               	BANKSEL	r0x1030
000c90   51c0     MOV	0xc0, R0             	MOV	r0x1030, R0
                                           	BANKSEL	r0x1030
000c91   05c0     CPL	0xc0                 	CPL	r0x1030
                                           	BANKSEL	r0x1030
000c92   0ec0     MOVZ	R0, 0xc0            	MOVZ	R0, r0x1030
                                           	BANKSEL	STK01
000c93   51fd     MOV	0xfd, R0             	MOV	STK01, R0
000c94   981f     MOV	R0, #0x1f            	MOV	R0,# 0x1f
                                           	BANKSEL	STK00
000c95   51fe     MOV	0xfe, R0             	MOV	STK00, R0
000c96   9801     MOV	R0, #0x1             	MOV	R0,# 0x01
000c97   9f0d     MOV	R7, #0xd             	TRAPPC1	_SPI_Write_2Byte
000c98   5f73     MOV	0x73, R7             	TRAPPC2	_SPI_Write_2Byte
000c99   e00d     MOVP	#0x0D               	PAGESEL	_SPI_Write_2Byte
000c9a   ddcf     CALL	#0xdcf              	CALL	_SPI_Write_2Byte
000c9b   9f0c     MOV	R7, #0xc             	TRAPPC1	$+2
000c9c   5f73     MOV	0x73, R7             	TRAPPC2	$+1
000c9d   e00c     MOVP	#0x0C               	PAGESEL	$
000c9e   9800     MOV	R0, #0               	MOV	R0,# 0x00
000c9f   e100     MOVB	#0x00               	BANKSEL	STK01
000ca0   51fd     MOV	0xfd, R0             	MOV	STK01, R0
000ca1   9837     MOV	R0, #0x37            	MOV	R0,# 0x37
                                           	BANKSEL	STK00
000ca2   51fe     MOV	0xfe, R0             	MOV	STK00, R0
000ca3   9801     MOV	R0, #0x1             	MOV	R0,# 0x01
000ca4   9f0d     MOV	R7, #0xd             	TRAPPC1	_SPI_Write_2Byte
000ca5   5f73     MOV	0x73, R7             	TRAPPC2	_SPI_Write_2Byte
000ca6   e00d     MOVP	#0x0D               	PAGESEL	_SPI_Write_2Byte
000ca7   ddcf     CALL	#0xdcf              	CALL	_SPI_Write_2Byte
000ca8   9f0c     MOV	R7, #0xc             	TRAPPC1	$+2
000ca9   5f73     MOV	0x73, R7             	TRAPPC2	$+1
000caa   e00c     MOVP	#0x0C               	PAGESEL	$
000cab   9814     MOV	R0, #0x14            	MOV	R0,# 0x14
000cac   e100     MOVB	#0x00               	BANKSEL	STK00
000cad   51fe     MOV	0xfe, R0             	MOV	STK00, R0
000cae   9800     MOV	R0, #0               	MOV	R0,# 0x00
000caf   9f0e     MOV	R7, #0xe             	TRAPPC1	_delay_ms
000cb0   5f73     MOV	0x73, R7             	TRAPPC2	_delay_ms
000cb1   e00e     MOVP	#0x0E               	PAGESEL	_delay_ms
000cb2   de87     CALL	#0xe87              	CALL	_delay_ms
000cb3   9f0c     MOV	R7, #0xc             	TRAPPC1	$+2
000cb4   5f73     MOV	0x73, R7             	TRAPPC2	$+1
000cb5   e00c     MOVP	#0x0C               	PAGESEL	$
000cb6   e100     MOVB	#0x00               	BANKSEL	r0x102F
000cb7   0bc1     INC	0xc1                 	INC	r0x102F
000cb8   cc81     JMP	#0xc81               	JMP	_00093_DS_
                                           _00097_DS_
000cb9   0008     CRET                     	CRET	
                                           func._Tail12_Breath_Close	.code
                                           _Tail12_Breath_Close	;Function start
000cba   e100     MOVB	#0x00               	BANKSEL	r0x1031
000cbb   03c3     CLR	0xc3                 	CLR	r0x1031
                                           _00083_DS_
000cbc   9834     MOV	R0, #0x34            	MOV	R0,# 0x34
                                           	BANKSEL	r0x1031
000cbd   38c3     SUB	R0, 0xc3             	SUB	R0, r0x1031
000cbe   7003     JNB	0x3, 0               	JNB	PSW, 0
000cbf   ccf4     JMP	#0xcf4               	JMP	_00087_DS_
000cc0   9805     MOV	R0, #0x5             	MOV	R0,# 0x05
                                           	BANKSEL	STK00
000cc1   51fe     MOV	0xfe, R0             	MOV	STK00, R0
                                           	BANKSEL	r0x1031
000cc2   0ec3     MOVZ	R0, 0xc3            	MOVZ	R0, r0x1031
000cc3   9f0f     MOV	R7, #0xf             	TRAPPC1	__hmulchar
000cc4   5f73     MOV	0x73, R7             	TRAPPC2	__hmulchar
000cc5   e00f     MOVP	#0x0F               	PAGESEL	__hmulchar
000cc6   df1b     CALL	#0xf1b              	CALL	__hmulchar
000cc7   9f0c     MOV	R7, #0xc             	TRAPPC1	$+2
000cc8   5f73     MOV	0x73, R7             	TRAPPC2	$+1
000cc9   e00c     MOVP	#0x0C               	PAGESEL	$
000cca   e100     MOVB	#0x00               	BANKSEL	r0x1032
000ccb   51c2     MOV	0xc2, R0             	MOV	r0x1032, R0
                                           	BANKSEL	r0x1032
000ccc   05c2     CPL	0xc2                 	CPL	r0x1032
                                           	BANKSEL	r0x1032
000ccd   0ec2     MOVZ	R0, 0xc2            	MOVZ	R0, r0x1032
                                           	BANKSEL	STK01
000cce   51fd     MOV	0xfd, R0             	MOV	STK01, R0
000ccf   981f     MOV	R0, #0x1f            	MOV	R0,# 0x1f
                                           	BANKSEL	STK00
000cd0   51fe     MOV	0xfe, R0             	MOV	STK00, R0
000cd1   9801     MOV	R0, #0x1             	MOV	R0,# 0x01
000cd2   9f0d     MOV	R7, #0xd             	TRAPPC1	_SPI_Write_2Byte
000cd3   5f73     MOV	0x73, R7             	TRAPPC2	_SPI_Write_2Byte
000cd4   e00d     MOVP	#0x0D               	PAGESEL	_SPI_Write_2Byte
000cd5   ddcf     CALL	#0xdcf              	CALL	_SPI_Write_2Byte
000cd6   9f0c     MOV	R7, #0xc             	TRAPPC1	$+2
000cd7   5f73     MOV	0x73, R7             	TRAPPC2	$+1
000cd8   e00c     MOVP	#0x0C               	PAGESEL	$
000cd9   9800     MOV	R0, #0               	MOV	R0,# 0x00
000cda   e100     MOVB	#0x00               	BANKSEL	STK01
000cdb   51fd     MOV	0xfd, R0             	MOV	STK01, R0
000cdc   9837     MOV	R0, #0x37            	MOV	R0,# 0x37
                                           	BANKSEL	STK00
000cdd   51fe     MOV	0xfe, R0             	MOV	STK00, R0
000cde   9801     MOV	R0, #0x1             	MOV	R0,# 0x01
000cdf   9f0d     MOV	R7, #0xd             	TRAPPC1	_SPI_Write_2Byte
000ce0   5f73     MOV	0x73, R7             	TRAPPC2	_SPI_Write_2Byte
000ce1   e00d     MOVP	#0x0D               	PAGESEL	_SPI_Write_2Byte
000ce2   ddcf     CALL	#0xdcf              	CALL	_SPI_Write_2Byte
000ce3   9f0c     MOV	R7, #0xc             	TRAPPC1	$+2
000ce4   5f73     MOV	0x73, R7             	TRAPPC2	$+1
000ce5   e00c     MOVP	#0x0C               	PAGESEL	$
000ce6   9814     MOV	R0, #0x14            	MOV	R0,# 0x14
000ce7   e100     MOVB	#0x00               	BANKSEL	STK00
000ce8   51fe     MOV	0xfe, R0             	MOV	STK00, R0
000ce9   9800     MOV	R0, #0               	MOV	R0,# 0x00
000cea   9f0e     MOV	R7, #0xe             	TRAPPC1	_delay_ms
000ceb   5f73     MOV	0x73, R7             	TRAPPC2	_delay_ms
000cec   e00e     MOVP	#0x0E               	PAGESEL	_delay_ms
000ced   de87     CALL	#0xe87              	CALL	_delay_ms
000cee   9f0c     MOV	R7, #0xc             	TRAPPC1	$+2
000cef   5f73     MOV	0x73, R7             	TRAPPC2	$+1
000cf0   e00c     MOVP	#0x0C               	PAGESEL	$
000cf1   e100     MOVB	#0x00               	BANKSEL	r0x1031
000cf2   0bc3     INC	0xc3                 	INC	r0x1031
000cf3   ccbc     JMP	#0xcbc               	JMP	_00083_DS_
                                           _00087_DS_
000cf4   0008     CRET                     	CRET	
                                           func._Tail12_Breath_Open	.code
                                           _Tail12_Breath_Open	;Function start
000cf5   e100     MOVB	#0x00               	BANKSEL	r0x1033
000cf6   03c5     CLR	0xc5                 	CLR	r0x1033
                                           _00073_DS_
000cf7   9834     MOV	R0, #0x34            	MOV	R0,# 0x34
                                           	BANKSEL	r0x1033
000cf8   38c5     SUB	R0, 0xc5             	SUB	R0, r0x1033
000cf9   7003     JNB	0x3, 0               	JNB	PSW, 0
000cfa   cd2e     JMP	#0xd2e               	JMP	_00077_DS_
000cfb   9805     MOV	R0, #0x5             	MOV	R0,# 0x05
                                           	BANKSEL	STK00
000cfc   51fe     MOV	0xfe, R0             	MOV	STK00, R0
                                           	BANKSEL	r0x1033
000cfd   0ec5     MOVZ	R0, 0xc5            	MOVZ	R0, r0x1033
000cfe   9f0f     MOV	R7, #0xf             	TRAPPC1	__hmulchar
000cff   5f73     MOV	0x73, R7             	TRAPPC2	__hmulchar
000d00   e00f     MOVP	#0x0F               	PAGESEL	__hmulchar
000d01   df1b     CALL	#0xf1b              	CALL	__hmulchar
000d02   9f0d     MOV	R7, #0xd             	TRAPPC1	$+2
000d03   5f73     MOV	0x73, R7             	TRAPPC2	$+1
000d04   e00d     MOVP	#0x0D               	PAGESEL	$
000d05   e100     MOVB	#0x00               	BANKSEL	r0x1034
000d06   51c4     MOV	0xc4, R0             	MOV	r0x1034, R0
                                           	BANKSEL	r0x1034
000d07   0ec4     MOVZ	R0, 0xc4            	MOVZ	R0, r0x1034
                                           	BANKSEL	STK01
000d08   51fd     MOV	0xfd, R0             	MOV	STK01, R0
000d09   981f     MOV	R0, #0x1f            	MOV	R0,# 0x1f
                                           	BANKSEL	STK00
000d0a   51fe     MOV	0xfe, R0             	MOV	STK00, R0
000d0b   9801     MOV	R0, #0x1             	MOV	R0,# 0x01
000d0c   9f0d     MOV	R7, #0xd             	TRAPPC1	_SPI_Write_2Byte
000d0d   5f73     MOV	0x73, R7             	TRAPPC2	_SPI_Write_2Byte
000d0e   e00d     MOVP	#0x0D               	PAGESEL	_SPI_Write_2Byte
000d0f   ddcf     CALL	#0xdcf              	CALL	_SPI_Write_2Byte
000d10   9f0d     MOV	R7, #0xd             	TRAPPC1	$+2
000d11   5f73     MOV	0x73, R7             	TRAPPC2	$+1
000d12   e00d     MOVP	#0x0D               	PAGESEL	$
000d13   9800     MOV	R0, #0               	MOV	R0,# 0x00
000d14   e100     MOVB	#0x00               	BANKSEL	STK01
000d15   51fd     MOV	0xfd, R0             	MOV	STK01, R0
000d16   9837     MOV	R0, #0x37            	MOV	R0,# 0x37
                                           	BANKSEL	STK00
000d17   51fe     MOV	0xfe, R0             	MOV	STK00, R0
000d18   9801     MOV	R0, #0x1             	MOV	R0,# 0x01
000d19   9f0d     MOV	R7, #0xd             	TRAPPC1	_SPI_Write_2Byte
000d1a   5f73     MOV	0x73, R7             	TRAPPC2	_SPI_Write_2Byte
000d1b   e00d     MOVP	#0x0D               	PAGESEL	_SPI_Write_2Byte
000d1c   ddcf     CALL	#0xdcf              	CALL	_SPI_Write_2Byte
000d1d   9f0d     MOV	R7, #0xd             	TRAPPC1	$+2
000d1e   5f73     MOV	0x73, R7             	TRAPPC2	$+1
000d1f   e00d     MOVP	#0x0D               	PAGESEL	$
000d20   9814     MOV	R0, #0x14            	MOV	R0,# 0x14
000d21   e100     MOVB	#0x00               	BANKSEL	STK00
000d22   51fe     MOV	0xfe, R0             	MOV	STK00, R0
000d23   9800     MOV	R0, #0               	MOV	R0,# 0x00
000d24   9f0e     MOV	R7, #0xe             	TRAPPC1	_delay_ms
000d25   5f73     MOV	0x73, R7             	TRAPPC2	_delay_ms
000d26   e00e     MOVP	#0x0E               	PAGESEL	_delay_ms
000d27   de87     CALL	#0xe87              	CALL	_delay_ms
000d28   9f0d     MOV	R7, #0xd             	TRAPPC1	$+2
000d29   5f73     MOV	0x73, R7             	TRAPPC2	$+1
000d2a   e00d     MOVP	#0x0D               	PAGESEL	$
000d2b   e100     MOVB	#0x00               	BANKSEL	r0x1033
000d2c   0bc5     INC	0xc5                 	INC	r0x1033
000d2d   ccf7     JMP	#0xcf7               	JMP	_00073_DS_
                                           _00077_DS_
000d2e   0008     CRET                     	CRET	
                                           func._Led_Tail_AllClose	.code
                                           _Led_Tail_AllClose	;Function start
000b30   9830     MOV	R0, #0x30            	MOV	R0,# 0x30
000b31   e100     MOVB	#0x00               	BANKSEL	r0x1035
000b32   51c6     MOV	0xc6, R0             	MOV	r0x1035, R0
                                           _00055_DS_
000b33   981f     MOV	R0, #0x1f            	MOV	R0,# 0x1f
                                           	BANKSEL	r0x1035
000b34   38c6     SUB	R0, 0xc6             	SUB	R0, r0x1035
000b35   7803     JB	0x3, 0                	JB	PSW, 0
000b36   cb53     JMP	#0xb53               	JMP	_00058_DS_
000b37   9800     MOV	R0, #0               	MOV	R0,# 0x00
                                           	BANKSEL	STK01
000b38   51fd     MOV	0xfd, R0             	MOV	STK01, R0
                                           	BANKSEL	r0x1035
000b39   0ec6     MOVZ	R0, 0xc6            	MOVZ	R0, r0x1035
                                           	BANKSEL	STK00
000b3a   51fe     MOV	0xfe, R0             	MOV	STK00, R0
000b3b   9801     MOV	R0, #0x1             	MOV	R0,# 0x01
000b3c   9f0d     MOV	R7, #0xd             	TRAPPC1	_SPI_Write_2Byte
000b3d   5f73     MOV	0x73, R7             	TRAPPC2	_SPI_Write_2Byte
000b3e   e00d     MOVP	#0x0D               	PAGESEL	_SPI_Write_2Byte
000b3f   ddcf     CALL	#0xdcf              	CALL	_SPI_Write_2Byte
000b40   9f0b     MOV	R7, #0xb             	TRAPPC1	$+2
000b41   5f73     MOV	0x73, R7             	TRAPPC2	$+1
000b42   e00b     MOVP	#0x0B               	PAGESEL	$
000b43   9800     MOV	R0, #0               	MOV	R0,# 0x00
000b44   e100     MOVB	#0x00               	BANKSEL	STK01
000b45   51fd     MOV	0xfd, R0             	MOV	STK01, R0
000b46   9837     MOV	R0, #0x37            	MOV	R0,# 0x37
                                           	BANKSEL	STK00
000b47   51fe     MOV	0xfe, R0             	MOV	STK00, R0
000b48   9801     MOV	R0, #0x1             	MOV	R0,# 0x01
000b49   9f0d     MOV	R7, #0xd             	TRAPPC1	_SPI_Write_2Byte
000b4a   5f73     MOV	0x73, R7             	TRAPPC2	_SPI_Write_2Byte
000b4b   e00d     MOVP	#0x0D               	PAGESEL	_SPI_Write_2Byte
000b4c   ddcf     CALL	#0xdcf              	CALL	_SPI_Write_2Byte
000b4d   9f0b     MOV	R7, #0xb             	TRAPPC1	$+2
000b4e   5f73     MOV	0x73, R7             	TRAPPC2	$+1
000b4f   e00b     MOVP	#0x0B               	PAGESEL	$
000b50   e100     MOVB	#0x00               	BANKSEL	r0x1035
000b51   07c6     DEC	0xc6                 	DEC	r0x1035
000b52   cb33     JMP	#0xb33               	JMP	_00055_DS_
                                           _00058_DS_
000b53   9830     MOV	R0, #0x30            	MOV	R0,# 0x30
                                           	BANKSEL	r0x1035
000b54   51c6     MOV	0xc6, R0             	MOV	r0x1035, R0
                                           _00059_DS_
000b55   981f     MOV	R0, #0x1f            	MOV	R0,# 0x1f
                                           	BANKSEL	r0x1035
000b56   38c6     SUB	R0, 0xc6             	SUB	R0, r0x1035
000b57   7803     JB	0x3, 0                	JB	PSW, 0
000b58   cb75     JMP	#0xb75               	JMP	_00063_DS_
000b59   9800     MOV	R0, #0               	MOV	R0,# 0x00
                                           	BANKSEL	STK01
000b5a   51fd     MOV	0xfd, R0             	MOV	STK01, R0
                                           	BANKSEL	r0x1035
000b5b   0ec6     MOVZ	R0, 0xc6            	MOVZ	R0, r0x1035
                                           	BANKSEL	STK00
000b5c   51fe     MOV	0xfe, R0             	MOV	STK00, R0
000b5d   9802     MOV	R0, #0x2             	MOV	R0,# 0x02
000b5e   9f0d     MOV	R7, #0xd             	TRAPPC1	_SPI_Write_2Byte
000b5f   5f73     MOV	0x73, R7             	TRAPPC2	_SPI_Write_2Byte
000b60   e00d     MOVP	#0x0D               	PAGESEL	_SPI_Write_2Byte
000b61   ddcf     CALL	#0xdcf              	CALL	_SPI_Write_2Byte
000b62   9f0b     MOV	R7, #0xb             	TRAPPC1	$+2
000b63   5f73     MOV	0x73, R7             	TRAPPC2	$+1
000b64   e00b     MOVP	#0x0B               	PAGESEL	$
000b65   9800     MOV	R0, #0               	MOV	R0,# 0x00
000b66   e100     MOVB	#0x00               	BANKSEL	STK01
000b67   51fd     MOV	0xfd, R0             	MOV	STK01, R0
000b68   9837     MOV	R0, #0x37            	MOV	R0,# 0x37
                                           	BANKSEL	STK00
000b69   51fe     MOV	0xfe, R0             	MOV	STK00, R0
000b6a   9802     MOV	R0, #0x2             	MOV	R0,# 0x02
000b6b   9f0d     MOV	R7, #0xd             	TRAPPC1	_SPI_Write_2Byte
000b6c   5f73     MOV	0x73, R7             	TRAPPC2	_SPI_Write_2Byte
000b6d   e00d     MOVP	#0x0D               	PAGESEL	_SPI_Write_2Byte
000b6e   ddcf     CALL	#0xdcf              	CALL	_SPI_Write_2Byte
000b6f   9f0b     MOV	R7, #0xb             	TRAPPC1	$+2
000b70   5f73     MOV	0x73, R7             	TRAPPC2	$+1
000b71   e00b     MOVP	#0x0B               	PAGESEL	$
000b72   e100     MOVB	#0x00               	BANKSEL	r0x1035
000b73   07c6     DEC	0xc6                 	DEC	r0x1035
000b74   cb55     JMP	#0xb55               	JMP	_00059_DS_
                                           _00063_DS_
000b75   0008     CRET                     	CRET	
                                           func._Led_Tail_55Open	.code
                                           _Led_Tail_55Open	;Function start
000b76   9830     MOV	R0, #0x30            	MOV	R0,# 0x30
000b77   e100     MOVB	#0x00               	BANKSEL	r0x1036
000b78   51c7     MOV	0xc7, R0             	MOV	r0x1036, R0
                                           _00037_DS_
000b79   981f     MOV	R0, #0x1f            	MOV	R0,# 0x1f
                                           	BANKSEL	r0x1036
000b7a   38c7     SUB	R0, 0xc7             	SUB	R0, r0x1036
000b7b   7803     JB	0x3, 0                	JB	PSW, 0
000b7c   cb99     JMP	#0xb99               	JMP	_00040_DS_
000b7d   988c     MOV	R0, #0x8c            	MOV	R0,# 0x8c
                                           	BANKSEL	STK01
000b7e   51fd     MOV	0xfd, R0             	MOV	STK01, R0
                                           	BANKSEL	r0x1036
000b7f   0ec7     MOVZ	R0, 0xc7            	MOVZ	R0, r0x1036
                                           	BANKSEL	STK00
000b80   51fe     MOV	0xfe, R0             	MOV	STK00, R0
000b81   9801     MOV	R0, #0x1             	MOV	R0,# 0x01
000b82   9f0d     MOV	R7, #0xd             	TRAPPC1	_SPI_Write_2Byte
000b83   5f73     MOV	0x73, R7             	TRAPPC2	_SPI_Write_2Byte
000b84   e00d     MOVP	#0x0D               	PAGESEL	_SPI_Write_2Byte
000b85   ddcf     CALL	#0xdcf              	CALL	_SPI_Write_2Byte
000b86   9f0b     MOV	R7, #0xb             	TRAPPC1	$+2
000b87   5f73     MOV	0x73, R7             	TRAPPC2	$+1
000b88   e00b     MOVP	#0x0B               	PAGESEL	$
000b89   9800     MOV	R0, #0               	MOV	R0,# 0x00
000b8a   e100     MOVB	#0x00               	BANKSEL	STK01
000b8b   51fd     MOV	0xfd, R0             	MOV	STK01, R0
000b8c   9837     MOV	R0, #0x37            	MOV	R0,# 0x37
                                           	BANKSEL	STK00
000b8d   51fe     MOV	0xfe, R0             	MOV	STK00, R0
000b8e   9801     MOV	R0, #0x1             	MOV	R0,# 0x01
000b8f   9f0d     MOV	R7, #0xd             	TRAPPC1	_SPI_Write_2Byte
000b90   5f73     MOV	0x73, R7             	TRAPPC2	_SPI_Write_2Byte
000b91   e00d     MOVP	#0x0D               	PAGESEL	_SPI_Write_2Byte
000b92   ddcf     CALL	#0xdcf              	CALL	_SPI_Write_2Byte
000b93   9f0b     MOV	R7, #0xb             	TRAPPC1	$+2
000b94   5f73     MOV	0x73, R7             	TRAPPC2	$+1
000b95   e00b     MOVP	#0x0B               	PAGESEL	$
000b96   e100     MOVB	#0x00               	BANKSEL	r0x1036
000b97   07c7     DEC	0xc7                 	DEC	r0x1036
000b98   cb79     JMP	#0xb79               	JMP	_00037_DS_
                                           _00040_DS_
000b99   9830     MOV	R0, #0x30            	MOV	R0,# 0x30
                                           	BANKSEL	r0x1036
000b9a   51c7     MOV	0xc7, R0             	MOV	r0x1036, R0
                                           _00041_DS_
000b9b   981f     MOV	R0, #0x1f            	MOV	R0,# 0x1f
                                           	BANKSEL	r0x1036
000b9c   38c7     SUB	R0, 0xc7             	SUB	R0, r0x1036
000b9d   7803     JB	0x3, 0                	JB	PSW, 0
000b9e   cbbb     JMP	#0xbbb               	JMP	_00045_DS_
000b9f   988c     MOV	R0, #0x8c            	MOV	R0,# 0x8c
                                           	BANKSEL	STK01
000ba0   51fd     MOV	0xfd, R0             	MOV	STK01, R0
                                           	BANKSEL	r0x1036
000ba1   0ec7     MOVZ	R0, 0xc7            	MOVZ	R0, r0x1036
                                           	BANKSEL	STK00
000ba2   51fe     MOV	0xfe, R0             	MOV	STK00, R0
000ba3   9802     MOV	R0, #0x2             	MOV	R0,# 0x02
000ba4   9f0d     MOV	R7, #0xd             	TRAPPC1	_SPI_Write_2Byte
000ba5   5f73     MOV	0x73, R7             	TRAPPC2	_SPI_Write_2Byte
000ba6   e00d     MOVP	#0x0D               	PAGESEL	_SPI_Write_2Byte
000ba7   ddcf     CALL	#0xdcf              	CALL	_SPI_Write_2Byte
000ba8   9f0b     MOV	R7, #0xb             	TRAPPC1	$+2
000ba9   5f73     MOV	0x73, R7             	TRAPPC2	$+1
000baa   e00b     MOVP	#0x0B               	PAGESEL	$
000bab   9800     MOV	R0, #0               	MOV	R0,# 0x00
000bac   e100     MOVB	#0x00               	BANKSEL	STK01
000bad   51fd     MOV	0xfd, R0             	MOV	STK01, R0
000bae   9837     MOV	R0, #0x37            	MOV	R0,# 0x37
                                           	BANKSEL	STK00
000baf   51fe     MOV	0xfe, R0             	MOV	STK00, R0
000bb0   9802     MOV	R0, #0x2             	MOV	R0,# 0x02
000bb1   9f0d     MOV	R7, #0xd             	TRAPPC1	_SPI_Write_2Byte
000bb2   5f73     MOV	0x73, R7             	TRAPPC2	_SPI_Write_2Byte
000bb3   e00d     MOVP	#0x0D               	PAGESEL	_SPI_Write_2Byte
000bb4   ddcf     CALL	#0xdcf              	CALL	_SPI_Write_2Byte
000bb5   9f0b     MOV	R7, #0xb             	TRAPPC1	$+2
000bb6   5f73     MOV	0x73, R7             	TRAPPC2	$+1
000bb7   e00b     MOVP	#0x0B               	PAGESEL	$
000bb8   e100     MOVB	#0x00               	BANKSEL	r0x1036
000bb9   07c7     DEC	0xc7                 	DEC	r0x1036
000bba   cb9b     JMP	#0xb9b               	JMP	_00041_DS_
                                           _00045_DS_
000bbb   0008     CRET                     	CRET	
                                           func._Led_Tail_AllOpen	.code
                                           _Led_Tail_AllOpen	;Function start
000bbc   9830     MOV	R0, #0x30            	MOV	R0,# 0x30
000bbd   e100     MOVB	#0x00               	BANKSEL	r0x1037
000bbe   51c8     MOV	0xc8, R0             	MOV	r0x1037, R0
                                           _00019_DS_
000bbf   981f     MOV	R0, #0x1f            	MOV	R0,# 0x1f
                                           	BANKSEL	r0x1037
000bc0   38c8     SUB	R0, 0xc8             	SUB	R0, r0x1037
000bc1   7803     JB	0x3, 0                	JB	PSW, 0
000bc2   cbdf     JMP	#0xbdf               	JMP	_00022_DS_
000bc3   98ff     MOV	R0, #0xff            	MOV	R0,# 0xff
                                           	BANKSEL	STK01
000bc4   51fd     MOV	0xfd, R0             	MOV	STK01, R0
                                           	BANKSEL	r0x1037
000bc5   0ec8     MOVZ	R0, 0xc8            	MOVZ	R0, r0x1037
                                           	BANKSEL	STK00
000bc6   51fe     MOV	0xfe, R0             	MOV	STK00, R0
000bc7   9801     MOV	R0, #0x1             	MOV	R0,# 0x01
000bc8   9f0d     MOV	R7, #0xd             	TRAPPC1	_SPI_Write_2Byte
000bc9   5f73     MOV	0x73, R7             	TRAPPC2	_SPI_Write_2Byte
000bca   e00d     MOVP	#0x0D               	PAGESEL	_SPI_Write_2Byte
000bcb   ddcf     CALL	#0xdcf              	CALL	_SPI_Write_2Byte
000bcc   9f0b     MOV	R7, #0xb             	TRAPPC1	$+2
000bcd   5f73     MOV	0x73, R7             	TRAPPC2	$+1
000bce   e00b     MOVP	#0x0B               	PAGESEL	$
000bcf   9800     MOV	R0, #0               	MOV	R0,# 0x00
000bd0   e100     MOVB	#0x00               	BANKSEL	STK01
000bd1   51fd     MOV	0xfd, R0             	MOV	STK01, R0
000bd2   9837     MOV	R0, #0x37            	MOV	R0,# 0x37
                                           	BANKSEL	STK00
000bd3   51fe     MOV	0xfe, R0             	MOV	STK00, R0
000bd4   9801     MOV	R0, #0x1             	MOV	R0,# 0x01
000bd5   9f0d     MOV	R7, #0xd             	TRAPPC1	_SPI_Write_2Byte
000bd6   5f73     MOV	0x73, R7             	TRAPPC2	_SPI_Write_2Byte
000bd7   e00d     MOVP	#0x0D               	PAGESEL	_SPI_Write_2Byte
000bd8   ddcf     CALL	#0xdcf              	CALL	_SPI_Write_2Byte
000bd9   9f0b     MOV	R7, #0xb             	TRAPPC1	$+2
000bda   5f73     MOV	0x73, R7             	TRAPPC2	$+1
000bdb   e00b     MOVP	#0x0B               	PAGESEL	$
000bdc   e100     MOVB	#0x00               	BANKSEL	r0x1037
000bdd   07c8     DEC	0xc8                 	DEC	r0x1037
000bde   cbbf     JMP	#0xbbf               	JMP	_00019_DS_
                                           _00022_DS_
000bdf   9830     MOV	R0, #0x30            	MOV	R0,# 0x30
                                           	BANKSEL	r0x1037
000be0   51c8     MOV	0xc8, R0             	MOV	r0x1037, R0
                                           _00023_DS_
000be1   981f     MOV	R0, #0x1f            	MOV	R0,# 0x1f
                                           	BANKSEL	r0x1037
000be2   38c8     SUB	R0, 0xc8             	SUB	R0, r0x1037
000be3   7803     JB	0x3, 0                	JB	PSW, 0
000be4   cc01     JMP	#0xc01               	JMP	_00027_DS_
000be5   98ff     MOV	R0, #0xff            	MOV	R0,# 0xff
                                           	BANKSEL	STK01
000be6   51fd     MOV	0xfd, R0             	MOV	STK01, R0
                                           	BANKSEL	r0x1037
000be7   0ec8     MOVZ	R0, 0xc8            	MOVZ	R0, r0x1037
                                           	BANKSEL	STK00
000be8   51fe     MOV	0xfe, R0             	MOV	STK00, R0
000be9   9802     MOV	R0, #0x2             	MOV	R0,# 0x02
000bea   9f0d     MOV	R7, #0xd             	TRAPPC1	_SPI_Write_2Byte
000beb   5f73     MOV	0x73, R7             	TRAPPC2	_SPI_Write_2Byte
000bec   e00d     MOVP	#0x0D               	PAGESEL	_SPI_Write_2Byte
000bed   ddcf     CALL	#0xdcf              	CALL	_SPI_Write_2Byte
000bee   9f0b     MOV	R7, #0xb             	TRAPPC1	$+2
000bef   5f73     MOV	0x73, R7             	TRAPPC2	$+1
000bf0   e00b     MOVP	#0x0B               	PAGESEL	$
000bf1   9800     MOV	R0, #0               	MOV	R0,# 0x00
000bf2   e100     MOVB	#0x00               	BANKSEL	STK01
000bf3   51fd     MOV	0xfd, R0             	MOV	STK01, R0
000bf4   9837     MOV	R0, #0x37            	MOV	R0,# 0x37
                                           	BANKSEL	STK00
000bf5   51fe     MOV	0xfe, R0             	MOV	STK00, R0
000bf6   9802     MOV	R0, #0x2             	MOV	R0,# 0x02
000bf7   9f0d     MOV	R7, #0xd             	TRAPPC1	_SPI_Write_2Byte
000bf8   5f73     MOV	0x73, R7             	TRAPPC2	_SPI_Write_2Byte
000bf9   e00d     MOVP	#0x0D               	PAGESEL	_SPI_Write_2Byte
000bfa   ddcf     CALL	#0xdcf              	CALL	_SPI_Write_2Byte
000bfb   9f0b     MOV	R7, #0xb             	TRAPPC1	$+2
000bfc   5f73     MOV	0x73, R7             	TRAPPC2	$+1
000bfd   e00b     MOVP	#0x0B               	PAGESEL	$
000bfe   e100     MOVB	#0x00               	BANKSEL	r0x1037
000bff   07c8     DEC	0xc8                 	DEC	r0x1037
000c00   cbe1     JMP	#0xbe1               	JMP	_00023_DS_
                                           _00027_DS_
000c01   0008     CRET                     	CRET	
                                           func._Led_RT_AllClose	.code
                                           _Led_RT_AllClose	;Function start
000f65   e101     MOVB	#0x01               	BANKSEL	_P5_bits
000f66   6305     CLR	0x5, 3               	CLR	_P5_bits, 3
000f67   e100     MOVB	#0x00               	BANKSEL	_RT_High_Addr
000f68   03e1     CLR	0xe1                 	CLR	_RT_High_Addr
                                           	BANKSEL	_RT_High_Addr
000f69   03e2     CLR	0xe2                 	CLR	(_RT_High_Addr + 1)
000f6a   9807     MOV	R0, #0x7             	MOV	R0,# 0x07
                                           	BANKSEL	_RT_Low_Addr
000f6b   51df     MOV	0xdf, R0             	MOV	_RT_Low_Addr, R0
                                           	BANKSEL	_RT_Low_Addr
000f6c   03e0     CLR	0xe0                 	CLR	(_RT_Low_Addr + 1)
000f6d   0008     CRET                     	CRET	
                                           func._Led_RT_Water100	.code
                                           _Led_RT_Water100	;Function start
000edb   e101     MOVB	#0x01               	BANKSEL	_P5_bits
000edc   6b05     SET	0x5, 3               	SET	_P5_bits, 3
000edd   e100     MOVB	#0x00               	BANKSEL	_RT_High_Addr
000ede   03e1     CLR	0xe1                 	CLR	_RT_High_Addr
                                           	BANKSEL	_RT_High_Addr
000edf   03e2     CLR	0xe2                 	CLR	(_RT_High_Addr + 1)
000ee0   9807     MOV	R0, #0x7             	MOV	R0,# 0x07
                                           	BANKSEL	_RT_Low_Addr
000ee1   51df     MOV	0xdf, R0             	MOV	_RT_Low_Addr, R0
                                           	BANKSEL	_RT_Low_Addr
000ee2   03e0     CLR	0xe0                 	CLR	(_RT_Low_Addr + 1)
                                           	BANKSEL	_RT_CNT
000ee3   03e7     CLR	0xe7                 	CLR	_RT_CNT
                                           	BANKSEL	_RT_CNT
000ee4   03e8     CLR	0xe8                 	CLR	(_RT_CNT + 1)
                                           	BANKSEL	_RT_CNT
000ee5   03e9     CLR	0xe9                 	CLR	(_RT_CNT + 2)
                                           	BANKSEL	_RT_CNT
000ee6   03ea     CLR	0xea                 	CLR	(_RT_CNT + 3)
000ee7   9801     MOV	R0, #0x1             	MOV	R0,# 0x01
                                           	BANKSEL	_RT_Water_Flag
000ee8   51dd     MOV	0xdd, R0             	MOV	_RT_Water_Flag, R0
                                           	BANKSEL	_RT_Water_Flag
000ee9   03de     CLR	0xde                 	CLR	(_RT_Water_Flag + 1)
000eea   0008     CRET                     	CRET	
                                           func._Led_RT_Water55	.code
                                           _Led_RT_Water55	;Function start
000eeb   e101     MOVB	#0x01               	BANKSEL	_P5_bits
000eec   6b05     SET	0x5, 3               	SET	_P5_bits, 3
000eed   e100     MOVB	#0x00               	BANKSEL	_RT_High_Addr
000eee   03e1     CLR	0xe1                 	CLR	_RT_High_Addr
                                           	BANKSEL	_RT_High_Addr
000eef   03e2     CLR	0xe2                 	CLR	(_RT_High_Addr + 1)
000ef0   9807     MOV	R0, #0x7             	MOV	R0,# 0x07
                                           	BANKSEL	_RT_Low_Addr
000ef1   51df     MOV	0xdf, R0             	MOV	_RT_Low_Addr, R0
                                           	BANKSEL	_RT_Low_Addr
000ef2   03e0     CLR	0xe0                 	CLR	(_RT_Low_Addr + 1)
                                           	BANKSEL	_RT_CNT
000ef3   03e7     CLR	0xe7                 	CLR	_RT_CNT
                                           	BANKSEL	_RT_CNT
000ef4   03e8     CLR	0xe8                 	CLR	(_RT_CNT + 1)
                                           	BANKSEL	_RT_CNT
000ef5   03e9     CLR	0xe9                 	CLR	(_RT_CNT + 2)
                                           	BANKSEL	_RT_CNT
000ef6   03ea     CLR	0xea                 	CLR	(_RT_CNT + 3)
000ef7   9801     MOV	R0, #0x1             	MOV	R0,# 0x01
                                           	BANKSEL	_RT_Water_Flag
000ef8   51dd     MOV	0xdd, R0             	MOV	_RT_Water_Flag, R0
                                           	BANKSEL	_RT_Water_Flag
000ef9   03de     CLR	0xde                 	CLR	(_RT_Water_Flag + 1)
000efa   0008     CRET                     	CRET	
                                           func._Led_RT_PWMOpen	.code
                                           _Led_RT_PWMOpen	;Function start
000f51   e101     MOVB	#0x01               	BANKSEL	_P5_bits
000f52   6b05     SET	0x5, 3               	SET	_P5_bits, 3
000f53   9807     MOV	R0, #0x7             	MOV	R0,# 0x07
000f54   e100     MOVB	#0x00               	BANKSEL	_RT_High_Addr
000f55   51e1     MOV	0xe1, R0             	MOV	_RT_High_Addr, R0
                                           	BANKSEL	_RT_High_Addr
000f56   03e2     CLR	0xe2                 	CLR	(_RT_High_Addr + 1)
000f57   9807     MOV	R0, #0x7             	MOV	R0,# 0x07
                                           	BANKSEL	_RT_Low_Addr
000f58   51df     MOV	0xdf, R0             	MOV	_RT_Low_Addr, R0
                                           	BANKSEL	_RT_Low_Addr
000f59   03e0     CLR	0xe0                 	CLR	(_RT_Low_Addr + 1)
000f5a   0008     CRET                     	CRET	
                                           func._Led_RT_AllOpen	.code
                                           _Led_RT_AllOpen	;Function start
000f6e   e101     MOVB	#0x01               	BANKSEL	_P5_bits
000f6f   6b05     SET	0x5, 3               	SET	_P5_bits, 3
000f70   9807     MOV	R0, #0x7             	MOV	R0,# 0x07
000f71   e100     MOVB	#0x00               	BANKSEL	_RT_High_Addr
000f72   51e1     MOV	0xe1, R0             	MOV	_RT_High_Addr, R0
                                           	BANKSEL	_RT_High_Addr
000f73   03e2     CLR	0xe2                 	CLR	(_RT_High_Addr + 1)
                                           	BANKSEL	_RT_Low_Addr
000f74   03df     CLR	0xdf                 	CLR	_RT_Low_Addr
                                           	BANKSEL	_RT_Low_Addr
000f75   03e0     CLR	0xe0                 	CLR	(_RT_Low_Addr + 1)
000f76   0008     CRET                     	CRET	
                                           func._LED_Stop_AllClose	.code
                                           _LED_Stop_AllClose	;Function start
000f90   98ff     MOV	R0, #0xff            	MOV	R0,# 0xff
000f91   e100     MOVB	#0x00               	BANKSEL	_Stop_High_Addr
000f92   51e3     MOV	0xe3, R0             	MOV	_Stop_High_Addr, R0
                                           	BANKSEL	_Stop_High_Addr
000f93   51e4     MOV	0xe4, R0             	MOV	(_Stop_High_Addr + 1), R0
                                           	BANKSEL	_Stop_Low_Addr
000f94   03cb     CLR	0xcb                 	CLR	_Stop_Low_Addr
                                           	BANKSEL	_Stop_Low_Addr
000f95   03cc     CLR	0xcc                 	CLR	(_Stop_Low_Addr + 1)
000f96   0008     CRET                     	CRET	
                                           func._LED_Stop_PWM10Open	.code
                                           _LED_Stop_PWM10Open	;Function start
000f5b   e100     MOVB	#0x00               	BANKSEL	_RT_Timer_PWM_Flag
000f5c   0385     CLR	0x85                 	CLR	_RT_Timer_PWM_Flag
                                           	BANKSEL	_RT_Timer_PWM_Flag
000f5d   0386     CLR	0x86                 	CLR	(_RT_Timer_PWM_Flag + 1)
000f5e   98ff     MOV	R0, #0xff            	MOV	R0,# 0xff
                                           	BANKSEL	_Stop_High_Addr
000f5f   51e3     MOV	0xe3, R0             	MOV	_Stop_High_Addr, R0
                                           	BANKSEL	_Stop_High_Addr
000f60   51e4     MOV	0xe4, R0             	MOV	(_Stop_High_Addr + 1), R0
000f61   98ff     MOV	R0, #0xff            	MOV	R0,# 0xff
                                           	BANKSEL	_Stop_Low_Addr
000f62   51cb     MOV	0xcb, R0             	MOV	_Stop_Low_Addr, R0
                                           	BANKSEL	_Stop_Low_Addr
000f63   51cc     MOV	0xcc, R0             	MOV	(_Stop_Low_Addr + 1), R0
000f64   0008     CRET                     	CRET	
                                           func._LED_Stop_PWM5Open	.code
                                           _LED_Stop_PWM5Open	;Function start
000f46   9801     MOV	R0, #0x1             	MOV	R0,# 0x01
000f47   e100     MOVB	#0x00               	BANKSEL	_RT_Timer_PWM_Flag
000f48   5185     MOV	0x85, R0             	MOV	_RT_Timer_PWM_Flag, R0
                                           	BANKSEL	_RT_Timer_PWM_Flag
000f49   0386     CLR	0x86                 	CLR	(_RT_Timer_PWM_Flag + 1)
000f4a   98ff     MOV	R0, #0xff            	MOV	R0,# 0xff
                                           	BANKSEL	_Stop_High_Addr
000f4b   51e3     MOV	0xe3, R0             	MOV	_Stop_High_Addr, R0
                                           	BANKSEL	_Stop_High_Addr
000f4c   51e4     MOV	0xe4, R0             	MOV	(_Stop_High_Addr + 1), R0
000f4d   98ff     MOV	R0, #0xff            	MOV	R0,# 0xff
                                           	BANKSEL	_Stop_Low_Addr
000f4e   51cb     MOV	0xcb, R0             	MOV	_Stop_Low_Addr, R0
                                           	BANKSEL	_Stop_Low_Addr
000f4f   51cc     MOV	0xcc, R0             	MOV	(_Stop_Low_Addr + 1), R0
000f50   0008     CRET                     	CRET	
                                           func._LED_Stop_AllOpen	.code
                                           _LED_Stop_AllOpen	;Function start
000f97   e100     MOVB	#0x00               	BANKSEL	_Stop_High_Addr
000f98   03e3     CLR	0xe3                 	CLR	_Stop_High_Addr
                                           	BANKSEL	_Stop_High_Addr
000f99   03e4     CLR	0xe4                 	CLR	(_Stop_High_Addr + 1)
000f9a   98ff     MOV	R0, #0xff            	MOV	R0,# 0xff
                                           	BANKSEL	_Stop_Low_Addr
000f9b   51cb     MOV	0xcb, R0             	MOV	_Stop_Low_Addr, R0
                                           	BANKSEL	_Stop_Low_Addr
000f9c   51cc     MOV	0xcc, R0             	MOV	(_Stop_Low_Addr + 1), R0
000f9d   0008     CRET                     	CRET	
                                           	.end
                                           	.radix dec
                                           	.include "KF8A100GQS.inc"
                                           func._PWM_Init	.code
                                           _PWM_Init	;Function start
                                           	TRAPPC1	_PWM67_Init
                                           	TRAPPC2	_PWM67_Init
                                           	PAGESEL	_PWM67_Init
                                           	CALL	_PWM67_Init
                                           	TRAPPC1	$+2
                                           	TRAPPC2	$+1
                                           	PAGESEL	$
                                           	CRET	
                                           func._PWM67_Init	.code
                                           _PWM67_Init	;Function start
                                           	MOV	R0,# 0x64
                                           	BANKSEL	_APFCTL2
                                           	MOV	_APFCTL2, R0
                                           	BANKSEL	_TR2_bits
                                           	SET	_TR2_bits, 0
                                           	BANKSEL	_TR2_bits
                                           	SET	_TR2_bits, 1
                                           	BANKSEL	_TR2_bits
                                           	SET	_TR2_bits, 3
                                           	BANKSEL	_TR6_bits
                                           	SET	_TR6_bits, 1
                                           	BANKSEL	_TR6_bits
                                           	SET	_TR6_bits, 5
                                           	BANKSEL	_TR9_bits
                                           	SET	_TR9_bits, 4
                                           	MOV	R0,# 0x01
                                           	BANKSEL	_PWM6L0
                                           	MOV	_PWM6L0, R0
                                           	MOV	R0,# 0x0a
                                           	BANKSEL	_PWM6H0
                                           	MOV	_PWM6H0, R0
                                           	MOV	R0,# 0x01
                                           	BANKSEL	_PWM6L1
                                           	MOV	_PWM6L1, R0
                                           	MOV	R0,# 0x0a
                                           	BANKSEL	_PWM6H1
                                           	MOV	_PWM6H1, R0
                                           	MOV	R0,# 0x01
                                           	BANKSEL	_PWM6L0
                                           	MOV	_PWM6L0, R0
                                           	MOV	R0,# 0x0a
                                           	BANKSEL	_PWM6H2
                                           	MOV	_PWM6H2, R0
                                           	MOV	R0,# 0x01
                                           	BANKSEL	_PWM6L3
                                           	MOV	_PWM6L3, R0
                                           	MOV	R0,# 0x0a
                                           	BANKSEL	_PWM6H3
                                           	MOV	_PWM6H3, R0
                                           	MOV	R0,# 0x01
                                           	BANKSEL	_PWM7L0
                                           	MOV	_PWM7L0, R0
                                           	MOV	R0,# 0x0a
                                           	BANKSEL	_PWM7H0
                                           	MOV	_PWM7H0, R0
                                           	MOV	R0,# 0x01
                                           	BANKSEL	_PWM7L1
                                           	MOV	_PWM7L1, R0
                                           	MOV	R0,# 0x0a
                                           	BANKSEL	_PWM7H1
                                           	MOV	_PWM7H1, R0
                                           	MOV	R0,# 0x01
                                           	BANKSEL	_PWM7L2
                                           	MOV	_PWM7L2, R0
                                           	MOV	R0,# 0x0a
                                           	BANKSEL	_PWM7H2
                                           	MOV	_PWM7H2, R0
                                           	MOV	R0,# 0x01
                                           	BANKSEL	_PWM7L3
                                           	MOV	_PWM7L3, R0
                                           	MOV	R0,# 0x0a
                                           	BANKSEL	_PWM7H3
                                           	MOV	_PWM7H3, R0
                                           	MOV	R0,# 0x63
                                           	BANKSEL	_PP60H
                                           	MOV	_PP60H, R0
                                           	MOV	R0,# 0x01
                                           	BANKSEL	_PP60L
                                           	MOV	_PP60L, R0
                                           	MOV	R0,# 0x63
                                           	BANKSEL	_PP70H
                                           	MOV	_PP70H, R0
                                           	MOV	R0,# 0x01
                                           	BANKSEL	_PP70L
                                           	MOV	_PP70L, R0
                                           	MOV	R0,# 0x63
                                           	BANKSEL	_PP61H
                                           	MOV	_PP61H, R0
                                           	MOV	R0,# 0x01
                                           	BANKSEL	_PP61L
                                           	MOV	_PP61L, R0
                                           	MOV	R0,# 0x63
                                           	BANKSEL	_PP71H
                                           	MOV	_PP71H, R0
                                           	MOV	R0,# 0x01
                                           	BANKSEL	_PP71L
                                           	MOV	_PP71L, R0
                                           	MOV	R0,# 0x0c
                                           	BANKSEL	_PWM6CTL0
                                           	MOV	_PWM6CTL0, R0
                                           	MOV	R0,# 0x0c
                                           	BANKSEL	_PWM7CTL0
                                           	MOV	_PWM7CTL0, R0
                                           	BANKSEL	_T2CTL0
                                           	CLR	_T2CTL0
                                           	MOV	R0,# 0x04
                                           	BANKSEL	_T2CTL1
                                           	MOV	_T2CTL1, R0
                                           	BANKSEL	_T4CTL0
                                           	CLR	_T4CTL0
                                           	MOV	R0,# 0x04
                                           	BANKSEL	_T4CTL1
                                           	MOV	_T4CTL1, R0
                                           	BANKSEL	_T5CTL0
                                           	CLR	_T5CTL0
                                           	MOV	R0,# 0x04
                                           	BANKSEL	_T5CTL1
                                           	MOV	_T5CTL1, R0
                                           	BANKSEL	_T6CTL0
                                           	CLR	_T6CTL0
                                           	MOV	R0,# 0x04
                                           	BANKSEL	_T6CTL1
                                           	MOV	_T6CTL1, R0
                                           	BANKSEL	_T2H
                                           	CLR	_T2H
                                           	BANKSEL	_T2L
                                           	CLR	_T2L
                                           	BANKSEL	_T5H
                                           	CLR	_T5H
                                           	BANKSEL	_T5L
                                           	CLR	_T5L
                                           	BANKSEL	_T4H
                                           	CLR	_T4H
                                           	BANKSEL	_T4L
                                           	CLR	_T4L
                                           	BANKSEL	_T6H
                                           	CLR	_T6H
                                           	BANKSEL	_T6L
                                           	CLR	_T6L
                                           	BANKSEL	_T2CTL0_bits
                                           	SET	_T2CTL0_bits, 2
                                           	BANKSEL	_T5CTL0_bits
                                           	SET	_T5CTL0_bits, 2
                                           	BANKSEL	_T4CTL0_bits
                                           	SET	_T4CTL0_bits, 2
                                           	BANKSEL	_T6CTL0_bits
                                           	SET	_T6CTL0_bits, 2
                                           	BANKSEL	_TR2_bits
                                           	CLR	_TR2_bits, 0
                                           	BANKSEL	_TR2_bits
                                           	CLR	_TR2_bits, 1
                                           	BANKSEL	_TR2_bits
                                           	CLR	_TR2_bits, 3
                                           	BANKSEL	_TR6_bits
                                           	CLR	_TR6_bits, 1
                                           	BANKSEL	_TR6_bits
                                           	CLR	_TR6_bits, 5
                                           	BANKSEL	_TR9_bits
                                           	CLR	_TR9_bits, 4
                                           	CRET	
                                           func._PWM5_Init	.code
                                           _PWM5_Init	;Function start
                                           	MOV	R0,# 0xe0
                                           	BANKSEL	_APFCTL5
                                           	MOV	_APFCTL5, R0
                                           	BANKSEL	_TR2_bits
                                           	SET	_TR2_bits, 4
                                           	BANKSEL	_TR6_bits
                                           	SET	_TR6_bits, 6
                                           	BANKSEL	_TR4_bits
                                           	SET	_TR4_bits, 5
                                           	MOV	R0,# 0x01
                                           	BANKSEL	_PWM5L0
                                           	MOV	_PWM5L0, R0
                                           	MOV	R0,# 0x01
                                           	BANKSEL	_PWM5H0
                                           	MOV	_PWM5H0, R0
                                           	MOV	R0,# 0x01
                                           	BANKSEL	_PWM5L1
                                           	MOV	_PWM5L1, R0
                                           	MOV	R0,# 0x01
                                           	BANKSEL	_PWM5H1
                                           	MOV	_PWM5H1, R0
                                           	MOV	R0,# 0x01
                                           	BANKSEL	_PWM5L2
                                           	MOV	_PWM5L2, R0
                                           	MOV	R0,# 0x01
                                           	BANKSEL	_PWM5H2
                                           	MOV	_PWM5H2, R0
                                           	MOV	R0,# 0x63
                                           	BANKSEL	_PP5H
                                           	MOV	_PP5H, R0
                                           	MOV	R0,# 0x01
                                           	BANKSEL	_PP5L
                                           	MOV	_PP5L, R0
                                           	MOV	R0,# 0x0c
                                           	BANKSEL	_PWM5CTL0
                                           	MOV	_PWM5CTL0, R0
                                           	BANKSEL	_PWM5CTL2
                                           	CLR	_PWM5CTL2
                                           	MOV	R0,# 0x1f
                                           	BANKSEL	_P5STRCTL0
                                           	MOV	_P5STRCTL0, R0
                                           	MOV	R0,# 0x0f
                                           	BANKSEL	_P5STRCTL1
                                           	MOV	_P5STRCTL1, R0
                                           	BANKSEL	_T10CTL0
                                           	CLR	_T10CTL0
                                           	MOV	R0,# 0x08
                                           	BANKSEL	_T10CTL1
                                           	MOV	_T10CTL1, R0
                                           	BANKSEL	_T10H
                                           	CLR	_T10H
                                           	BANKSEL	_T10L
                                           	CLR	_T10L
                                           	BANKSEL	_T10CTL1_bits
                                           	SET	_T10CTL1_bits, 2
                                           	BANKSEL	_TR2_bits
                                           	CLR	_TR2_bits, 4
                                           	BANKSEL	_TR6_bits
                                           	CLR	_TR6_bits, 6
                                           	BANKSEL	_TR4_bits
                                           	CLR	_TR4_bits, 5
                                           	CRET	
                                           func._PWM34_Init	.code
                                           _PWM34_Init	;Function start
                                           	MOV	R0,# 0xcd
                                           	BANKSEL	_APFCTL4
                                           	MOV	_APFCTL4, R0
                                           	MOV	R0,# 0x08
                                           	BANKSEL	_APFCTL3
                                           	MOV	_APFCTL3, R0
                                           	BANKSEL	_TR4_bits
                                           	SET	_TR4_bits, 3
                                           	BANKSEL	_TR6_bits
                                           	SET	_TR6_bits, 3
                                           	MOV	R0,# 0x01
                                           	BANKSEL	_PWM3L0
                                           	MOV	_PWM3L0, R0
                                           	MOV	R0,# 0x01
                                           	BANKSEL	_PWM3L1
                                           	MOV	_PWM3L1, R0
                                           	MOV	R0,# 0x63
                                           	BANKSEL	_PP3H
                                           	MOV	_PP3H, R0
                                           	MOV	R0,# 0x01
                                           	BANKSEL	_PP3L
                                           	MOV	_PP3L, R0
                                           	MOV	R0,# 0x01
                                           	BANKSEL	_PWM4L0
                                           	MOV	_PWM4L0, R0
                                           	MOV	R0,# 0x01
                                           	BANKSEL	_PWM4L1
                                           	MOV	_PWM4L1, R0
                                           	MOV	R0,# 0x63
                                           	BANKSEL	_PP4H
                                           	MOV	_PP4H, R0
                                           	MOV	R0,# 0x01
                                           	BANKSEL	_PP4L
                                           	MOV	_PP4L, R0
                                           	MOV	R0,# 0x0c
                                           	BANKSEL	_PWM4CTL0
                                           	MOV	_PWM4CTL0, R0
                                           	MOV	R0,# 0x18
                                           	BANKSEL	_P4ATRCTL
                                           	MOV	_P4ATRCTL, R0
                                           	MOV	R0,# 0x0c
                                           	BANKSEL	_PWM3CTL0
                                           	MOV	_PWM3CTL0, R0
                                           	MOV	R0,# 0x12
                                           	BANKSEL	_P3ATRCTL
                                           	MOV	_P3ATRCTL, R0
                                           	BANKSEL	_T8CTL
                                           	CLR	_T8CTL
                                           	MOV	R0,# 0x02
                                           	BANKSEL	_T8CTL1
                                           	MOV	_T8CTL1, R0
                                           	BANKSEL	_T8H
                                           	CLR	_T8H
                                           	BANKSEL	_T8L
                                           	CLR	_T8L
                                           	BANKSEL	_T8CTL_bits
                                           	SET	_T8CTL_bits, 2
                                           	BANKSEL	_T9CTL
                                           	CLR	_T9CTL
                                           	MOV	R0,# 0x02
                                           	BANKSEL	_T9CTL1
                                           	MOV	_T9CTL1, R0
                                           	BANKSEL	_T9H
                                           	CLR	_T9H
                                           	BANKSEL	_T9L
                                           	CLR	_T9L
                                           	BANKSEL	_T9CTL_bits
                                           	SET	_T9CTL_bits, 2
                                           	BANKSEL	_TR4_bits
                                           	CLR	_TR4_bits, 3
                                           	BANKSEL	_TR6_bits
                                           	CLR	_TR6_bits, 3
                                           	CRET	
                                           	.end
                                           	.radix dec
                                           	.include "KF8A100GQS.inc"
                                           func._Tail_Two_Init	.code
                                           _Tail_Two_Init	;Function start
00081c   9801     MOV	R0, #0x1             	MOV	R0,# 0x01
00081d   e100     MOVB	#0x00               	BANKSEL	STK01
00081e   51fd     MOV	0xfd, R0             	MOV	STK01, R0
00081f   9800     MOV	R0, #0               	MOV	R0,# 0x00
                                           	BANKSEL	STK00
000820   51fe     MOV	0xfe, R0             	MOV	STK00, R0
000821   9802     MOV	R0, #0x2             	MOV	R0,# 0x02
000822   9f0d     MOV	R7, #0xd             	TRAPPC1	_SPI_Write_2Byte
000823   5f73     MOV	0x73, R7             	TRAPPC2	_SPI_Write_2Byte
000824   e00d     MOVP	#0x0D               	PAGESEL	_SPI_Write_2Byte
000825   ddcf     CALL	#0xdcf              	CALL	_SPI_Write_2Byte
000826   9f08     MOV	R7, #0x8             	TRAPPC1	$+2
000827   5f73     MOV	0x73, R7             	TRAPPC2	$+1
000828   e008     MOVP	#0x08               	PAGESEL	$
000829   9802     MOV	R0, #0x2             	MOV	R0,# 0x02
00082a   e100     MOVB	#0x00               	BANKSEL	r0x1007
00082b   519b     MOV	0x9b, R0             	MOV	r0x1007, R0
                                           _00053_DS_
                                           	BANKSEL	r0x1007
00082c   0e9b     MOVZ	R0, 0x9b            	MOVZ	R0, r0x1007
00082d   8080     ADD	R0, #0x80            	ADD	R0,# 0x80
00082e   806c     ADD	R0, #0x6c            	ADD	R0,# 0x6c
00082f   7003     JNB	0x3, 0               	JNB	PSW, 0
000830   c841     JMP	#0x841               	JMP	_00056_DS_
000831   98ff     MOV	R0, #0xff            	MOV	R0,# 0xff
                                           	BANKSEL	STK01
000832   51fd     MOV	0xfd, R0             	MOV	STK01, R0
                                           	BANKSEL	r0x1007
000833   0e9b     MOVZ	R0, 0x9b            	MOVZ	R0, r0x1007
                                           	BANKSEL	r0x1008
000834   519a     MOV	0x9a, R0             	MOV	r0x1008, R0
                                           	BANKSEL	STK00
000835   51fe     MOV	0xfe, R0             	MOV	STK00, R0
000836   9802     MOV	R0, #0x2             	MOV	R0,# 0x02
000837   9f0d     MOV	R7, #0xd             	TRAPPC1	_SPI_Write_2Byte
000838   5f73     MOV	0x73, R7             	TRAPPC2	_SPI_Write_2Byte
000839   e00d     MOVP	#0x0D               	PAGESEL	_SPI_Write_2Byte
00083a   ddcf     CALL	#0xdcf              	CALL	_SPI_Write_2Byte
00083b   9f08     MOV	R7, #0x8             	TRAPPC1	$+2
00083c   5f73     MOV	0x73, R7             	TRAPPC2	$+1
00083d   e008     MOVP	#0x08               	PAGESEL	$
00083e   e100     MOVB	#0x00               	BANKSEL	r0x1007
00083f   0b9b     INC	0x9b                 	INC	r0x1007
000840   c82c     JMP	#0x82c               	JMP	_00053_DS_
                                           _00056_DS_
000841   981f     MOV	R0, #0x1f            	MOV	R0,# 0x1f
                                           	BANKSEL	r0x1007
000842   519b     MOV	0x9b, R0             	MOV	r0x1007, R0
                                           _00057_DS_
                                           	BANKSEL	r0x1007
000843   0e9b     MOVZ	R0, 0x9b            	MOVZ	R0, r0x1007
000844   8080     ADD	R0, #0x80            	ADD	R0,# 0x80
000845   804f     ADD	R0, #0x4f            	ADD	R0,# 0x4f
000846   7003     JNB	0x3, 0               	JNB	PSW, 0
000847   c858     JMP	#0x858               	JMP	_00060_DS_
000848   9800     MOV	R0, #0               	MOV	R0,# 0x00
                                           	BANKSEL	STK01
000849   51fd     MOV	0xfd, R0             	MOV	STK01, R0
                                           	BANKSEL	r0x1007
00084a   0e9b     MOVZ	R0, 0x9b            	MOVZ	R0, r0x1007
                                           	BANKSEL	r0x1008
00084b   519a     MOV	0x9a, R0             	MOV	r0x1008, R0
                                           	BANKSEL	STK00
00084c   51fe     MOV	0xfe, R0             	MOV	STK00, R0
00084d   9802     MOV	R0, #0x2             	MOV	R0,# 0x02
00084e   9f0d     MOV	R7, #0xd             	TRAPPC1	_SPI_Write_2Byte
00084f   5f73     MOV	0x73, R7             	TRAPPC2	_SPI_Write_2Byte
000850   e00d     MOVP	#0x0D               	PAGESEL	_SPI_Write_2Byte
000851   ddcf     CALL	#0xdcf              	CALL	_SPI_Write_2Byte
000852   9f08     MOV	R7, #0x8             	TRAPPC1	$+2
000853   5f73     MOV	0x73, R7             	TRAPPC2	$+1
000854   e008     MOVP	#0x08               	PAGESEL	$
000855   e100     MOVB	#0x00               	BANKSEL	r0x1007
000856   0b9b     INC	0x9b                 	INC	r0x1007
000857   c843     JMP	#0x843               	JMP	_00057_DS_
                                           _00060_DS_
000858   9800     MOV	R0, #0               	MOV	R0,# 0x00
                                           	BANKSEL	STK01
000859   51fd     MOV	0xfd, R0             	MOV	STK01, R0
00085a   9836     MOV	R0, #0x36            	MOV	R0,# 0x36
                                           	BANKSEL	STK00
00085b   51fe     MOV	0xfe, R0             	MOV	STK00, R0
00085c   9802     MOV	R0, #0x2             	MOV	R0,# 0x02
00085d   9f0d     MOV	R7, #0xd             	TRAPPC1	_SPI_Write_2Byte
00085e   5f73     MOV	0x73, R7             	TRAPPC2	_SPI_Write_2Byte
00085f   e00d     MOVP	#0x0D               	PAGESEL	_SPI_Write_2Byte
000860   ddcf     CALL	#0xdcf              	CALL	_SPI_Write_2Byte
000861   9f08     MOV	R7, #0x8             	TRAPPC1	$+2
000862   5f73     MOV	0x73, R7             	TRAPPC2	$+1
000863   e008     MOVP	#0x08               	PAGESEL	$
000864   9800     MOV	R0, #0               	MOV	R0,# 0x00
000865   e100     MOVB	#0x00               	BANKSEL	STK01
000866   51fd     MOV	0xfd, R0             	MOV	STK01, R0
000867   9837     MOV	R0, #0x37            	MOV	R0,# 0x37
                                           	BANKSEL	STK00
000868   51fe     MOV	0xfe, R0             	MOV	STK00, R0
000869   9802     MOV	R0, #0x2             	MOV	R0,# 0x02
00086a   9f0d     MOV	R7, #0xd             	TRAPPC1	_SPI_Write_2Byte
00086b   5f73     MOV	0x73, R7             	TRAPPC2	_SPI_Write_2Byte
00086c   e00d     MOVP	#0x0D               	PAGESEL	_SPI_Write_2Byte
00086d   ddcf     CALL	#0xdcf              	CALL	_SPI_Write_2Byte
00086e   9f08     MOV	R7, #0x8             	TRAPPC1	$+2
00086f   5f73     MOV	0x73, R7             	TRAPPC2	$+1
000870   e008     MOVP	#0x08               	PAGESEL	$
000871   9820     MOV	R0, #0x20            	MOV	R0,# 0x20
000872   e100     MOVB	#0x00               	BANKSEL	STK01
000873   51fd     MOV	0xfd, R0             	MOV	STK01, R0
000874   9801     MOV	R0, #0x1             	MOV	R0,# 0x01
                                           	BANKSEL	STK00
000875   51fe     MOV	0xfe, R0             	MOV	STK00, R0
000876   9802     MOV	R0, #0x2             	MOV	R0,# 0x02
000877   9f0d     MOV	R7, #0xd             	TRAPPC1	_SPI_Write_2Byte
000878   5f73     MOV	0x73, R7             	TRAPPC2	_SPI_Write_2Byte
000879   e00d     MOVP	#0x0D               	PAGESEL	_SPI_Write_2Byte
00087a   ddcf     CALL	#0xdcf              	CALL	_SPI_Write_2Byte
00087b   9f08     MOV	R7, #0x8             	TRAPPC1	$+2
00087c   5f73     MOV	0x73, R7             	TRAPPC2	$+1
00087d   e008     MOVP	#0x08               	PAGESEL	$
00087e   0008     CRET                     	CRET	
                                           func._Tail_One_Init	.code
                                           _Tail_One_Init	;Function start
00087f   9801     MOV	R0, #0x1             	MOV	R0,# 0x01
000880   e100     MOVB	#0x00               	BANKSEL	STK01
000881   51fd     MOV	0xfd, R0             	MOV	STK01, R0
000882   9800     MOV	R0, #0               	MOV	R0,# 0x00
                                           	BANKSEL	STK00
000883   51fe     MOV	0xfe, R0             	MOV	STK00, R0
000884   9801     MOV	R0, #0x1             	MOV	R0,# 0x01
000885   9f0d     MOV	R7, #0xd             	TRAPPC1	_SPI_Write_2Byte
000886   5f73     MOV	0x73, R7             	TRAPPC2	_SPI_Write_2Byte
000887   e00d     MOVP	#0x0D               	PAGESEL	_SPI_Write_2Byte
000888   ddcf     CALL	#0xdcf              	CALL	_SPI_Write_2Byte
000889   9f08     MOV	R7, #0x8             	TRAPPC1	$+2
00088a   5f73     MOV	0x73, R7             	TRAPPC2	$+1
00088b   e008     MOVP	#0x08               	PAGESEL	$
00088c   9802     MOV	R0, #0x2             	MOV	R0,# 0x02
00088d   e100     MOVB	#0x00               	BANKSEL	r0x1009
00088e   519d     MOV	0x9d, R0             	MOV	r0x1009, R0
                                           _00035_DS_
                                           	BANKSEL	r0x1009
00088f   0e9d     MOVZ	R0, 0x9d            	MOVZ	R0, r0x1009
000890   8080     ADD	R0, #0x80            	ADD	R0,# 0x80
000891   806c     ADD	R0, #0x6c            	ADD	R0,# 0x6c
000892   7003     JNB	0x3, 0               	JNB	PSW, 0
000893   c8a4     JMP	#0x8a4               	JMP	_00038_DS_
000894   98ff     MOV	R0, #0xff            	MOV	R0,# 0xff
                                           	BANKSEL	STK01
000895   51fd     MOV	0xfd, R0             	MOV	STK01, R0
                                           	BANKSEL	r0x1009
000896   0e9d     MOVZ	R0, 0x9d            	MOVZ	R0, r0x1009
                                           	BANKSEL	r0x100A
000897   519c     MOV	0x9c, R0             	MOV	r0x100A, R0
                                           	BANKSEL	STK00
000898   51fe     MOV	0xfe, R0             	MOV	STK00, R0
000899   9801     MOV	R0, #0x1             	MOV	R0,# 0x01
00089a   9f0d     MOV	R7, #0xd             	TRAPPC1	_SPI_Write_2Byte
00089b   5f73     MOV	0x73, R7             	TRAPPC2	_SPI_Write_2Byte
00089c   e00d     MOVP	#0x0D               	PAGESEL	_SPI_Write_2Byte
00089d   ddcf     CALL	#0xdcf              	CALL	_SPI_Write_2Byte
00089e   9f08     MOV	R7, #0x8             	TRAPPC1	$+2
00089f   5f73     MOV	0x73, R7             	TRAPPC2	$+1
0008a0   e008     MOVP	#0x08               	PAGESEL	$
0008a1   e100     MOVB	#0x00               	BANKSEL	r0x1009
0008a2   0b9d     INC	0x9d                 	INC	r0x1009
0008a3   c88f     JMP	#0x88f               	JMP	_00035_DS_
                                           _00038_DS_
0008a4   981f     MOV	R0, #0x1f            	MOV	R0,# 0x1f
                                           	BANKSEL	r0x1009
0008a5   519d     MOV	0x9d, R0             	MOV	r0x1009, R0
                                           _00039_DS_
                                           	BANKSEL	r0x1009
0008a6   0e9d     MOVZ	R0, 0x9d            	MOVZ	R0, r0x1009
0008a7   8080     ADD	R0, #0x80            	ADD	R0,# 0x80
0008a8   804f     ADD	R0, #0x4f            	ADD	R0,# 0x4f
0008a9   7003     JNB	0x3, 0               	JNB	PSW, 0
0008aa   c8bb     JMP	#0x8bb               	JMP	_00042_DS_
0008ab   9800     MOV	R0, #0               	MOV	R0,# 0x00
                                           	BANKSEL	STK01
0008ac   51fd     MOV	0xfd, R0             	MOV	STK01, R0
                                           	BANKSEL	r0x1009
0008ad   0e9d     MOVZ	R0, 0x9d            	MOVZ	R0, r0x1009
                                           	BANKSEL	r0x100A
0008ae   519c     MOV	0x9c, R0             	MOV	r0x100A, R0
                                           	BANKSEL	STK00
0008af   51fe     MOV	0xfe, R0             	MOV	STK00, R0
0008b0   9801     MOV	R0, #0x1             	MOV	R0,# 0x01
0008b1   9f0d     MOV	R7, #0xd             	TRAPPC1	_SPI_Write_2Byte
0008b2   5f73     MOV	0x73, R7             	TRAPPC2	_SPI_Write_2Byte
0008b3   e00d     MOVP	#0x0D               	PAGESEL	_SPI_Write_2Byte
0008b4   ddcf     CALL	#0xdcf              	CALL	_SPI_Write_2Byte
0008b5   9f08     MOV	R7, #0x8             	TRAPPC1	$+2
0008b6   5f73     MOV	0x73, R7             	TRAPPC2	$+1
0008b7   e008     MOVP	#0x08               	PAGESEL	$
0008b8   e100     MOVB	#0x00               	BANKSEL	r0x1009
0008b9   0b9d     INC	0x9d                 	INC	r0x1009
0008ba   c8a6     JMP	#0x8a6               	JMP	_00039_DS_
                                           _00042_DS_
0008bb   9800     MOV	R0, #0               	MOV	R0,# 0x00
                                           	BANKSEL	STK01
0008bc   51fd     MOV	0xfd, R0             	MOV	STK01, R0
0008bd   9836     MOV	R0, #0x36            	MOV	R0,# 0x36
                                           	BANKSEL	STK00
0008be   51fe     MOV	0xfe, R0             	MOV	STK00, R0
0008bf   9801     MOV	R0, #0x1             	MOV	R0,# 0x01
0008c0   9f0d     MOV	R7, #0xd             	TRAPPC1	_SPI_Write_2Byte
0008c1   5f73     MOV	0x73, R7             	TRAPPC2	_SPI_Write_2Byte
0008c2   e00d     MOVP	#0x0D               	PAGESEL	_SPI_Write_2Byte
0008c3   ddcf     CALL	#0xdcf              	CALL	_SPI_Write_2Byte
0008c4   9f08     MOV	R7, #0x8             	TRAPPC1	$+2
0008c5   5f73     MOV	0x73, R7             	TRAPPC2	$+1
0008c6   e008     MOVP	#0x08               	PAGESEL	$
0008c7   9800     MOV	R0, #0               	MOV	R0,# 0x00
0008c8   e100     MOVB	#0x00               	BANKSEL	STK01
0008c9   51fd     MOV	0xfd, R0             	MOV	STK01, R0
0008ca   9837     MOV	R0, #0x37            	MOV	R0,# 0x37
                                           	BANKSEL	STK00
0008cb   51fe     MOV	0xfe, R0             	MOV	STK00, R0
0008cc   9801     MOV	R0, #0x1             	MOV	R0,# 0x01
0008cd   9f0d     MOV	R7, #0xd             	TRAPPC1	_SPI_Write_2Byte
0008ce   5f73     MOV	0x73, R7             	TRAPPC2	_SPI_Write_2Byte
0008cf   e00d     MOVP	#0x0D               	PAGESEL	_SPI_Write_2Byte
0008d0   ddcf     CALL	#0xdcf              	CALL	_SPI_Write_2Byte
0008d1   9f08     MOV	R7, #0x8             	TRAPPC1	$+2
0008d2   5f73     MOV	0x73, R7             	TRAPPC2	$+1
0008d3   e008     MOVP	#0x08               	PAGESEL	$
0008d4   9820     MOV	R0, #0x20            	MOV	R0,# 0x20
0008d5   e100     MOVB	#0x00               	BANKSEL	STK01
0008d6   51fd     MOV	0xfd, R0             	MOV	STK01, R0
0008d7   9801     MOV	R0, #0x1             	MOV	R0,# 0x01
                                           	BANKSEL	STK00
0008d8   51fe     MOV	0xfe, R0             	MOV	STK00, R0
0008d9   9801     MOV	R0, #0x1             	MOV	R0,# 0x01
0008da   9f0d     MOV	R7, #0xd             	TRAPPC1	_SPI_Write_2Byte
0008db   5f73     MOV	0x73, R7             	TRAPPC2	_SPI_Write_2Byte
0008dc   e00d     MOVP	#0x0D               	PAGESEL	_SPI_Write_2Byte
0008dd   ddcf     CALL	#0xdcf              	CALL	_SPI_Write_2Byte
0008de   9f08     MOV	R7, #0x8             	TRAPPC1	$+2
0008df   5f73     MOV	0x73, R7             	TRAPPC2	$+1
0008e0   e008     MOVP	#0x08               	PAGESEL	$
0008e1   0008     CRET                     	CRET	
                                           func._IS31FL3265B_Init	.code
                                           _IS31FL3265B_Init	;Function start
000ec5   9f0e     MOV	R7, #0xe             	TRAPPC1	_spi_init
000ec6   5f73     MOV	0x73, R7             	TRAPPC2	_spi_init
000ec7   e00e     MOVP	#0x0E               	PAGESEL	_spi_init
000ec8   deab     CALL	#0xeab              	CALL	_spi_init
000ec9   9f0e     MOV	R7, #0xe             	TRAPPC1	$+2
000eca   5f73     MOV	0x73, R7             	TRAPPC2	$+1
000ecb   e00e     MOVP	#0x0E               	PAGESEL	$
000ecc   9f08     MOV	R7, #0x8             	TRAPPC1	_Tail_One_Init
000ecd   5f73     MOV	0x73, R7             	TRAPPC2	_Tail_One_Init
000ece   e008     MOVP	#0x08               	PAGESEL	_Tail_One_Init
000ecf   d87f     CALL	#0x87f              	CALL	_Tail_One_Init
000ed0   9f0e     MOV	R7, #0xe             	TRAPPC1	$+2
000ed1   5f73     MOV	0x73, R7             	TRAPPC2	$+1
000ed2   e00e     MOVP	#0x0E               	PAGESEL	$
000ed3   9f08     MOV	R7, #0x8             	TRAPPC1	_Tail_Two_Init
000ed4   5f73     MOV	0x73, R7             	TRAPPC2	_Tail_Two_Init
000ed5   e008     MOVP	#0x08               	PAGESEL	_Tail_Two_Init
000ed6   d81c     CALL	#0x81c              	CALL	_Tail_Two_Init
000ed7   9f0e     MOV	R7, #0xe             	TRAPPC1	$+2
000ed8   5f73     MOV	0x73, R7             	TRAPPC2	$+1
000ed9   e00e     MOVP	#0x0E               	PAGESEL	$
000eda   0008     CRET                     	CRET	
                                           func._SPI_Write_2Byte	.code
                                           _SPI_Write_2Byte	;Function start
000dcf   e100     MOVB	#0x00               	BANKSEL	r0x1005
000dd0   519f     MOV	0x9f, R0             	MOV	r0x1005, R0
                                           	BANKSEL	r0x1006
000dd1   519e     MOV	0x9e, R0             	MOV	r0x1006, R0
                                           	BANKSEL	STK00
000dd2   0efe     MOVZ	R0, 0xfe            	MOVZ	R0, STK00
                                           	BANKSEL	_SPI_Write_2Byte_SPI_adr_1_1
000dd3   5199     MOV	0x99, R0             	MOV	_SPI_Write_2Byte_SPI_adr_1_1, R0
                                           	BANKSEL	STK01
000dd4   0efd     MOVZ	R0, 0xfd            	MOVZ	R0, STK01
                                           	BANKSEL	_SPI_Write_2Byte_SPI_data_1_1
000dd5   5198     MOV	0x98, R0             	MOV	_SPI_Write_2Byte_SPI_data_1_1, R0
                                           	BANKSEL	r0x1006
000dd6   0e9e     MOVZ	R0, 0x9e            	MOVZ	R0, r0x1006
000dd7   9f0e     MOV	R7, #0xe             	TRAPPC1	_Spi_CS_Low
000dd8   5f73     MOV	0x73, R7             	TRAPPC2	_Spi_CS_Low
000dd9   e00e     MOVP	#0x0E               	PAGESEL	_Spi_CS_Low
000dda   defb     CALL	#0xefb              	CALL	_Spi_CS_Low
000ddb   9f0d     MOV	R7, #0xd             	TRAPPC1	$+2
000ddc   5f73     MOV	0x73, R7             	TRAPPC2	$+1
000ddd   e00d     MOVP	#0x0D               	PAGESEL	$
000dde   e100     MOVB	#0x00               	BANKSEL	_SPI_Write_2Byte_SPI_adr_1_1
000ddf   0e99     MOVZ	R0, 0x99            	MOVZ	R0, _SPI_Write_2Byte_SPI_adr_1_1
000de0   e102     MOVB	#0x02               	BANKSEL	_SSCI2BUFR
000de1   5107     MOV	0x7, R0              	MOV	_SSCI2BUFR, R0
                                           _00021_DS_
000de2   e105     MOVB	#0x05               	BANKSEL	_EIF6_bits
000de3   7c1c     JB	0x1c, 4               	JB	_EIF6_bits, 4
000de4   cde2     JMP	#0xde2               	JMP	_00021_DS_
                                           	BANKSEL	_EIF6_bits
000de5   641c     CLR	0x1c, 4              	CLR	_EIF6_bits, 4
000de6   e102     MOVB	#0x02               	BANKSEL	_SSCI2BUFR
000de7   0e07     MOVZ	R0, 0x7             	MOVZ	R0, _SSCI2BUFR
000de8   e100     MOVB	#0x00               	BANKSEL	_SPI_Write_2Byte_buf_1_1
000de9   51e5     MOV	0xe5, R0             	MOV	_SPI_Write_2Byte_buf_1_1, R0
                                           	BANKSEL	_SPI_Write_2Byte_buf_1_1
000dea   03e6     CLR	0xe6                 	CLR	(_SPI_Write_2Byte_buf_1_1 + 1)
                                           	BANKSEL	_SPI_Write_2Byte_SPI_data_1_1
000deb   0e98     MOVZ	R0, 0x98            	MOVZ	R0, _SPI_Write_2Byte_SPI_data_1_1
000dec   e102     MOVB	#0x02               	BANKSEL	_SSCI2BUFR
000ded   5107     MOV	0x7, R0              	MOV	_SSCI2BUFR, R0
                                           _00024_DS_
000dee   e105     MOVB	#0x05               	BANKSEL	_EIF6_bits
000def   7c1c     JB	0x1c, 4               	JB	_EIF6_bits, 4
000df0   cdee     JMP	#0xdee               	JMP	_00024_DS_
                                           	BANKSEL	_EIF6_bits
000df1   641c     CLR	0x1c, 4              	CLR	_EIF6_bits, 4
000df2   e102     MOVB	#0x02               	BANKSEL	_SSCI2BUFR
000df3   0e07     MOVZ	R0, 0x7             	MOVZ	R0, _SSCI2BUFR
000df4   e100     MOVB	#0x00               	BANKSEL	_SPI_Write_2Byte_buf_1_1
000df5   51e5     MOV	0xe5, R0             	MOV	_SPI_Write_2Byte_buf_1_1, R0
                                           	BANKSEL	_SPI_Write_2Byte_buf_1_1
000df6   03e6     CLR	0xe6                 	CLR	(_SPI_Write_2Byte_buf_1_1 + 1)
                                           	BANKSEL	r0x1005
000df7   0e9f     MOVZ	R0, 0x9f            	MOVZ	R0, r0x1005
                                           	BANKSEL	r0x1006
000df8   519e     MOV	0x9e, R0             	MOV	r0x1006, R0
000df9   9f0f     MOV	R7, #0xf             	TRAPPC1	_Spi_CS_High
000dfa   5f73     MOV	0x73, R7             	TRAPPC2	_Spi_CS_High
000dfb   e00f     MOVP	#0x0F               	PAGESEL	_Spi_CS_High
000dfc   df0b     CALL	#0xf0b              	CALL	_Spi_CS_High
000dfd   9f0d     MOV	R7, #0xd             	TRAPPC1	$+2
000dfe   5f73     MOV	0x73, R7             	TRAPPC2	$+1
000dff   e00d     MOVP	#0x0D               	PAGESEL	$
000e00   0008     CRET                     	CRET	
                                           func._Spi_CS_Low	.code
                                           _Spi_CS_Low	;Function start
000efb   e100     MOVB	#0x00               	BANKSEL	r0x1004
000efc   51a0     MOV	0xa0, R0             	MOV	r0x1004, R0
                                           	BANKSEL	r0x1004
000efd   0ea0     MOVZ	R0, 0xa0            	MOVZ	R0, r0x1004
000efe   a801     XOR	R0, #0x1             	XOR	R0,# 0x01
000eff   7203     JNB	0x3, 2               	JNB	PSW, 2
000f00   cf06     JMP	#0xf06               	JMP	_00012_DS_
                                           	BANKSEL	r0x1004
000f01   0ea0     MOVZ	R0, 0xa0            	MOVZ	R0, r0x1004
000f02   a802     XOR	R0, #0x2             	XOR	R0,# 0x02
000f03   7203     JNB	0x3, 2               	JNB	PSW, 2
000f04   cf08     JMP	#0xf08               	JMP	_00013_DS_
000f05   cf0a     JMP	#0xf0a               	JMP	_00015_DS_
                                           _00012_DS_
                                           	BANKSEL	_P0LR_bits
000f06   6445     CLR	0x45, 4              	CLR	_P0LR_bits, 4
000f07   cf0a     JMP	#0xf0a               	JMP	_00015_DS_
                                           _00013_DS_
000f08   e101     MOVB	#0x01               	BANKSEL	_P6LR_bits
000f09   6246     CLR	0x46, 2              	CLR	_P6LR_bits, 2
                                           _00015_DS_
000f0a   0008     CRET                     	CRET	
                                           func._Spi_CS_High	.code
                                           _Spi_CS_High	;Function start
000f0b   e100     MOVB	#0x00               	BANKSEL	r0x1004
000f0c   51a0     MOV	0xa0, R0             	MOV	r0x1004, R0
                                           	BANKSEL	r0x1004
000f0d   0ea0     MOVZ	R0, 0xa0            	MOVZ	R0, r0x1004
000f0e   a801     XOR	R0, #0x1             	XOR	R0,# 0x01
000f0f   7203     JNB	0x3, 2               	JNB	PSW, 2
000f10   cf16     JMP	#0xf16               	JMP	_00003_DS_
                                           	BANKSEL	r0x1004
000f11   0ea0     MOVZ	R0, 0xa0            	MOVZ	R0, r0x1004
000f12   a802     XOR	R0, #0x2             	XOR	R0,# 0x02
000f13   7203     JNB	0x3, 2               	JNB	PSW, 2
000f14   cf18     JMP	#0xf18               	JMP	_00004_DS_
000f15   cf1a     JMP	#0xf1a               	JMP	_00006_DS_
                                           _00003_DS_
                                           	BANKSEL	_P0LR_bits
000f16   6c45     SET	0x45, 4              	SET	_P0LR_bits, 4
000f17   cf1a     JMP	#0xf1a               	JMP	_00006_DS_
                                           _00004_DS_
000f18   e101     MOVB	#0x01               	BANKSEL	_P6LR_bits
000f19   6a46     SET	0x46, 2              	SET	_P6LR_bits, 2
                                           _00006_DS_
000f1a   0008     CRET                     	CRET	
                                           func._spi_init	.code
                                           _spi_init	;Function start
000eab   e101     MOVB	#0x01               	BANKSEL	_TR9_bits
000eac   6a29     SET	0x29, 2              	SET	_TR9_bits, 2
                                           	BANKSEL	_TR9_bits
000ead   6129     CLR	0x29, 1              	CLR	_TR9_bits, 1
000eae   e100     MOVB	#0x00               	BANKSEL	_TR0_bits
000eaf   6325     CLR	0x25, 3              	CLR	_TR0_bits, 3
                                           	BANKSEL	_TR0_bits
000eb0   6425     CLR	0x25, 4              	CLR	_TR0_bits, 4
000eb1   e101     MOVB	#0x01               	BANKSEL	_TR6_bits
000eb2   6226     CLR	0x26, 2              	CLR	_TR6_bits, 2
000eb3   986e     MOV	R0, #0x6e            	MOV	R0,# 0x6e
000eb4   e104     MOVB	#0x04               	BANKSEL	_APFCTL9
000eb5   5165     MOV	0x65, R0             	MOV	_APFCTL9, R0
000eb6   e102     MOVB	#0x02               	BANKSEL	_SSCI2CTL0_bits
000eb7   6506     CLR	0x6, 5               	CLR	_SSCI2CTL0_bits, 5
000eb8   9801     MOV	R0, #0x1             	MOV	R0,# 0x01
                                           	BANKSEL	_SSCI2CTL0
000eb9   5106     MOV	0x6, R0              	MOV	_SSCI2CTL0, R0
                                           	BANKSEL	_SSCI2CTL1
000eba   031f     CLR	0x1f                 	CLR	_SSCI2CTL1
                                           	BANKSEL	_SSCI2CTL2
000ebb   0309     CLR	0x9                  	CLR	_SSCI2CTL2
000ebc   9840     MOV	R0, #0x40            	MOV	R0,# 0x40
                                           	BANKSEL	_SSCI2STA
000ebd   5105     MOV	0x5, R0              	MOV	_SSCI2STA, R0
                                           	BANKSEL	_SSCI2CTL0_bits
000ebe   6d06     SET	0x6, 5               	SET	_SSCI2CTL0_bits, 5
000ebf   e100     MOVB	#0x00               	BANKSEL	_P1LR_bits
000ec0   6a47     SET	0x47, 2              	SET	_P1LR_bits, 2
                                           	BANKSEL	_P0LR_bits
000ec1   6c45     SET	0x45, 4              	SET	_P0LR_bits, 4
000ec2   e101     MOVB	#0x01               	BANKSEL	_P6LR_bits
000ec3   6a46     SET	0x46, 2              	SET	_P6LR_bits, 2
000ec4   0008     CRET                     	CRET	
                                           	.end
                                           	.radix dec
                                           	.include "KF8A100GQS.inc"
                                           func._Timer10_Init	.code
                                           _Timer10_Init	;Function start
                                           	MOV	R0,# 0x96
                                           	BANKSEL	_T10CTL0
                                           	MOV	_T10CTL0, R0
                                           	BANKSEL	_T10CTL1
                                           	CLR	_T10CTL1
                                           	BANKSEL	_T10H
                                           	CLR	_T10H
                                           	BANKSEL	_T10L
                                           	CLR	_T10L
                                           	MOV	R0,# 0x01
                                           	BANKSEL	_PP5H
                                           	MOV	_PP5H, R0
                                           	MOV	R0,# 0x8f
                                           	BANKSEL	_PP5L
                                           	MOV	_PP5L, R0
                                           	BANKSEL	_T10CTL1_bits
                                           	SET	_T10CTL1_bits, 2
                                           	BANKSEL	_EIF8_bits
                                           	CLR	_EIF8_bits, 5
                                           	BANKSEL	_EIE8_bits
                                           	SET	_EIE8_bits, 5
                                           	CRET	
                                           func._Timer8_Init	.code
                                           _Timer8_Init	;Function start
                                           	MOV	R0,# 0x4a
                                           	BANKSEL	_T8CTL
                                           	MOV	_T8CTL, R0
                                           	MOV	R0,# 0x01
                                           	BANKSEL	_T8CTL1
                                           	MOV	_T8CTL1, R0
                                           	BANKSEL	_T8H
                                           	CLR	_T8H
                                           	BANKSEL	_T8L
                                           	CLR	_T8L
                                           	MOV	R0,# 0x01
                                           	BANKSEL	_PP3H
                                           	MOV	_PP3H, R0
                                           	MOV	R0,# 0x8f
                                           	BANKSEL	_PP3L
                                           	MOV	_PP3L, R0
                                           	BANKSEL	_EIF8_bits
                                           	CLR	_EIF8_bits, 3
                                           	BANKSEL	_EIE8_bits
                                           	SET	_EIE8_bits, 3
                                           	BANKSEL	_T8CTL_bits
                                           	SET	_T8CTL_bits, 2
                                           	CRET	
                                           func._Timer5_Init	.code
                                           _Timer5_Init	;Function start
                                           	MOV	R0,# 0x4a
                                           	BANKSEL	_T5CTL0
                                           	MOV	_T5CTL0, R0
                                           	MOV	R0,# 0x02
                                           	BANKSEL	_T5CTL1
                                           	MOV	_T5CTL1, R0
                                           	BANKSEL	_T5H
                                           	CLR	_T5H
                                           	BANKSEL	_T5L
                                           	CLR	_T5L
                                           	MOV	R0,# 0x01
                                           	BANKSEL	_PP70H
                                           	MOV	_PP70H, R0
                                           	MOV	R0,# 0x8f
                                           	BANKSEL	_PP70L
                                           	MOV	_PP70L, R0
                                           	BANKSEL	_T5CTL0_bits
                                           	SET	_T5CTL0_bits, 2
                                           	BANKSEL	_EIF5_bits
                                           	CLR	_EIF5_bits, 5
                                           	BANKSEL	_EIE5_bits
                                           	SET	_EIE5_bits, 5
                                           	CRET	
                                           func._Timer3_Init	.code
                                           _Timer3_Init	;Function start
                                           	MOV	R0,# 0xb0
                                           	BANKSEL	_T3CTL
                                           	MOV	_T3CTL, R0
                                           	BANKSEL	_T3H
                                           	CLR	_T3H
                                           	BANKSEL	_T3L
                                           	CLR	_T3L
                                           	MOV	R0,# 0x07
                                           	BANKSEL	_T3REH
                                           	MOV	_T3REH, R0
                                           	MOV	R0,# 0xcf
                                           	BANKSEL	_T3REL
                                           	MOV	_T3REL, R0
                                           	BANKSEL	_T3CTL_bits
                                           	SET	_T3CTL_bits, 0
                                           	BANKSEL	_EIF1_bits
                                           	CLR	_EIF1_bits, 7
                                           	BANKSEL	_EIE1_bits
                                           	SET	_EIE1_bits, 7
                                           	CRET	
                                           func._Timer2_Init	.code
                                           _Timer2_Init	;Function start
000f2b   9802     MOV	R0, #0x2             	MOV	R0,# 0x02
000f2c   e100     MOVB	#0x00               	BANKSEL	_T2CTL1
000f2d   5151     MOV	0x51, R0             	MOV	_T2CTL1, R0
                                           	BANKSEL	_T2H
000f2e   0341     CLR	0x41                 	CLR	_T2H
                                           	BANKSEL	_T2L
000f2f   0311     CLR	0x11                 	CLR	_T2L
000f30   9802     MOV	R0, #0x2             	MOV	R0,# 0x02
                                           	BANKSEL	_PP60H
000f31   5142     MOV	0x42, R0             	MOV	_PP60H, R0
000f32   9826     MOV	R0, #0x26            	MOV	R0,# 0x26
                                           	BANKSEL	_PP60L
000f33   5152     MOV	0x52, R0             	MOV	_PP60L, R0
000f34   9803     MOV	R0, #0x3             	MOV	R0,# 0x03
                                           	BANKSEL	_T2CTL0
000f35   5112     MOV	0x12, R0             	MOV	_T2CTL0, R0
                                           	BANKSEL	_T2CTL0_bits
000f36   6a12     SET	0x12, 2              	SET	_T2CTL0_bits, 2
                                           	BANKSEL	_EIF1_bits
000f37   610c     CLR	0xc, 1               	CLR	_EIF1_bits, 1
                                           	BANKSEL	_EIE1_bits
000f38   692c     SET	0x2c, 1              	SET	_EIE1_bits, 1
000f39   0008     CRET                     	CRET	
                                           func._Timer1_Init	.code
                                           _Timer1_Init	;Function start
000f3a   e101     MOVB	#0x01               	BANKSEL	_T1CTL2
000f3b   0318     CLR	0x18                 	CLR	_T1CTL2
000f3c   98f1     MOV	R0, #0xf1            	MOV	R0,# 0xf1
000f3d   e100     MOVB	#0x00               	BANKSEL	_T1H
000f3e   510f     MOV	0xf, R0              	MOV	_T1H, R0
000f3f   98a9     MOV	R0, #0xa9            	MOV	R0,# 0xa9
                                           	BANKSEL	_T1L
000f40   510e     MOV	0xe, R0              	MOV	_T1L, R0
000f41   9801     MOV	R0, #0x1             	MOV	R0,# 0x01
                                           	BANKSEL	_T1CTL
000f42   5110     MOV	0x10, R0             	MOV	_T1CTL, R0
                                           	BANKSEL	_EIF1_bits
000f43   600c     CLR	0xc, 0               	CLR	_EIF1_bits, 0
                                           	BANKSEL	_EIE1_bits
000f44   682c     SET	0x2c, 0              	SET	_EIE1_bits, 0
000f45   0008     CRET                     	CRET	
                                           func._Timer0_Init	.code
                                           _Timer0_Init	;Function start
000f77   0064     CWDT                     	CWDT 
000f78   9803     MOV	R0, #0x3             	MOV	R0,# 0x03
000f79   e100     MOVB	#0x00               	BANKSEL	_OPTR
000f7a   5121     MOV	0x21, R0             	MOV	_OPTR, R0
                                           	BANKSEL	_T0CTL
000f7b   034f     CLR	0x4f                 	CLR	_T0CTL
                                           	BANKSEL	_T0
000f7c   0301     CLR	0x1                  	CLR	_T0
                                           	BANKSEL	_INTCTL_bits
000f7d   620b     CLR	0xb, 2               	CLR	_INTCTL_bits, 2
                                           	BANKSEL	_INTCTL_bits
000f7e   6d0b     SET	0xb, 5               	SET	_INTCTL_bits, 5
000f7f   0008     CRET                     	CRET	
                                           	.end
                                           	.radix dec
                                           	.include "KF8A100GQS.inc"
                                           ID_Work_0	.idata
                                           _PastMode
                                           	.db	0x00, 0x00
                                           ID_Work_1	.idata
                                           _NowMode
                                           	.db	0x00, 0x00
                                           ID_Work_2	.idata
                                           _ActMode
                                           	.db	0x00, 0x00
                                           ID_Work_3	.idata
                                           _RT_PastMode
                                           	.db	0x00, 0x00
                                           ID_Work_4	.idata
                                           _RT_NowMode
                                           	.db	0x00, 0x00
                                           ID_Work_5	.idata
                                           _RT_ActMode
                                           	.db	0x00, 0x00
                                           ID_Work_6	.idata
                                           _RT_Timer_PWM_Flag
                                           	.db	0x00
                                           ID_Work_7	.idata
                                           _Stop_Low_Addr
                                           	.db	0x00, 0x00
                                           ID_Work_8	.idata
                                           _RT_WATER_FULL
                                           	.db	0x00, 0x00
                                           ID_Work_9	.idata
                                           _RT_CNT
                                           	.db	0x00, 0x00, 0x00, 0x00
                                           ID_Work_10	.idata
                                           _LOW_EN_Status
                                           	.db	0x00
                                           func._Led_Hello_Check	.code
                                           _Led_Hello_Check	;Function start
0009f6   e100     MOVB	#0x00               	BANKSEL	r0x102E
0009f7   0386     CLR	0x86                 	CLR	r0x102E
0009f8   e101     MOVB	#0x01               	BANKSEL	_P7_bits
0009f9   7907     JB	0x7, 1                	JB	_P7_bits, 1
0009fa   c9fd     JMP	#0x9fd               	JMP	_00298_DS_
0009fb   e100     MOVB	#0x00               	BANKSEL	r0x102E
0009fc   0b86     INC	0x86                 	INC	r0x102E
                                           _00298_DS_
0009fd   e100     MOVB	#0x00               	BANKSEL	r0x102E
0009fe   0e86     MOVZ	R0, 0x86            	MOVZ	R0, r0x102E
                                           	BANKSEL	_Tail_Status
0009ff   5195     MOV	0x95, R0             	MOV	_Tail_Status, R0
                                           	BANKSEL	r0x102E
000a00   0386     CLR	0x86                 	CLR	r0x102E
000a01   e101     MOVB	#0x01               	BANKSEL	_P7_bits
000a02   7a07     JB	0x7, 2                	JB	_P7_bits, 2
000a03   ca06     JMP	#0xa06               	JMP	_00299_DS_
000a04   e100     MOVB	#0x00               	BANKSEL	r0x102E
000a05   0b86     INC	0x86                 	INC	r0x102E
                                           _00299_DS_
000a06   e100     MOVB	#0x00               	BANKSEL	r0x102E
000a07   0e86     MOVZ	R0, 0x86            	MOVZ	R0, r0x102E
                                           	BANKSEL	_Stop_Status
000a08   5194     MOV	0x94, R0             	MOV	_Stop_Status, R0
                                           	BANKSEL	r0x102E
000a09   0386     CLR	0x86                 	CLR	r0x102E
000a0a   e104     MOVB	#0x04               	BANKSEL	_PA_bits
000a0b   7824     JB	0x24, 0               	JB	_PA_bits, 0
000a0c   ca0f     JMP	#0xa0f               	JMP	_00300_DS_
000a0d   e100     MOVB	#0x00               	BANKSEL	r0x102E
000a0e   0b86     INC	0x86                 	INC	r0x102E
                                           _00300_DS_
000a0f   e100     MOVB	#0x00               	BANKSEL	r0x102E
000a10   0e86     MOVZ	R0, 0x86            	MOVZ	R0, r0x102E
                                           	BANKSEL	_RT_Status
000a11   5193     MOV	0x93, R0             	MOV	_RT_Status, R0
                                           	BANKSEL	r0x102E
000a12   0386     CLR	0x86                 	CLR	r0x102E
000a13   e101     MOVB	#0x01               	BANKSEL	_P5_bits
000a14   7905     JB	0x5, 1                	JB	_P5_bits, 1
000a15   ca18     JMP	#0xa18               	JMP	_00301_DS_
000a16   e100     MOVB	#0x00               	BANKSEL	r0x102E
000a17   0b86     INC	0x86                 	INC	r0x102E
                                           _00301_DS_
000a18   e100     MOVB	#0x00               	BANKSEL	r0x102E
000a19   0e86     MOVZ	R0, 0x86            	MOVZ	R0, r0x102E
                                           	BANKSEL	_RT_EN_Status
000a1a   5192     MOV	0x92, R0             	MOV	_RT_EN_Status, R0
                                           	BANKSEL	_Tail_Status
000a1b   0e95     MOVZ	R0, 0x95            	MOVZ	R0, _Tail_Status
000a1c   a801     XOR	R0, #0x1             	XOR	R0,# 0x01
000a1d   7a03     JB	0x3, 2                	JB	PSW, 2
000a1e   ca32     JMP	#0xa32               	JMP	_00279_DS_
                                           	BANKSEL	_Stop_Status
000a1f   0e94     MOVZ	R0, 0x94            	MOVZ	R0, _Stop_Status
000a20   a801     XOR	R0, #0x1             	XOR	R0,# 0x01
000a21   7a03     JB	0x3, 2                	JB	PSW, 2
000a22   ca32     JMP	#0xa32               	JMP	_00279_DS_
                                           	BANKSEL	_RT_Status
000a23   0e93     MOVZ	R0, 0x93            	MOVZ	R0, _RT_Status
000a24   a801     XOR	R0, #0x1             	XOR	R0,# 0x01
000a25   7a03     JB	0x3, 2                	JB	PSW, 2
000a26   ca32     JMP	#0xa32               	JMP	_00279_DS_
000a27   9800     MOV	R0, #0               	MOV	R0,# 0x00
                                           	BANKSEL	_RT_EN_Status
000a28   3092     ORL	R0, 0x92             	ORL	R0, _RT_EN_Status
000a29   7a03     JB	0x3, 2                	JB	PSW, 2
000a2a   ca32     JMP	#0xa32               	JMP	_00279_DS_
000a2b   9f05     MOV	R7, #0x5             	TRAPPC1	_Led_Hello
000a2c   5f73     MOV	0x73, R7             	TRAPPC2	_Led_Hello
000a2d   e005     MOVP	#0x05               	PAGESEL	_Led_Hello
000a2e   d5af     CALL	#0x5af              	CALL	_Led_Hello
000a2f   9f0a     MOV	R7, #0xa             	TRAPPC1	$+2
000a30   5f73     MOV	0x73, R7             	TRAPPC2	$+1
000a31   e00a     MOVP	#0x0A               	PAGESEL	$
                                           _00279_DS_
000a32   e100     MOVB	#0x00               	BANKSEL	_Tail_Status
000a33   0e95     MOVZ	R0, 0x95            	MOVZ	R0, _Tail_Status
000a34   a801     XOR	R0, #0x1             	XOR	R0,# 0x01
000a35   7a03     JB	0x3, 2                	JB	PSW, 2
000a36   ca4a     JMP	#0xa4a               	JMP	_00288_DS_
                                           	BANKSEL	_Stop_Status
000a37   0e94     MOVZ	R0, 0x94            	MOVZ	R0, _Stop_Status
000a38   a801     XOR	R0, #0x1             	XOR	R0,# 0x01
000a39   7a03     JB	0x3, 2                	JB	PSW, 2
000a3a   ca4a     JMP	#0xa4a               	JMP	_00288_DS_
                                           	BANKSEL	_RT_Status
000a3b   0e93     MOVZ	R0, 0x93            	MOVZ	R0, _RT_Status
000a3c   a801     XOR	R0, #0x1             	XOR	R0,# 0x01
000a3d   7a03     JB	0x3, 2                	JB	PSW, 2
000a3e   ca4a     JMP	#0xa4a               	JMP	_00288_DS_
                                           	BANKSEL	_RT_EN_Status
000a3f   0e92     MOVZ	R0, 0x92            	MOVZ	R0, _RT_EN_Status
000a40   a801     XOR	R0, #0x1             	XOR	R0,# 0x01
000a41   7a03     JB	0x3, 2                	JB	PSW, 2
000a42   ca4a     JMP	#0xa4a               	JMP	_00288_DS_
000a43   9f06     MOV	R7, #0x6             	TRAPPC1	_Led_Bye
000a44   5f73     MOV	0x73, R7             	TRAPPC2	_Led_Bye
000a45   e006     MOVP	#0x06               	PAGESEL	_Led_Bye
000a46   d6bb     CALL	#0x6bb              	CALL	_Led_Bye
000a47   9f0a     MOV	R7, #0xa             	TRAPPC1	$+2
000a48   5f73     MOV	0x73, R7             	TRAPPC2	$+1
000a49   e00a     MOVP	#0x0A               	PAGESEL	$
                                           _00288_DS_
000a4a   0008     CRET                     	CRET	
                                           func._Led_Bye	.code
                                           _Led_Bye	;Function start
0006bb   9f0b     MOV	R7, #0xb             	TRAPPC1	_Led_Tail_AllOpen
0006bc   5f73     MOV	0x73, R7             	TRAPPC2	_Led_Tail_AllOpen
0006bd   e00b     MOVP	#0x0B               	PAGESEL	_Led_Tail_AllOpen
0006be   dbbc     CALL	#0xbbc              	CALL	_Led_Tail_AllOpen
0006bf   9f06     MOV	R7, #0x6             	TRAPPC1	$+2
0006c0   5f73     MOV	0x73, R7             	TRAPPC2	$+1
0006c1   e006     MOVP	#0x06               	PAGESEL	$
0006c2   9f0f     MOV	R7, #0xf             	TRAPPC1	_LED_Stop_AllOpen
0006c3   5f73     MOV	0x73, R7             	TRAPPC2	_LED_Stop_AllOpen
0006c4   e00f     MOVP	#0x0F               	PAGESEL	_LED_Stop_AllOpen
0006c5   df97     CALL	#0xf97              	CALL	_LED_Stop_AllOpen
0006c6   9f06     MOV	R7, #0x6             	TRAPPC1	$+2
0006c7   5f73     MOV	0x73, R7             	TRAPPC2	$+1
0006c8   e006     MOVP	#0x06               	PAGESEL	$
0006c9   98e8     MOV	R0, #0xe8            	MOV	R0,# 0xe8
0006ca   e100     MOVB	#0x00               	BANKSEL	STK00
0006cb   51fe     MOV	0xfe, R0             	MOV	STK00, R0
0006cc   9803     MOV	R0, #0x3             	MOV	R0,# 0x03
0006cd   9f0e     MOV	R7, #0xe             	TRAPPC1	_delay_ms
0006ce   5f73     MOV	0x73, R7             	TRAPPC2	_delay_ms
0006cf   e00e     MOVP	#0x0E               	PAGESEL	_delay_ms
0006d0   de87     CALL	#0xe87              	CALL	_delay_ms
0006d1   9f06     MOV	R7, #0x6             	TRAPPC1	$+2
0006d2   5f73     MOV	0x73, R7             	TRAPPC2	$+1
0006d3   e006     MOVP	#0x06               	PAGESEL	$
0006d4   9f0e     MOV	R7, #0xe             	TRAPPC1	_Led_RT_Water100
0006d5   5f73     MOV	0x73, R7             	TRAPPC2	_Led_RT_Water100
0006d6   e00e     MOVP	#0x0E               	PAGESEL	_Led_RT_Water100
0006d7   dedb     CALL	#0xedb              	CALL	_Led_RT_Water100
0006d8   9f06     MOV	R7, #0x6             	TRAPPC1	$+2
0006d9   5f73     MOV	0x73, R7             	TRAPPC2	$+1
0006da   e006     MOVP	#0x06               	PAGESEL	$
0006db   98c8     MOV	R0, #0xc8            	MOV	R0,# 0xc8
0006dc   e100     MOVB	#0x00               	BANKSEL	STK00
0006dd   51fe     MOV	0xfe, R0             	MOV	STK00, R0
0006de   9800     MOV	R0, #0               	MOV	R0,# 0x00
0006df   9f0e     MOV	R7, #0xe             	TRAPPC1	_delay_ms
0006e0   5f73     MOV	0x73, R7             	TRAPPC2	_delay_ms
0006e1   e00e     MOVP	#0x0E               	PAGESEL	_delay_ms
0006e2   de87     CALL	#0xe87              	CALL	_delay_ms
0006e3   9f06     MOV	R7, #0x6             	TRAPPC1	$+2
0006e4   5f73     MOV	0x73, R7             	TRAPPC2	$+1
0006e5   e006     MOVP	#0x06               	PAGESEL	$
0006e6   9f0f     MOV	R7, #0xf             	TRAPPC1	_Led_RT_AllClose
0006e7   5f73     MOV	0x73, R7             	TRAPPC2	_Led_RT_AllClose
0006e8   e00f     MOVP	#0x0F               	PAGESEL	_Led_RT_AllClose
0006e9   df65     CALL	#0xf65              	CALL	_Led_RT_AllClose
0006ea   9f06     MOV	R7, #0x6             	TRAPPC1	$+2
0006eb   5f73     MOV	0x73, R7             	TRAPPC2	$+1
0006ec   e006     MOVP	#0x06               	PAGESEL	$
0006ed   98c8     MOV	R0, #0xc8            	MOV	R0,# 0xc8
0006ee   e100     MOVB	#0x00               	BANKSEL	STK00
0006ef   51fe     MOV	0xfe, R0             	MOV	STK00, R0
0006f0   9800     MOV	R0, #0               	MOV	R0,# 0x00
0006f1   9f0e     MOV	R7, #0xe             	TRAPPC1	_delay_ms
0006f2   5f73     MOV	0x73, R7             	TRAPPC2	_delay_ms
0006f3   e00e     MOVP	#0x0E               	PAGESEL	_delay_ms
0006f4   de87     CALL	#0xe87              	CALL	_delay_ms
0006f5   9f06     MOV	R7, #0x6             	TRAPPC1	$+2
0006f6   5f73     MOV	0x73, R7             	TRAPPC2	$+1
0006f7   e006     MOVP	#0x06               	PAGESEL	$
0006f8   9f05     MOV	R7, #0x5             	TRAPPC1	_Tail_LowWater_Blinky
0006f9   5f73     MOV	0x73, R7             	TRAPPC2	_Tail_LowWater_Blinky
0006fa   e005     MOVP	#0x05               	PAGESEL	_Tail_LowWater_Blinky
0006fb   d515     CALL	#0x515              	CALL	_Tail_LowWater_Blinky
0006fc   9f06     MOV	R7, #0x6             	TRAPPC1	$+2
0006fd   5f73     MOV	0x73, R7             	TRAPPC2	$+1
0006fe   e006     MOVP	#0x06               	PAGESEL	$
0006ff   98c8     MOV	R0, #0xc8            	MOV	R0,# 0xc8
000700   e100     MOVB	#0x00               	BANKSEL	STK00
000701   51fe     MOV	0xfe, R0             	MOV	STK00, R0
000702   9800     MOV	R0, #0               	MOV	R0,# 0x00
000703   9f0e     MOV	R7, #0xe             	TRAPPC1	_delay_ms
000704   5f73     MOV	0x73, R7             	TRAPPC2	_delay_ms
000705   e00e     MOVP	#0x0E               	PAGESEL	_delay_ms
000706   de87     CALL	#0xe87              	CALL	_delay_ms
000707   9f07     MOV	R7, #0x7             	TRAPPC1	$+2
000708   5f73     MOV	0x73, R7             	TRAPPC2	$+1
000709   e007     MOVP	#0x07               	PAGESEL	$
00070a   9f06     MOV	R7, #0x6             	TRAPPC1	_Tail1_2_Stop_BackWater_Close
00070b   5f73     MOV	0x73, R7             	TRAPPC2	_Tail1_2_Stop_BackWater_Close
00070c   e006     MOVP	#0x06               	PAGESEL	_Tail1_2_Stop_BackWater_Close
00070d   d639     CALL	#0x639              	CALL	_Tail1_2_Stop_BackWater_Close
00070e   9f07     MOV	R7, #0x7             	TRAPPC1	$+2
00070f   5f73     MOV	0x73, R7             	TRAPPC2	$+1
000710   e007     MOVP	#0x07               	PAGESEL	$
000711   9f0c     MOV	R7, #0xc             	TRAPPC1	_Tail12_Breath_CloseTo10
000712   5f73     MOV	0x73, R7             	TRAPPC2	_Tail12_Breath_CloseTo10
000713   e00c     MOVP	#0x0C               	PAGESEL	_Tail12_Breath_CloseTo10
000714   dc7f     CALL	#0xc7f              	CALL	_Tail12_Breath_CloseTo10
000715   9f07     MOV	R7, #0x7             	TRAPPC1	$+2
000716   5f73     MOV	0x73, R7             	TRAPPC2	$+1
000717   e007     MOVP	#0x07               	PAGESEL	$
000718   9f00     MOV	R7, #0               	TRAPPC1	_Tail1_2_Stop_FullWater_Close
000719   5f73     MOV	0x73, R7             	TRAPPC2	_Tail1_2_Stop_FullWater_Close
00071a   e000     MOVP	#0x00               	PAGESEL	_Tail1_2_Stop_FullWater_Close
00071b   d010     CALL	#0x10               	CALL	_Tail1_2_Stop_FullWater_Close
00071c   9f07     MOV	R7, #0x7             	TRAPPC1	$+2
00071d   5f73     MOV	0x73, R7             	TRAPPC2	$+1
00071e   e007     MOVP	#0x07               	PAGESEL	$
00071f   98d0     MOV	R0, #0xd0            	MOV	R0,# 0xd0
000720   e100     MOVB	#0x00               	BANKSEL	STK00
000721   51fe     MOV	0xfe, R0             	MOV	STK00, R0
000722   9807     MOV	R0, #0x7             	MOV	R0,# 0x07
000723   9f0e     MOV	R7, #0xe             	TRAPPC1	_delay_ms
000724   5f73     MOV	0x73, R7             	TRAPPC2	_delay_ms
000725   e00e     MOVP	#0x0E               	PAGESEL	_delay_ms
000726   de87     CALL	#0xe87              	CALL	_delay_ms
000727   9f07     MOV	R7, #0x7             	TRAPPC1	$+2
000728   5f73     MOV	0x73, R7             	TRAPPC2	$+1
000729   e007     MOVP	#0x07               	PAGESEL	$
00072a   9f0c     MOV	R7, #0xc             	TRAPPC1	_Tail12_Breath_Close
00072b   5f73     MOV	0x73, R7             	TRAPPC2	_Tail12_Breath_Close
00072c   e00c     MOVP	#0x0C               	PAGESEL	_Tail12_Breath_Close
00072d   dcba     CALL	#0xcba              	CALL	_Tail12_Breath_Close
00072e   9f07     MOV	R7, #0x7             	TRAPPC1	$+2
00072f   5f73     MOV	0x73, R7             	TRAPPC2	$+1
000730   e007     MOVP	#0x07               	PAGESEL	$
                                           _00273_DS_
000731   c731     JMP	#0x731               	JMP	_00273_DS_
000732   0008     CRET                     	CRET	
                                           func._Led_Hello	.code
                                           _Led_Hello	;Function start
0005af   9f0e     MOV	R7, #0xe             	TRAPPC1	_Led_RT_Water100
0005b0   5f73     MOV	0x73, R7             	TRAPPC2	_Led_RT_Water100
0005b1   e00e     MOVP	#0x0E               	PAGESEL	_Led_RT_Water100
0005b2   dedb     CALL	#0xedb              	CALL	_Led_RT_Water100
0005b3   9f05     MOV	R7, #0x5             	TRAPPC1	$+2
0005b4   5f73     MOV	0x73, R7             	TRAPPC2	$+1
0005b5   e005     MOVP	#0x05               	PAGESEL	$
0005b6   98c8     MOV	R0, #0xc8            	MOV	R0,# 0xc8
0005b7   e100     MOVB	#0x00               	BANKSEL	STK00
0005b8   51fe     MOV	0xfe, R0             	MOV	STK00, R0
0005b9   9800     MOV	R0, #0               	MOV	R0,# 0x00
0005ba   9f0e     MOV	R7, #0xe             	TRAPPC1	_delay_ms
0005bb   5f73     MOV	0x73, R7             	TRAPPC2	_delay_ms
0005bc   e00e     MOVP	#0x0E               	PAGESEL	_delay_ms
0005bd   de87     CALL	#0xe87              	CALL	_delay_ms
0005be   9f05     MOV	R7, #0x5             	TRAPPC1	$+2
0005bf   5f73     MOV	0x73, R7             	TRAPPC2	$+1
0005c0   e005     MOVP	#0x05               	PAGESEL	$
0005c1   9f0f     MOV	R7, #0xf             	TRAPPC1	_Led_RT_AllClose
0005c2   5f73     MOV	0x73, R7             	TRAPPC2	_Led_RT_AllClose
0005c3   e00f     MOVP	#0x0F               	PAGESEL	_Led_RT_AllClose
0005c4   df65     CALL	#0xf65              	CALL	_Led_RT_AllClose
0005c5   9f05     MOV	R7, #0x5             	TRAPPC1	$+2
0005c6   5f73     MOV	0x73, R7             	TRAPPC2	$+1
0005c7   e005     MOVP	#0x05               	PAGESEL	$
0005c8   982c     MOV	R0, #0x2c            	MOV	R0,# 0x2c
0005c9   e100     MOVB	#0x00               	BANKSEL	STK00
0005ca   51fe     MOV	0xfe, R0             	MOV	STK00, R0
0005cb   9801     MOV	R0, #0x1             	MOV	R0,# 0x01
0005cc   9f0e     MOV	R7, #0xe             	TRAPPC1	_delay_ms
0005cd   5f73     MOV	0x73, R7             	TRAPPC2	_delay_ms
0005ce   e00e     MOVP	#0x0E               	PAGESEL	_delay_ms
0005cf   de87     CALL	#0xe87              	CALL	_delay_ms
0005d0   9f05     MOV	R7, #0x5             	TRAPPC1	$+2
0005d1   5f73     MOV	0x73, R7             	TRAPPC2	$+1
0005d2   e005     MOVP	#0x05               	PAGESEL	$
0005d3   9f0e     MOV	R7, #0xe             	TRAPPC1	_Led_RT_Water100
0005d4   5f73     MOV	0x73, R7             	TRAPPC2	_Led_RT_Water100
0005d5   e00e     MOVP	#0x0E               	PAGESEL	_Led_RT_Water100
0005d6   dedb     CALL	#0xedb              	CALL	_Led_RT_Water100
0005d7   9f05     MOV	R7, #0x5             	TRAPPC1	$+2
0005d8   5f73     MOV	0x73, R7             	TRAPPC2	$+1
0005d9   e005     MOVP	#0x05               	PAGESEL	$
0005da   98c8     MOV	R0, #0xc8            	MOV	R0,# 0xc8
0005db   e100     MOVB	#0x00               	BANKSEL	STK00
0005dc   51fe     MOV	0xfe, R0             	MOV	STK00, R0
0005dd   9800     MOV	R0, #0               	MOV	R0,# 0x00
0005de   9f0e     MOV	R7, #0xe             	TRAPPC1	_delay_ms
0005df   5f73     MOV	0x73, R7             	TRAPPC2	_delay_ms
0005e0   e00e     MOVP	#0x0E               	PAGESEL	_delay_ms
0005e1   de87     CALL	#0xe87              	CALL	_delay_ms
0005e2   9f05     MOV	R7, #0x5             	TRAPPC1	$+2
0005e3   5f73     MOV	0x73, R7             	TRAPPC2	$+1
0005e4   e005     MOVP	#0x05               	PAGESEL	$
0005e5   9f0f     MOV	R7, #0xf             	TRAPPC1	_Led_RT_AllClose
0005e6   5f73     MOV	0x73, R7             	TRAPPC2	_Led_RT_AllClose
0005e7   e00f     MOVP	#0x0F               	PAGESEL	_Led_RT_AllClose
0005e8   df65     CALL	#0xf65              	CALL	_Led_RT_AllClose
0005e9   9f05     MOV	R7, #0x5             	TRAPPC1	$+2
0005ea   5f73     MOV	0x73, R7             	TRAPPC2	$+1
0005eb   e005     MOVP	#0x05               	PAGESEL	$
0005ec   982c     MOV	R0, #0x2c            	MOV	R0,# 0x2c
0005ed   e100     MOVB	#0x00               	BANKSEL	STK00
0005ee   51fe     MOV	0xfe, R0             	MOV	STK00, R0
0005ef   9801     MOV	R0, #0x1             	MOV	R0,# 0x01
0005f0   9f0e     MOV	R7, #0xe             	TRAPPC1	_delay_ms
0005f1   5f73     MOV	0x73, R7             	TRAPPC2	_delay_ms
0005f2   e00e     MOVP	#0x0E               	PAGESEL	_delay_ms
0005f3   de87     CALL	#0xe87              	CALL	_delay_ms
0005f4   9f05     MOV	R7, #0x5             	TRAPPC1	$+2
0005f5   5f73     MOV	0x73, R7             	TRAPPC2	$+1
0005f6   e005     MOVP	#0x05               	PAGESEL	$
0005f7   9f0c     MOV	R7, #0xc             	TRAPPC1	_Tail12_Breath_Open
0005f8   5f73     MOV	0x73, R7             	TRAPPC2	_Tail12_Breath_Open
0005f9   e00c     MOVP	#0x0C               	PAGESEL	_Tail12_Breath_Open
0005fa   dcf5     CALL	#0xcf5              	CALL	_Tail12_Breath_Open
0005fb   9f05     MOV	R7, #0x5             	TRAPPC1	$+2
0005fc   5f73     MOV	0x73, R7             	TRAPPC2	$+1
0005fd   e005     MOVP	#0x05               	PAGESEL	$
0005fe   98c8     MOV	R0, #0xc8            	MOV	R0,# 0xc8
0005ff   e100     MOVB	#0x00               	BANKSEL	STK00
000600   51fe     MOV	0xfe, R0             	MOV	STK00, R0
000601   9800     MOV	R0, #0               	MOV	R0,# 0x00
000602   9f0e     MOV	R7, #0xe             	TRAPPC1	_delay_ms
000603   5f73     MOV	0x73, R7             	TRAPPC2	_delay_ms
000604   e00e     MOVP	#0x0E               	PAGESEL	_delay_ms
000605   de87     CALL	#0xe87              	CALL	_delay_ms
000606   9f06     MOV	R7, #0x6             	TRAPPC1	$+2
000607   5f73     MOV	0x73, R7             	TRAPPC2	$+1
000608   e006     MOVP	#0x06               	PAGESEL	$
000609   9f09     MOV	R7, #0x9             	TRAPPC1	_Tail_LowWater_Open
00060a   5f73     MOV	0x73, R7             	TRAPPC2	_Tail_LowWater_Open
00060b   e009     MOVP	#0x09               	PAGESEL	_Tail_LowWater_Open
00060c   d943     CALL	#0x943              	CALL	_Tail_LowWater_Open
00060d   9f06     MOV	R7, #0x6             	TRAPPC1	$+2
00060e   5f73     MOV	0x73, R7             	TRAPPC2	$+1
00060f   e006     MOVP	#0x06               	PAGESEL	$
000610   982c     MOV	R0, #0x2c            	MOV	R0,# 0x2c
000611   e100     MOVB	#0x00               	BANKSEL	STK00
000612   51fe     MOV	0xfe, R0             	MOV	STK00, R0
000613   9801     MOV	R0, #0x1             	MOV	R0,# 0x01
000614   9f0e     MOV	R7, #0xe             	TRAPPC1	_delay_ms
000615   5f73     MOV	0x73, R7             	TRAPPC2	_delay_ms
000616   e00e     MOVP	#0x0E               	PAGESEL	_delay_ms
000617   de87     CALL	#0xe87              	CALL	_delay_ms
000618   9f06     MOV	R7, #0x6             	TRAPPC1	$+2
000619   5f73     MOV	0x73, R7             	TRAPPC2	$+1
00061a   e006     MOVP	#0x06               	PAGESEL	$
00061b   9f04     MOV	R7, #0x4             	TRAPPC1	_Tail_HighWater_Open
00061c   5f73     MOV	0x73, R7             	TRAPPC2	_Tail_HighWater_Open
00061d   e004     MOVP	#0x04               	PAGESEL	_Tail_HighWater_Open
00061e   d477     CALL	#0x477              	CALL	_Tail_HighWater_Open
00061f   9f06     MOV	R7, #0x6             	TRAPPC1	$+2
000620   5f73     MOV	0x73, R7             	TRAPPC2	$+1
000621   e006     MOVP	#0x06               	PAGESEL	$
000622   9f08     MOV	R7, #0x8             	TRAPPC1	_Stop_HighBackWater_Open
000623   5f73     MOV	0x73, R7             	TRAPPC2	_Stop_HighBackWater_Open
000624   e008     MOVP	#0x08               	PAGESEL	_Stop_HighBackWater_Open
000625   d8e2     CALL	#0x8e2              	CALL	_Stop_HighBackWater_Open
000626   9f06     MOV	R7, #0x6             	TRAPPC1	$+2
000627   5f73     MOV	0x73, R7             	TRAPPC2	$+1
000628   e006     MOVP	#0x06               	PAGESEL	$
000629   9f0e     MOV	R7, #0xe             	TRAPPC1	_Tail1_FullBackWater_Open
00062a   5f73     MOV	0x73, R7             	TRAPPC2	_Tail1_FullBackWater_Open
00062b   e00e     MOVP	#0x0E               	PAGESEL	_Tail1_FullBackWater_Open
00062c   de33     CALL	#0xe33              	CALL	_Tail1_FullBackWater_Open
00062d   9f06     MOV	R7, #0x6             	TRAPPC1	$+2
00062e   5f73     MOV	0x73, R7             	TRAPPC2	$+1
00062f   e006     MOVP	#0x06               	PAGESEL	$
000630   9f0a     MOV	R7, #0xa             	TRAPPC1	_Tail2_Stop_FullWater_Open
000631   5f73     MOV	0x73, R7             	TRAPPC2	_Tail2_Stop_FullWater_Open
000632   e00a     MOVP	#0x0A               	PAGESEL	_Tail2_Stop_FullWater_Open
000633   da4b     CALL	#0xa4b              	CALL	_Tail2_Stop_FullWater_Open
000634   9f06     MOV	R7, #0x6             	TRAPPC1	$+2
000635   5f73     MOV	0x73, R7             	TRAPPC2	$+1
000636   e006     MOVP	#0x06               	PAGESEL	$
                                           _00267_DS_
000637   c637     JMP	#0x637               	JMP	_00267_DS_
000638   0008     CRET                     	CRET	
                                           func._RT_Timer_PWM_Callback	.code
                                           _RT_Timer_PWM_Callback	;Function start
000e01   9800     MOV	R0, #0               	MOV	R0,# 0x00
000e02   e100     MOVB	#0x00               	BANKSEL	_RT_Timer_Flag
000e03   3096     ORL	R0, 0x96             	ORL	R0, _RT_Timer_Flag
000e04   7203     JNB	0x3, 2               	JNB	PSW, 2
000e05   ce1c     JMP	#0xe1c               	JMP	_00255_DS_
                                           	BANKSEL	_RT_Timer_Flag
000e06   0396     CLR	0x96                 	CLR	_RT_Timer_Flag
                                           	BANKSEL	_T2CTL0_bits
000e07   6212     CLR	0x12, 2              	CLR	_T2CTL0_bits, 2
000e08   9802     MOV	R0, #0x2             	MOV	R0,# 0x02
                                           	BANKSEL	_PP60H
000e09   5142     MOV	0x42, R0             	MOV	_PP60H, R0
000e0a   9826     MOV	R0, #0x26            	MOV	R0,# 0x26
                                           	BANKSEL	_PP60L
000e0b   5152     MOV	0x52, R0             	MOV	_PP60L, R0
                                           	BANKSEL	_T2CTL0_bits
000e0c   6a12     SET	0x12, 2              	SET	_T2CTL0_bits, 2
                                           	BANKSEL	_RT_High_Addr
000e0d   78e1     JB	0xe1, 0               	JB	_RT_High_Addr, 0
000e0e   ce11     JMP	#0xe11               	JMP	_00302_DS_
000e0f   e101     MOVB	#0x01               	BANKSEL	_P6LR_bits
000e10   6646     CLR	0x46, 6              	CLR	_P6LR_bits, 6
                                           _00302_DS_
000e11   e100     MOVB	#0x00               	BANKSEL	_RT_High_Addr
000e12   79e1     JB	0xe1, 1               	JB	_RT_High_Addr, 1
000e13   ce16     JMP	#0xe16               	JMP	_00303_DS_
000e14   e101     MOVB	#0x01               	BANKSEL	_P6LR_bits
000e15   6546     CLR	0x46, 5              	CLR	_P6LR_bits, 5
                                           _00303_DS_
000e16   e100     MOVB	#0x00               	BANKSEL	_RT_High_Addr
000e17   7ae1     JB	0xe1, 2               	JB	_RT_High_Addr, 2
000e18   ce32     JMP	#0xe32               	JMP	_00257_DS_
000e19   e101     MOVB	#0x01               	BANKSEL	_P6LR_bits
000e1a   6346     CLR	0x46, 3              	CLR	_P6LR_bits, 3
000e1b   ce32     JMP	#0xe32               	JMP	_00257_DS_
                                           _00255_DS_
000e1c   9801     MOV	R0, #0x1             	MOV	R0,# 0x01
                                           	BANKSEL	_RT_Timer_Flag
000e1d   5196     MOV	0x96, R0             	MOV	_RT_Timer_Flag, R0
                                           	BANKSEL	_T2CTL0_bits
000e1e   6212     CLR	0x12, 2              	CLR	_T2CTL0_bits, 2
000e1f   9801     MOV	R0, #0x1             	MOV	R0,# 0x01
                                           	BANKSEL	_PP60H
000e20   5142     MOV	0x42, R0             	MOV	_PP60H, R0
000e21   98c2     MOV	R0, #0xc2            	MOV	R0,# 0xc2
                                           	BANKSEL	_PP60L
000e22   5152     MOV	0x52, R0             	MOV	_PP60L, R0
                                           	BANKSEL	_T2CTL0_bits
000e23   6a12     SET	0x12, 2              	SET	_T2CTL0_bits, 2
                                           	BANKSEL	_RT_Low_Addr
000e24   78df     JB	0xdf, 0               	JB	_RT_Low_Addr, 0
000e25   ce28     JMP	#0xe28               	JMP	_00304_DS_
000e26   e101     MOVB	#0x01               	BANKSEL	_P6LR_bits
000e27   6e46     SET	0x46, 6              	SET	_P6LR_bits, 6
                                           _00304_DS_
000e28   e100     MOVB	#0x00               	BANKSEL	_RT_Low_Addr
000e29   79df     JB	0xdf, 1               	JB	_RT_Low_Addr, 1
000e2a   ce2d     JMP	#0xe2d               	JMP	_00305_DS_
000e2b   e101     MOVB	#0x01               	BANKSEL	_P6LR_bits
000e2c   6d46     SET	0x46, 5              	SET	_P6LR_bits, 5
                                           _00305_DS_
000e2d   e100     MOVB	#0x00               	BANKSEL	_RT_Low_Addr
000e2e   7adf     JB	0xdf, 2               	JB	_RT_Low_Addr, 2
000e2f   ce32     JMP	#0xe32               	JMP	_00257_DS_
000e30   e101     MOVB	#0x01               	BANKSEL	_P6LR_bits
000e31   6b46     SET	0x46, 3              	SET	_P6LR_bits, 3
                                           _00257_DS_
000e32   0008     CRET                     	CRET	
                                           func._Timer_PWM_Callback	.code
                                           _Timer_PWM_Callback	;Function start
000c43   9800     MOV	R0, #0               	MOV	R0,# 0x00
000c44   e100     MOVB	#0x00               	BANKSEL	_PWM_Timer_Flag
000c45   3097     ORL	R0, 0x97             	ORL	R0, _PWM_Timer_Flag
000c46   7203     JNB	0x3, 2               	JNB	PSW, 2
000c47   cc63     JMP	#0xc63               	JMP	_00227_DS_
                                           	BANKSEL	_PWM_Timer_Flag
000c48   0397     CLR	0x97                 	CLR	_PWM_Timer_Flag
000c49   9800     MOV	R0, #0               	MOV	R0,# 0x00
                                           	BANKSEL	_RT_Timer_PWM_Flag
000c4a   3085     ORL	R0, 0x85             	ORL	R0, _RT_Timer_PWM_Flag
000c4b   7203     JNB	0x3, 2               	JNB	PSW, 2
000c4c   cc52     JMP	#0xc52               	JMP	_00205_DS_
000c4d   98bc     MOV	R0, #0xbc            	MOV	R0,# 0xbc
                                           	BANKSEL	_T1H
000c4e   510f     MOV	0xf, R0              	MOV	_T1H, R0
000c4f   9858     MOV	R0, #0x58            	MOV	R0,# 0x58
                                           	BANKSEL	_T1L
000c50   510e     MOV	0xe, R0              	MOV	_T1L, R0
000c51   cc56     JMP	#0xc56               	JMP	_00206_DS_
                                           _00205_DS_
000c52   98b9     MOV	R0, #0xb9            	MOV	R0,# 0xb9
                                           	BANKSEL	_T1H
000c53   510f     MOV	0xf, R0              	MOV	_T1H, R0
000c54   98b0     MOV	R0, #0xb0            	MOV	R0,# 0xb0
                                           	BANKSEL	_T1L
000c55   510e     MOV	0xe, R0              	MOV	_T1L, R0
                                           _00206_DS_
                                           	BANKSEL	_Stop_High_Addr
000c56   78e3     JB	0xe3, 0               	JB	_Stop_High_Addr, 0
000c57   cc59     JMP	#0xc59               	JMP	_00208_DS_
                                           	BANKSEL	_P2LR_bits
000c58   6346     CLR	0x46, 3              	CLR	_P2LR_bits, 3
                                           _00208_DS_
                                           	BANKSEL	_Stop_High_Addr
000c59   79e3     JB	0xe3, 1               	JB	_Stop_High_Addr, 1
000c5a   cc5c     JMP	#0xc5c               	JMP	_00210_DS_
                                           	BANKSEL	_P2LR_bits
000c5b   6446     CLR	0x46, 4              	CLR	_P2LR_bits, 4
                                           _00210_DS_
                                           	BANKSEL	_Stop_High_Addr
000c5c   7ae3     JB	0xe3, 2               	JB	_Stop_High_Addr, 2
000c5d   cc5f     JMP	#0xc5f               	JMP	_00212_DS_
                                           	BANKSEL	_P2LR_bits
000c5e   6046     CLR	0x46, 0              	CLR	_P2LR_bits, 0
                                           _00212_DS_
                                           	BANKSEL	_Stop_High_Addr
000c5f   7be3     JB	0xe3, 3               	JB	_Stop_High_Addr, 3
000c60   cc7e     JMP	#0xc7e               	JMP	_00229_DS_
                                           	BANKSEL	_P2LR_bits
000c61   6146     CLR	0x46, 1              	CLR	_P2LR_bits, 1
000c62   cc7e     JMP	#0xc7e               	JMP	_00229_DS_
                                           _00227_DS_
000c63   9801     MOV	R0, #0x1             	MOV	R0,# 0x01
                                           	BANKSEL	_PWM_Timer_Flag
000c64   5197     MOV	0x97, R0             	MOV	_PWM_Timer_Flag, R0
000c65   9800     MOV	R0, #0               	MOV	R0,# 0x00
                                           	BANKSEL	_RT_Timer_PWM_Flag
000c66   3085     ORL	R0, 0x85             	ORL	R0, _RT_Timer_PWM_Flag
000c67   7203     JNB	0x3, 2               	JNB	PSW, 2
000c68   cc6e     JMP	#0xc6e               	JMP	_00216_DS_
000c69   98fc     MOV	R0, #0xfc            	MOV	R0,# 0xfc
                                           	BANKSEL	_T1H
000c6a   510f     MOV	0xf, R0              	MOV	_T1H, R0
000c6b   9818     MOV	R0, #0x18            	MOV	R0,# 0x18
                                           	BANKSEL	_T1L
000c6c   510e     MOV	0xe, R0              	MOV	_T1L, R0
000c6d   cc72     JMP	#0xc72               	JMP	_00217_DS_
                                           _00216_DS_
000c6e   98f8     MOV	R0, #0xf8            	MOV	R0,# 0xf8
                                           	BANKSEL	_T1H
000c6f   510f     MOV	0xf, R0              	MOV	_T1H, R0
000c70   9830     MOV	R0, #0x30            	MOV	R0,# 0x30
                                           	BANKSEL	_T1L
000c71   510e     MOV	0xe, R0              	MOV	_T1L, R0
                                           _00217_DS_
                                           	BANKSEL	_Stop_Low_Addr
000c72   78cb     JB	0xcb, 0               	JB	_Stop_Low_Addr, 0
000c73   cc75     JMP	#0xc75               	JMP	_00219_DS_
                                           	BANKSEL	_P2LR_bits
000c74   6b46     SET	0x46, 3              	SET	_P2LR_bits, 3
                                           _00219_DS_
                                           	BANKSEL	_Stop_Low_Addr
000c75   79cb     JB	0xcb, 1               	JB	_Stop_Low_Addr, 1
000c76   cc78     JMP	#0xc78               	JMP	_00221_DS_
                                           	BANKSEL	_P2LR_bits
000c77   6c46     SET	0x46, 4              	SET	_P2LR_bits, 4
                                           _00221_DS_
                                           	BANKSEL	_Stop_Low_Addr
000c78   7acb     JB	0xcb, 2               	JB	_Stop_Low_Addr, 2
000c79   cc7b     JMP	#0xc7b               	JMP	_00223_DS_
                                           	BANKSEL	_P2LR_bits
000c7a   6846     SET	0x46, 0              	SET	_P2LR_bits, 0
                                           _00223_DS_
                                           	BANKSEL	_Stop_Low_Addr
000c7b   7bcb     JB	0xcb, 3               	JB	_Stop_Low_Addr, 3
000c7c   cc7e     JMP	#0xc7e               	JMP	_00229_DS_
                                           	BANKSEL	_P2LR_bits
000c7d   6946     SET	0x46, 1              	SET	_P2LR_bits, 1
                                           _00229_DS_
000c7e   0008     CRET                     	CRET	
                                           func._Mode_Act	.code
                                           _Mode_Act	;Function start
000733   e100     MOVB	#0x00               	BANKSEL	_ActMode
000734   0ed3     MOVZ	R0, 0xd3            	MOVZ	R0, _ActMode
000735   a801     XOR	R0, #0x1             	XOR	R0,# 0x01
000736   7a03     JB	0x3, 2                	JB	PSW, 2
000737   c73c     JMP	#0x73c               	JMP	_00199_DS_
                                           	BANKSEL	_ActMode
000738   0ed4     MOVZ	R0, 0xd4            	MOVZ	R0, (_ActMode + 1)
000739   a800     XOR	R0, #0               	XOR	R0,# 0x00
00073a   7203     JNB	0x3, 2               	JNB	PSW, 2
00073b   c75d     JMP	#0x75d               	JMP	_00185_DS_
                                           _00199_DS_
                                           	BANKSEL	_ActMode
00073c   0ed3     MOVZ	R0, 0xd3            	MOVZ	R0, _ActMode
00073d   a802     XOR	R0, #0x2             	XOR	R0,# 0x02
00073e   7a03     JB	0x3, 2                	JB	PSW, 2
00073f   c744     JMP	#0x744               	JMP	_00200_DS_
                                           	BANKSEL	_ActMode
000740   0ed4     MOVZ	R0, 0xd4            	MOVZ	R0, (_ActMode + 1)
000741   a800     XOR	R0, #0               	XOR	R0,# 0x00
000742   7203     JNB	0x3, 2               	JNB	PSW, 2
000743   c76c     JMP	#0x76c               	JMP	_00186_DS_
                                           _00200_DS_
                                           	BANKSEL	_ActMode
000744   0ed3     MOVZ	R0, 0xd3            	MOVZ	R0, _ActMode
000745   a804     XOR	R0, #0x4             	XOR	R0,# 0x04
000746   7a03     JB	0x3, 2                	JB	PSW, 2
000747   c74c     JMP	#0x74c               	JMP	_00201_DS_
                                           	BANKSEL	_ActMode
000748   0ed4     MOVZ	R0, 0xd4            	MOVZ	R0, (_ActMode + 1)
000749   a800     XOR	R0, #0               	XOR	R0,# 0x00
00074a   7203     JNB	0x3, 2               	JNB	PSW, 2
00074b   c77b     JMP	#0x77b               	JMP	_00187_DS_
                                           _00201_DS_
                                           	BANKSEL	_ActMode
00074c   0ed3     MOVZ	R0, 0xd3            	MOVZ	R0, _ActMode
00074d   a808     XOR	R0, #0x8             	XOR	R0,# 0x08
00074e   7a03     JB	0x3, 2                	JB	PSW, 2
00074f   c754     JMP	#0x754               	JMP	_00202_DS_
                                           	BANKSEL	_ActMode
000750   0ed4     MOVZ	R0, 0xd4            	MOVZ	R0, (_ActMode + 1)
000751   a800     XOR	R0, #0               	XOR	R0,# 0x00
000752   7203     JNB	0x3, 2               	JNB	PSW, 2
000753   c78a     JMP	#0x78a               	JMP	_00188_DS_
                                           _00202_DS_
                                           	BANKSEL	_ActMode
000754   0ed3     MOVZ	R0, 0xd3            	MOVZ	R0, _ActMode
000755   a810     XOR	R0, #0x10            	XOR	R0,# 0x10
000756   7a03     JB	0x3, 2                	JB	PSW, 2
000757   c75c     JMP	#0x75c               	JMP	_00203_DS_
                                           	BANKSEL	_ActMode
000758   0ed4     MOVZ	R0, 0xd4            	MOVZ	R0, (_ActMode + 1)
000759   a800     XOR	R0, #0               	XOR	R0,# 0x00
00075a   7203     JNB	0x3, 2               	JNB	PSW, 2
00075b   c799     JMP	#0x799               	JMP	_00189_DS_
                                           _00203_DS_
00075c   c7a7     JMP	#0x7a7               	JMP	_00192_DS_
                                           _00185_DS_
00075d   9f0b     MOV	R7, #0xb             	TRAPPC1	_Led_Tail_AllClose
00075e   5f73     MOV	0x73, R7             	TRAPPC2	_Led_Tail_AllClose
00075f   e00b     MOVP	#0x0B               	PAGESEL	_Led_Tail_AllClose
000760   db30     CALL	#0xb30              	CALL	_Led_Tail_AllClose
000761   9f07     MOV	R7, #0x7             	TRAPPC1	$+2
000762   5f73     MOV	0x73, R7             	TRAPPC2	$+1
000763   e007     MOVP	#0x07               	PAGESEL	$
000764   9f0f     MOV	R7, #0xf             	TRAPPC1	_LED_Stop_AllClose
000765   5f73     MOV	0x73, R7             	TRAPPC2	_LED_Stop_AllClose
000766   e00f     MOVP	#0x0F               	PAGESEL	_LED_Stop_AllClose
000767   df90     CALL	#0xf90              	CALL	_LED_Stop_AllClose
000768   9f07     MOV	R7, #0x7             	TRAPPC1	$+2
000769   5f73     MOV	0x73, R7             	TRAPPC2	$+1
00076a   e007     MOVP	#0x07               	PAGESEL	$
00076b   c7a7     JMP	#0x7a7               	JMP	_00192_DS_
                                           _00186_DS_
00076c   9f0b     MOV	R7, #0xb             	TRAPPC1	_Led_Tail_55Open
00076d   5f73     MOV	0x73, R7             	TRAPPC2	_Led_Tail_55Open
00076e   e00b     MOVP	#0x0B               	PAGESEL	_Led_Tail_55Open
00076f   db76     CALL	#0xb76              	CALL	_Led_Tail_55Open
000770   9f07     MOV	R7, #0x7             	TRAPPC1	$+2
000771   5f73     MOV	0x73, R7             	TRAPPC2	$+1
000772   e007     MOVP	#0x07               	PAGESEL	$
000773   9f0f     MOV	R7, #0xf             	TRAPPC1	_LED_Stop_PWM5Open
000774   5f73     MOV	0x73, R7             	TRAPPC2	_LED_Stop_PWM5Open
000775   e00f     MOVP	#0x0F               	PAGESEL	_LED_Stop_PWM5Open
000776   df46     CALL	#0xf46              	CALL	_LED_Stop_PWM5Open
000777   9f07     MOV	R7, #0x7             	TRAPPC1	$+2
000778   5f73     MOV	0x73, R7             	TRAPPC2	$+1
000779   e007     MOVP	#0x07               	PAGESEL	$
00077a   c7a7     JMP	#0x7a7               	JMP	_00192_DS_
                                           _00187_DS_
00077b   9f0b     MOV	R7, #0xb             	TRAPPC1	_Led_Tail_55Open
00077c   5f73     MOV	0x73, R7             	TRAPPC2	_Led_Tail_55Open
00077d   e00b     MOVP	#0x0B               	PAGESEL	_Led_Tail_55Open
00077e   db76     CALL	#0xb76              	CALL	_Led_Tail_55Open
00077f   9f07     MOV	R7, #0x7             	TRAPPC1	$+2
000780   5f73     MOV	0x73, R7             	TRAPPC2	$+1
000781   e007     MOVP	#0x07               	PAGESEL	$
000782   9f0f     MOV	R7, #0xf             	TRAPPC1	_LED_Stop_PWM10Open
000783   5f73     MOV	0x73, R7             	TRAPPC2	_LED_Stop_PWM10Open
000784   e00f     MOVP	#0x0F               	PAGESEL	_LED_Stop_PWM10Open
000785   df5b     CALL	#0xf5b              	CALL	_LED_Stop_PWM10Open
000786   9f07     MOV	R7, #0x7             	TRAPPC1	$+2
000787   5f73     MOV	0x73, R7             	TRAPPC2	$+1
000788   e007     MOVP	#0x07               	PAGESEL	$
000789   c7a7     JMP	#0x7a7               	JMP	_00192_DS_
                                           _00188_DS_
00078a   9f0b     MOV	R7, #0xb             	TRAPPC1	_Led_Tail_AllClose
00078b   5f73     MOV	0x73, R7             	TRAPPC2	_Led_Tail_AllClose
00078c   e00b     MOVP	#0x0B               	PAGESEL	_Led_Tail_AllClose
00078d   db30     CALL	#0xb30              	CALL	_Led_Tail_AllClose
00078e   9f07     MOV	R7, #0x7             	TRAPPC1	$+2
00078f   5f73     MOV	0x73, R7             	TRAPPC2	$+1
000790   e007     MOVP	#0x07               	PAGESEL	$
000791   9f0f     MOV	R7, #0xf             	TRAPPC1	_LED_Stop_AllOpen
000792   5f73     MOV	0x73, R7             	TRAPPC2	_LED_Stop_AllOpen
000793   e00f     MOVP	#0x0F               	PAGESEL	_LED_Stop_AllOpen
000794   df97     CALL	#0xf97              	CALL	_LED_Stop_AllOpen
000795   9f07     MOV	R7, #0x7             	TRAPPC1	$+2
000796   5f73     MOV	0x73, R7             	TRAPPC2	$+1
000797   e007     MOVP	#0x07               	PAGESEL	$
000798   c7a7     JMP	#0x7a7               	JMP	_00192_DS_
                                           _00189_DS_
000799   9f0b     MOV	R7, #0xb             	TRAPPC1	_Led_Tail_55Open
00079a   5f73     MOV	0x73, R7             	TRAPPC2	_Led_Tail_55Open
00079b   e00b     MOVP	#0x0B               	PAGESEL	_Led_Tail_55Open
00079c   db76     CALL	#0xb76              	CALL	_Led_Tail_55Open
00079d   9f07     MOV	R7, #0x7             	TRAPPC1	$+2
00079e   5f73     MOV	0x73, R7             	TRAPPC2	$+1
00079f   e007     MOVP	#0x07               	PAGESEL	$
0007a0   9f0f     MOV	R7, #0xf             	TRAPPC1	_LED_Stop_AllOpen
0007a1   5f73     MOV	0x73, R7             	TRAPPC2	_LED_Stop_AllOpen
0007a2   e00f     MOVP	#0x0F               	PAGESEL	_LED_Stop_AllOpen
0007a3   df97     CALL	#0xf97              	CALL	_LED_Stop_AllOpen
0007a4   9f07     MOV	R7, #0x7             	TRAPPC1	$+2
0007a5   5f73     MOV	0x73, R7             	TRAPPC2	$+1
0007a6   e007     MOVP	#0x07               	PAGESEL	$
                                           _00192_DS_
0007a7   0008     CRET                     	CRET	
                                           func._Tail_Stop_Check_Input	.code
                                           _Tail_Stop_Check_Input	;Function start
0003b9   e100     MOVB	#0x00               	BANKSEL	r0x102F
0003ba   0387     CLR	0x87                 	CLR	r0x102F
0003bb   e101     MOVB	#0x01               	BANKSEL	_P7_bits
0003bc   7907     JB	0x7, 1                	JB	_P7_bits, 1
0003bd   c3c0     JMP	#0x3c0               	JMP	_00306_DS_
0003be   e100     MOVB	#0x00               	BANKSEL	r0x102F
0003bf   0b87     INC	0x87                 	INC	r0x102F
                                           _00306_DS_
0003c0   e100     MOVB	#0x00               	BANKSEL	r0x102F
0003c1   0e87     MOVZ	R0, 0x87            	MOVZ	R0, r0x102F
                                           	BANKSEL	_Tail_Status
0003c2   5195     MOV	0x95, R0             	MOV	_Tail_Status, R0
                                           	BANKSEL	r0x102F
0003c3   0387     CLR	0x87                 	CLR	r0x102F
0003c4   e101     MOVB	#0x01               	BANKSEL	_P7_bits
0003c5   7a07     JB	0x7, 2                	JB	_P7_bits, 2
0003c6   c3c9     JMP	#0x3c9               	JMP	_00307_DS_
0003c7   e100     MOVB	#0x00               	BANKSEL	r0x102F
0003c8   0b87     INC	0x87                 	INC	r0x102F
                                           _00307_DS_
0003c9   e100     MOVB	#0x00               	BANKSEL	r0x102F
0003ca   0e87     MOVZ	R0, 0x87            	MOVZ	R0, r0x102F
                                           	BANKSEL	_Stop_Status
0003cb   5194     MOV	0x94, R0             	MOV	_Stop_Status, R0
                                           	BANKSEL	r0x102F
0003cc   0387     CLR	0x87                 	CLR	r0x102F
                                           	BANKSEL	_P1_bits
0003cd   7807     JB	0x7, 0                	JB	_P1_bits, 0
0003ce   c3d0     JMP	#0x3d0               	JMP	_00308_DS_
                                           	BANKSEL	r0x102F
0003cf   0b87     INC	0x87                 	INC	r0x102F
                                           _00308_DS_
                                           	BANKSEL	r0x102F
0003d0   0e87     MOVZ	R0, 0x87            	MOVZ	R0, r0x102F
                                           	BANKSEL	_LOW_EN_Status
0003d1   5184     MOV	0x84, R0             	MOV	_LOW_EN_Status, R0
0003d2   9800     MOV	R0, #0               	MOV	R0,# 0x00
                                           	BANKSEL	_Tail_Status
0003d3   3095     ORL	R0, 0x95             	ORL	R0, _Tail_Status
0003d4   7a03     JB	0x3, 2                	JB	PSW, 2
0003d5   c3f0     JMP	#0x3f0               	JMP	_00163_DS_
0003d6   9800     MOV	R0, #0               	MOV	R0,# 0x00
                                           	BANKSEL	_Stop_Status
0003d7   3094     ORL	R0, 0x94             	ORL	R0, _Stop_Status
0003d8   7a03     JB	0x3, 2                	JB	PSW, 2
0003d9   c3f0     JMP	#0x3f0               	JMP	_00163_DS_
                                           	BANKSEL	_NowMode
0003da   0ed5     MOVZ	R0, 0xd5            	MOVZ	R0, _NowMode
                                           	BANKSEL	_PastMode
0003db   51d7     MOV	0xd7, R0             	MOV	_PastMode, R0
                                           	BANKSEL	_NowMode
0003dc   0ed6     MOVZ	R0, 0xd6            	MOVZ	R0, (_NowMode + 1)
                                           	BANKSEL	_PastMode
0003dd   51d8     MOV	0xd8, R0             	MOV	(_PastMode + 1), R0
0003de   9801     MOV	R0, #0x1             	MOV	R0,# 0x01
                                           	BANKSEL	_NowMode
0003df   51d5     MOV	0xd5, R0             	MOV	_NowMode, R0
                                           	BANKSEL	_NowMode
0003e0   03d6     CLR	0xd6                 	CLR	(_NowMode + 1)
                                           	BANKSEL	_PastMode
0003e1   0ed7     MOVZ	R0, 0xd7            	MOVZ	R0, _PastMode
0003e2   a801     XOR	R0, #0x1             	XOR	R0,# 0x01
0003e3   7a03     JB	0x3, 2                	JB	PSW, 2
0003e4   c3ec     JMP	#0x3ec               	JMP	_00131_DS_
                                           	BANKSEL	_PastMode
0003e5   0ed8     MOVZ	R0, 0xd8            	MOVZ	R0, (_PastMode + 1)
0003e6   a800     XOR	R0, #0               	XOR	R0,# 0x00
0003e7   7a03     JB	0x3, 2                	JB	PSW, 2
0003e8   c3ec     JMP	#0x3ec               	JMP	_00131_DS_
                                           	BANKSEL	_ActMode
0003e9   03d3     CLR	0xd3                 	CLR	_ActMode
                                           	BANKSEL	_ActMode
0003ea   03d4     CLR	0xd4                 	CLR	(_ActMode + 1)
0003eb   c46f     JMP	#0x46f               	JMP	_00164_DS_
                                           _00131_DS_
0003ec   9801     MOV	R0, #0x1             	MOV	R0,# 0x01
                                           	BANKSEL	_ActMode
0003ed   51d3     MOV	0xd3, R0             	MOV	_ActMode, R0
                                           	BANKSEL	_ActMode
0003ee   03d4     CLR	0xd4                 	CLR	(_ActMode + 1)
0003ef   c46f     JMP	#0x46f               	JMP	_00164_DS_
                                           _00163_DS_
                                           	BANKSEL	_Tail_Status
0003f0   0e95     MOVZ	R0, 0x95            	MOVZ	R0, _Tail_Status
0003f1   a801     XOR	R0, #0x1             	XOR	R0,# 0x01
0003f2   7a03     JB	0x3, 2                	JB	PSW, 2
0003f3   c412     JMP	#0x412               	JMP	_00158_DS_
0003f4   9800     MOV	R0, #0               	MOV	R0,# 0x00
                                           	BANKSEL	_Stop_Status
0003f5   3094     ORL	R0, 0x94             	ORL	R0, _Stop_Status
0003f6   7a03     JB	0x3, 2                	JB	PSW, 2
0003f7   c412     JMP	#0x412               	JMP	_00158_DS_
                                           	BANKSEL	_LOW_EN_Status
0003f8   0e84     MOVZ	R0, 0x84            	MOVZ	R0, _LOW_EN_Status
0003f9   a801     XOR	R0, #0x1             	XOR	R0,# 0x01
0003fa   7a03     JB	0x3, 2                	JB	PSW, 2
0003fb   c412     JMP	#0x412               	JMP	_00158_DS_
                                           	BANKSEL	_NowMode
0003fc   0ed5     MOVZ	R0, 0xd5            	MOVZ	R0, _NowMode
                                           	BANKSEL	_PastMode
0003fd   51d7     MOV	0xd7, R0             	MOV	_PastMode, R0
                                           	BANKSEL	_NowMode
0003fe   0ed6     MOVZ	R0, 0xd6            	MOVZ	R0, (_NowMode + 1)
                                           	BANKSEL	_PastMode
0003ff   51d8     MOV	0xd8, R0             	MOV	(_PastMode + 1), R0
000400   9802     MOV	R0, #0x2             	MOV	R0,# 0x02
                                           	BANKSEL	_NowMode
000401   51d5     MOV	0xd5, R0             	MOV	_NowMode, R0
                                           	BANKSEL	_NowMode
000402   03d6     CLR	0xd6                 	CLR	(_NowMode + 1)
                                           	BANKSEL	_PastMode
000403   0ed7     MOVZ	R0, 0xd7            	MOVZ	R0, _PastMode
000404   a802     XOR	R0, #0x2             	XOR	R0,# 0x02
000405   7a03     JB	0x3, 2                	JB	PSW, 2
000406   c40e     JMP	#0x40e               	JMP	_00134_DS_
                                           	BANKSEL	_PastMode
000407   0ed8     MOVZ	R0, 0xd8            	MOVZ	R0, (_PastMode + 1)
000408   a800     XOR	R0, #0               	XOR	R0,# 0x00
000409   7a03     JB	0x3, 2                	JB	PSW, 2
00040a   c40e     JMP	#0x40e               	JMP	_00134_DS_
                                           	BANKSEL	_ActMode
00040b   03d3     CLR	0xd3                 	CLR	_ActMode
                                           	BANKSEL	_ActMode
00040c   03d4     CLR	0xd4                 	CLR	(_ActMode + 1)
00040d   c46f     JMP	#0x46f               	JMP	_00164_DS_
                                           _00134_DS_
00040e   9802     MOV	R0, #0x2             	MOV	R0,# 0x02
                                           	BANKSEL	_ActMode
00040f   51d3     MOV	0xd3, R0             	MOV	_ActMode, R0
                                           	BANKSEL	_ActMode
000410   03d4     CLR	0xd4                 	CLR	(_ActMode + 1)
000411   c46f     JMP	#0x46f               	JMP	_00164_DS_
                                           _00158_DS_
                                           	BANKSEL	_Tail_Status
000412   0e95     MOVZ	R0, 0x95            	MOVZ	R0, _Tail_Status
000413   a801     XOR	R0, #0x1             	XOR	R0,# 0x01
000414   7a03     JB	0x3, 2                	JB	PSW, 2
000415   c434     JMP	#0x434               	JMP	_00153_DS_
000416   9800     MOV	R0, #0               	MOV	R0,# 0x00
                                           	BANKSEL	_Stop_Status
000417   3094     ORL	R0, 0x94             	ORL	R0, _Stop_Status
000418   7a03     JB	0x3, 2                	JB	PSW, 2
000419   c434     JMP	#0x434               	JMP	_00153_DS_
00041a   9800     MOV	R0, #0               	MOV	R0,# 0x00
                                           	BANKSEL	_LOW_EN_Status
00041b   3084     ORL	R0, 0x84             	ORL	R0, _LOW_EN_Status
00041c   7a03     JB	0x3, 2                	JB	PSW, 2
00041d   c434     JMP	#0x434               	JMP	_00153_DS_
                                           	BANKSEL	_NowMode
00041e   0ed5     MOVZ	R0, 0xd5            	MOVZ	R0, _NowMode
                                           	BANKSEL	_PastMode
00041f   51d7     MOV	0xd7, R0             	MOV	_PastMode, R0
                                           	BANKSEL	_NowMode
000420   0ed6     MOVZ	R0, 0xd6            	MOVZ	R0, (_NowMode + 1)
                                           	BANKSEL	_PastMode
000421   51d8     MOV	0xd8, R0             	MOV	(_PastMode + 1), R0
000422   9804     MOV	R0, #0x4             	MOV	R0,# 0x04
                                           	BANKSEL	_NowMode
000423   51d5     MOV	0xd5, R0             	MOV	_NowMode, R0
                                           	BANKSEL	_NowMode
000424   03d6     CLR	0xd6                 	CLR	(_NowMode + 1)
                                           	BANKSEL	_PastMode
000425   0ed7     MOVZ	R0, 0xd7            	MOVZ	R0, _PastMode
000426   a804     XOR	R0, #0x4             	XOR	R0,# 0x04
000427   7a03     JB	0x3, 2                	JB	PSW, 2
000428   c430     JMP	#0x430               	JMP	_00137_DS_
                                           	BANKSEL	_PastMode
000429   0ed8     MOVZ	R0, 0xd8            	MOVZ	R0, (_PastMode + 1)
00042a   a800     XOR	R0, #0               	XOR	R0,# 0x00
00042b   7a03     JB	0x3, 2                	JB	PSW, 2
00042c   c430     JMP	#0x430               	JMP	_00137_DS_
                                           	BANKSEL	_ActMode
00042d   03d3     CLR	0xd3                 	CLR	_ActMode
                                           	BANKSEL	_ActMode
00042e   03d4     CLR	0xd4                 	CLR	(_ActMode + 1)
00042f   c46f     JMP	#0x46f               	JMP	_00164_DS_
                                           _00137_DS_
000430   9804     MOV	R0, #0x4             	MOV	R0,# 0x04
                                           	BANKSEL	_ActMode
000431   51d3     MOV	0xd3, R0             	MOV	_ActMode, R0
                                           	BANKSEL	_ActMode
000432   03d4     CLR	0xd4                 	CLR	(_ActMode + 1)
000433   c46f     JMP	#0x46f               	JMP	_00164_DS_
                                           _00153_DS_
000434   9800     MOV	R0, #0               	MOV	R0,# 0x00
                                           	BANKSEL	_Tail_Status
000435   3095     ORL	R0, 0x95             	ORL	R0, _Tail_Status
000436   7a03     JB	0x3, 2                	JB	PSW, 2
000437   c452     JMP	#0x452               	JMP	_00149_DS_
                                           	BANKSEL	_Stop_Status
000438   0e94     MOVZ	R0, 0x94            	MOVZ	R0, _Stop_Status
000439   a801     XOR	R0, #0x1             	XOR	R0,# 0x01
00043a   7a03     JB	0x3, 2                	JB	PSW, 2
00043b   c452     JMP	#0x452               	JMP	_00149_DS_
                                           	BANKSEL	_NowMode
00043c   0ed5     MOVZ	R0, 0xd5            	MOVZ	R0, _NowMode
                                           	BANKSEL	_PastMode
00043d   51d7     MOV	0xd7, R0             	MOV	_PastMode, R0
                                           	BANKSEL	_NowMode
00043e   0ed6     MOVZ	R0, 0xd6            	MOVZ	R0, (_NowMode + 1)
                                           	BANKSEL	_PastMode
00043f   51d8     MOV	0xd8, R0             	MOV	(_PastMode + 1), R0
000440   9808     MOV	R0, #0x8             	MOV	R0,# 0x08
                                           	BANKSEL	_NowMode
000441   51d5     MOV	0xd5, R0             	MOV	_NowMode, R0
                                           	BANKSEL	_NowMode
000442   03d6     CLR	0xd6                 	CLR	(_NowMode + 1)
                                           	BANKSEL	_PastMode
000443   0ed7     MOVZ	R0, 0xd7            	MOVZ	R0, _PastMode
000444   a808     XOR	R0, #0x8             	XOR	R0,# 0x08
000445   7a03     JB	0x3, 2                	JB	PSW, 2
000446   c44e     JMP	#0x44e               	JMP	_00140_DS_
                                           	BANKSEL	_PastMode
000447   0ed8     MOVZ	R0, 0xd8            	MOVZ	R0, (_PastMode + 1)
000448   a800     XOR	R0, #0               	XOR	R0,# 0x00
000449   7a03     JB	0x3, 2                	JB	PSW, 2
00044a   c44e     JMP	#0x44e               	JMP	_00140_DS_
                                           	BANKSEL	_ActMode
00044b   03d3     CLR	0xd3                 	CLR	_ActMode
                                           	BANKSEL	_ActMode
00044c   03d4     CLR	0xd4                 	CLR	(_ActMode + 1)
00044d   c46f     JMP	#0x46f               	JMP	_00164_DS_
                                           _00140_DS_
00044e   9808     MOV	R0, #0x8             	MOV	R0,# 0x08
                                           	BANKSEL	_ActMode
00044f   51d3     MOV	0xd3, R0             	MOV	_ActMode, R0
                                           	BANKSEL	_ActMode
000450   03d4     CLR	0xd4                 	CLR	(_ActMode + 1)
000451   c46f     JMP	#0x46f               	JMP	_00164_DS_
                                           _00149_DS_
                                           	BANKSEL	_Tail_Status
000452   0e95     MOVZ	R0, 0x95            	MOVZ	R0, _Tail_Status
000453   a801     XOR	R0, #0x1             	XOR	R0,# 0x01
000454   7a03     JB	0x3, 2                	JB	PSW, 2
000455   c46f     JMP	#0x46f               	JMP	_00164_DS_
                                           	BANKSEL	_Stop_Status
000456   0e94     MOVZ	R0, 0x94            	MOVZ	R0, _Stop_Status
000457   a801     XOR	R0, #0x1             	XOR	R0,# 0x01
000458   7a03     JB	0x3, 2                	JB	PSW, 2
000459   c46f     JMP	#0x46f               	JMP	_00164_DS_
                                           	BANKSEL	_NowMode
00045a   0ed5     MOVZ	R0, 0xd5            	MOVZ	R0, _NowMode
                                           	BANKSEL	_PastMode
00045b   51d7     MOV	0xd7, R0             	MOV	_PastMode, R0
                                           	BANKSEL	_NowMode
00045c   0ed6     MOVZ	R0, 0xd6            	MOVZ	R0, (_NowMode + 1)
                                           	BANKSEL	_PastMode
00045d   51d8     MOV	0xd8, R0             	MOV	(_PastMode + 1), R0
00045e   9810     MOV	R0, #0x10            	MOV	R0,# 0x10
                                           	BANKSEL	_NowMode
00045f   51d5     MOV	0xd5, R0             	MOV	_NowMode, R0
                                           	BANKSEL	_NowMode
000460   03d6     CLR	0xd6                 	CLR	(_NowMode + 1)
                                           	BANKSEL	_PastMode
000461   0ed7     MOVZ	R0, 0xd7            	MOVZ	R0, _PastMode
000462   a810     XOR	R0, #0x10            	XOR	R0,# 0x10
000463   7a03     JB	0x3, 2                	JB	PSW, 2
000464   c46c     JMP	#0x46c               	JMP	_00143_DS_
                                           	BANKSEL	_PastMode
000465   0ed8     MOVZ	R0, 0xd8            	MOVZ	R0, (_PastMode + 1)
000466   a800     XOR	R0, #0               	XOR	R0,# 0x00
000467   7a03     JB	0x3, 2                	JB	PSW, 2
000468   c46c     JMP	#0x46c               	JMP	_00143_DS_
                                           	BANKSEL	_ActMode
000469   03d3     CLR	0xd3                 	CLR	_ActMode
                                           	BANKSEL	_ActMode
00046a   03d4     CLR	0xd4                 	CLR	(_ActMode + 1)
00046b   c46f     JMP	#0x46f               	JMP	_00164_DS_
                                           _00143_DS_
00046c   9810     MOV	R0, #0x10            	MOV	R0,# 0x10
                                           	BANKSEL	_ActMode
00046d   51d3     MOV	0xd3, R0             	MOV	_ActMode, R0
                                           	BANKSEL	_ActMode
00046e   03d4     CLR	0xd4                 	CLR	(_ActMode + 1)
                                           _00164_DS_
00046f   9f07     MOV	R7, #0x7             	TRAPPC1	_Mode_Act
000470   5f73     MOV	0x73, R7             	TRAPPC2	_Mode_Act
000471   e007     MOVP	#0x07               	PAGESEL	_Mode_Act
000472   d733     CALL	#0x733              	CALL	_Mode_Act
000473   9f04     MOV	R7, #0x4             	TRAPPC1	$+2
000474   5f73     MOV	0x73, R7             	TRAPPC2	$+1
000475   e004     MOVP	#0x04               	PAGESEL	$
000476   0008     CRET                     	CRET	
                                           func._RT_Mode_Act	.code
                                           _RT_Mode_Act	;Function start
00099f   e100     MOVB	#0x00               	BANKSEL	_RT_ActMode
0009a0   0ecd     MOVZ	R0, 0xcd            	MOVZ	R0, _RT_ActMode
0009a1   a801     XOR	R0, #0x1             	XOR	R0,# 0x01
0009a2   7a03     JB	0x3, 2                	JB	PSW, 2
0009a3   c9a8     JMP	#0x9a8               	JMP	_00125_DS_
                                           	BANKSEL	_RT_ActMode
0009a4   0ece     MOVZ	R0, 0xce            	MOVZ	R0, (_RT_ActMode + 1)
0009a5   a800     XOR	R0, #0               	XOR	R0,# 0x00
0009a6   7203     JNB	0x3, 2               	JNB	PSW, 2
0009a7   c9c9     JMP	#0x9c9               	JMP	_00111_DS_
                                           _00125_DS_
                                           	BANKSEL	_RT_ActMode
0009a8   0ecd     MOVZ	R0, 0xcd            	MOVZ	R0, _RT_ActMode
0009a9   a802     XOR	R0, #0x2             	XOR	R0,# 0x02
0009aa   7a03     JB	0x3, 2                	JB	PSW, 2
0009ab   c9b0     JMP	#0x9b0               	JMP	_00126_DS_
                                           	BANKSEL	_RT_ActMode
0009ac   0ece     MOVZ	R0, 0xce            	MOVZ	R0, (_RT_ActMode + 1)
0009ad   a800     XOR	R0, #0               	XOR	R0,# 0x00
0009ae   7203     JNB	0x3, 2               	JNB	PSW, 2
0009af   c9d1     JMP	#0x9d1               	JMP	_00112_DS_
                                           _00126_DS_
                                           	BANKSEL	_RT_ActMode
0009b0   0ecd     MOVZ	R0, 0xcd            	MOVZ	R0, _RT_ActMode
0009b1   a804     XOR	R0, #0x4             	XOR	R0,# 0x04
0009b2   7a03     JB	0x3, 2                	JB	PSW, 2
0009b3   c9b8     JMP	#0x9b8               	JMP	_00127_DS_
                                           	BANKSEL	_RT_ActMode
0009b4   0ece     MOVZ	R0, 0xce            	MOVZ	R0, (_RT_ActMode + 1)
0009b5   a800     XOR	R0, #0               	XOR	R0,# 0x00
0009b6   7203     JNB	0x3, 2               	JNB	PSW, 2
0009b7   c9d9     JMP	#0x9d9               	JMP	_00113_DS_
                                           _00127_DS_
                                           	BANKSEL	_RT_ActMode
0009b8   0ecd     MOVZ	R0, 0xcd            	MOVZ	R0, _RT_ActMode
0009b9   a808     XOR	R0, #0x8             	XOR	R0,# 0x08
0009ba   7a03     JB	0x3, 2                	JB	PSW, 2
0009bb   c9c0     JMP	#0x9c0               	JMP	_00128_DS_
                                           	BANKSEL	_RT_ActMode
0009bc   0ece     MOVZ	R0, 0xce            	MOVZ	R0, (_RT_ActMode + 1)
0009bd   a800     XOR	R0, #0               	XOR	R0,# 0x00
0009be   7203     JNB	0x3, 2               	JNB	PSW, 2
0009bf   c9e1     JMP	#0x9e1               	JMP	_00114_DS_
                                           _00128_DS_
                                           	BANKSEL	_RT_ActMode
0009c0   0ecd     MOVZ	R0, 0xcd            	MOVZ	R0, _RT_ActMode
0009c1   a810     XOR	R0, #0x10            	XOR	R0,# 0x10
0009c2   7a03     JB	0x3, 2                	JB	PSW, 2
0009c3   c9c8     JMP	#0x9c8               	JMP	_00129_DS_
                                           	BANKSEL	_RT_ActMode
0009c4   0ece     MOVZ	R0, 0xce            	MOVZ	R0, (_RT_ActMode + 1)
0009c5   a800     XOR	R0, #0               	XOR	R0,# 0x00
0009c6   7203     JNB	0x3, 2               	JNB	PSW, 2
0009c7   c9ec     JMP	#0x9ec               	JMP	_00115_DS_
                                           _00129_DS_
0009c8   c9f5     JMP	#0x9f5               	JMP	_00118_DS_
                                           _00111_DS_
0009c9   9f0f     MOV	R7, #0xf             	TRAPPC1	_Led_RT_AllClose
0009ca   5f73     MOV	0x73, R7             	TRAPPC2	_Led_RT_AllClose
0009cb   e00f     MOVP	#0x0F               	PAGESEL	_Led_RT_AllClose
0009cc   df65     CALL	#0xf65              	CALL	_Led_RT_AllClose
0009cd   9f09     MOV	R7, #0x9             	TRAPPC1	$+2
0009ce   5f73     MOV	0x73, R7             	TRAPPC2	$+1
0009cf   e009     MOVP	#0x09               	PAGESEL	$
0009d0   c9f5     JMP	#0x9f5               	JMP	_00118_DS_
                                           _00112_DS_
0009d1   9f0f     MOV	R7, #0xf             	TRAPPC1	_Led_RT_AllOpen
0009d2   5f73     MOV	0x73, R7             	TRAPPC2	_Led_RT_AllOpen
0009d3   e00f     MOVP	#0x0F               	PAGESEL	_Led_RT_AllOpen
0009d4   df6e     CALL	#0xf6e              	CALL	_Led_RT_AllOpen
0009d5   9f09     MOV	R7, #0x9             	TRAPPC1	$+2
0009d6   5f73     MOV	0x73, R7             	TRAPPC2	$+1
0009d7   e009     MOVP	#0x09               	PAGESEL	$
0009d8   c9f5     JMP	#0x9f5               	JMP	_00118_DS_
                                           _00113_DS_
0009d9   9f0f     MOV	R7, #0xf             	TRAPPC1	_Led_RT_PWMOpen
0009da   5f73     MOV	0x73, R7             	TRAPPC2	_Led_RT_PWMOpen
0009db   e00f     MOVP	#0x0F               	PAGESEL	_Led_RT_PWMOpen
0009dc   df51     CALL	#0xf51              	CALL	_Led_RT_PWMOpen
0009dd   9f09     MOV	R7, #0x9             	TRAPPC1	$+2
0009de   5f73     MOV	0x73, R7             	TRAPPC2	$+1
0009df   e009     MOVP	#0x09               	PAGESEL	$
0009e0   c9f5     JMP	#0x9f5               	JMP	_00118_DS_
                                           _00114_DS_
0009e1   9801     MOV	R0, #0x1             	MOV	R0,# 0x01
                                           	BANKSEL	_RT_WATER_FULL
0009e2   51c9     MOV	0xc9, R0             	MOV	_RT_WATER_FULL, R0
                                           	BANKSEL	_RT_WATER_FULL
0009e3   03ca     CLR	0xca                 	CLR	(_RT_WATER_FULL + 1)
0009e4   9f0e     MOV	R7, #0xe             	TRAPPC1	_Led_RT_Water100
0009e5   5f73     MOV	0x73, R7             	TRAPPC2	_Led_RT_Water100
0009e6   e00e     MOVP	#0x0E               	PAGESEL	_Led_RT_Water100
0009e7   dedb     CALL	#0xedb              	CALL	_Led_RT_Water100
0009e8   9f09     MOV	R7, #0x9             	TRAPPC1	$+2
0009e9   5f73     MOV	0x73, R7             	TRAPPC2	$+1
0009ea   e009     MOVP	#0x09               	PAGESEL	$
0009eb   c9f5     JMP	#0x9f5               	JMP	_00118_DS_
                                           _00115_DS_
                                           	BANKSEL	_RT_WATER_FULL
0009ec   03c9     CLR	0xc9                 	CLR	_RT_WATER_FULL
                                           	BANKSEL	_RT_WATER_FULL
0009ed   03ca     CLR	0xca                 	CLR	(_RT_WATER_FULL + 1)
0009ee   9f0e     MOV	R7, #0xe             	TRAPPC1	_Led_RT_Water55
0009ef   5f73     MOV	0x73, R7             	TRAPPC2	_Led_RT_Water55
0009f0   e00e     MOVP	#0x0E               	PAGESEL	_Led_RT_Water55
0009f1   deeb     CALL	#0xeeb              	CALL	_Led_RT_Water55
0009f2   9f09     MOV	R7, #0x9             	TRAPPC1	$+2
0009f3   5f73     MOV	0x73, R7             	TRAPPC2	$+1
0009f4   e009     MOVP	#0x09               	PAGESEL	$
                                           _00118_DS_
0009f5   0008     CRET                     	CRET	
                                           func._RT_Water_Act	.code
                                           _RT_Water_Act	;Function start
0007a8   e100     MOVB	#0x00               	BANKSEL	_RT_Water_Flag
0007a9   0edd     MOVZ	R0, 0xdd            	MOVZ	R0, _RT_Water_Flag
                                           	BANKSEL	_RT_Water_Flag
0007aa   30de     ORL	R0, 0xde             	ORL	R0, (_RT_Water_Flag + 1)
0007ab   7203     JNB	0x3, 2               	JNB	PSW, 2
0007ac   c81b     JMP	#0x81b               	JMP	_00099_DS_
                                           	BANKSEL	_RT_CNT
0007ad   0be7     INC	0xe7                 	INC	_RT_CNT
0007ae   7a03     JB	0x3, 2                	JB	PSW, 2
0007af   c7b1     JMP	#0x7b1               	JMP	_00309_DS_
                                           	BANKSEL	_RT_CNT
0007b0   0be8     INC	0xe8                 	INC	(_RT_CNT + 1)
                                           _00309_DS_
0007b1   7a03     JB	0x3, 2                	JB	PSW, 2
0007b2   c7b4     JMP	#0x7b4               	JMP	_00310_DS_
                                           	BANKSEL	_RT_CNT
0007b3   0be9     INC	0xe9                 	INC	(_RT_CNT + 2)
                                           _00310_DS_
0007b4   7a03     JB	0x3, 2                	JB	PSW, 2
0007b5   c7b7     JMP	#0x7b7               	JMP	_00311_DS_
                                           	BANKSEL	_RT_CNT
0007b6   0bea     INC	0xea                 	INC	(_RT_CNT + 3)
                                           _00311_DS_
                                           	BANKSEL	_RT_CNT
0007b7   0ee7     MOVZ	R0, 0xe7            	MOVZ	R0, _RT_CNT
                                           	BANKSEL	r0x1030
0007b8   518b     MOV	0x8b, R0             	MOV	r0x1030, R0
                                           	BANKSEL	_RT_CNT
0007b9   0ee8     MOVZ	R0, 0xe8            	MOVZ	R0, (_RT_CNT + 1)
                                           	BANKSEL	r0x1031
0007ba   518a     MOV	0x8a, R0             	MOV	r0x1031, R0
                                           	BANKSEL	_RT_CNT
0007bb   0ee9     MOVZ	R0, 0xe9            	MOVZ	R0, (_RT_CNT + 2)
                                           	BANKSEL	r0x1032
0007bc   5189     MOV	0x89, R0             	MOV	r0x1032, R0
                                           	BANKSEL	_RT_CNT
0007bd   0eea     MOVZ	R0, 0xea            	MOVZ	R0, (_RT_CNT + 3)
                                           	BANKSEL	r0x1033
0007be   5188     MOV	0x88, R0             	MOV	r0x1033, R0
                                           	BANKSEL	r0x1030
0007bf   0e8b     MOVZ	R0, 0x8b            	MOVZ	R0, r0x1030
0007c0   a8f4     XOR	R0, #0xf4            	XOR	R0,# 0xf4
0007c1   7a03     JB	0x3, 2                	JB	PSW, 2
0007c2   c7cf     JMP	#0x7cf               	JMP	_00108_DS_
                                           	BANKSEL	r0x1031
0007c3   0e8a     MOVZ	R0, 0x8a            	MOVZ	R0, r0x1031
0007c4   a801     XOR	R0, #0x1             	XOR	R0,# 0x01
0007c5   7a03     JB	0x3, 2                	JB	PSW, 2
0007c6   c7cf     JMP	#0x7cf               	JMP	_00108_DS_
                                           	BANKSEL	r0x1032
0007c7   0e89     MOVZ	R0, 0x89            	MOVZ	R0, r0x1032
0007c8   a800     XOR	R0, #0               	XOR	R0,# 0x00
0007c9   7a03     JB	0x3, 2                	JB	PSW, 2
0007ca   c7cf     JMP	#0x7cf               	JMP	_00108_DS_
                                           	BANKSEL	r0x1033
0007cb   0e88     MOVZ	R0, 0x88            	MOVZ	R0, r0x1033
0007cc   a800     XOR	R0, #0               	XOR	R0,# 0x00
0007cd   7203     JNB	0x3, 2               	JNB	PSW, 2
0007ce   c7f0     JMP	#0x7f0               	JMP	_00083_DS_
                                           _00108_DS_
                                           	BANKSEL	r0x1030
0007cf   0e8b     MOVZ	R0, 0x8b            	MOVZ	R0, r0x1030
0007d0   a8e8     XOR	R0, #0xe8            	XOR	R0,# 0xe8
0007d1   7a03     JB	0x3, 2                	JB	PSW, 2
0007d2   c7df     JMP	#0x7df               	JMP	_00109_DS_
                                           	BANKSEL	r0x1031
0007d3   0e8a     MOVZ	R0, 0x8a            	MOVZ	R0, r0x1031
0007d4   a803     XOR	R0, #0x3             	XOR	R0,# 0x03
0007d5   7a03     JB	0x3, 2                	JB	PSW, 2
0007d6   c7df     JMP	#0x7df               	JMP	_00109_DS_
                                           	BANKSEL	r0x1032
0007d7   0e89     MOVZ	R0, 0x89            	MOVZ	R0, r0x1032
0007d8   a800     XOR	R0, #0               	XOR	R0,# 0x00
0007d9   7a03     JB	0x3, 2                	JB	PSW, 2
0007da   c7df     JMP	#0x7df               	JMP	_00109_DS_
                                           	BANKSEL	r0x1033
0007db   0e88     MOVZ	R0, 0x88            	MOVZ	R0, r0x1033
0007dc   a800     XOR	R0, #0               	XOR	R0,# 0x00
0007dd   7203     JNB	0x3, 2               	JNB	PSW, 2
0007de   c7fe     JMP	#0x7fe               	JMP	_00087_DS_
                                           _00109_DS_
                                           	BANKSEL	r0x1030
0007df   0e8b     MOVZ	R0, 0x8b            	MOVZ	R0, r0x1030
0007e0   a8dc     XOR	R0, #0xdc            	XOR	R0,# 0xdc
0007e1   7a03     JB	0x3, 2                	JB	PSW, 2
0007e2   c7ef     JMP	#0x7ef               	JMP	_00110_DS_
                                           	BANKSEL	r0x1031
0007e3   0e8a     MOVZ	R0, 0x8a            	MOVZ	R0, r0x1031
0007e4   a805     XOR	R0, #0x5             	XOR	R0,# 0x05
0007e5   7a03     JB	0x3, 2                	JB	PSW, 2
0007e6   c7ef     JMP	#0x7ef               	JMP	_00110_DS_
                                           	BANKSEL	r0x1032
0007e7   0e89     MOVZ	R0, 0x89            	MOVZ	R0, r0x1032
0007e8   a800     XOR	R0, #0               	XOR	R0,# 0x00
0007e9   7a03     JB	0x3, 2                	JB	PSW, 2
0007ea   c7ef     JMP	#0x7ef               	JMP	_00110_DS_
                                           	BANKSEL	r0x1033
0007eb   0e88     MOVZ	R0, 0x88            	MOVZ	R0, r0x1033
0007ec   a800     XOR	R0, #0               	XOR	R0,# 0x00
0007ed   7203     JNB	0x3, 2               	JNB	PSW, 2
0007ee   c80c     JMP	#0x80c               	JMP	_00091_DS_
                                           _00110_DS_
0007ef   c81b     JMP	#0x81b               	JMP	_00099_DS_
                                           _00083_DS_
0007f0   9801     MOV	R0, #0x1             	MOV	R0,# 0x01
                                           	BANKSEL	_RT_High_Addr
0007f1   51e1     MOV	0xe1, R0             	MOV	_RT_High_Addr, R0
                                           	BANKSEL	_RT_High_Addr
0007f2   03e2     CLR	0xe2                 	CLR	(_RT_High_Addr + 1)
                                           	BANKSEL	_RT_WATER_FULL
0007f3   0ec9     MOVZ	R0, 0xc9            	MOVZ	R0, _RT_WATER_FULL
                                           	BANKSEL	_RT_WATER_FULL
0007f4   30ca     ORL	R0, 0xca             	ORL	R0, (_RT_WATER_FULL + 1)
0007f5   7a03     JB	0x3, 2                	JB	PSW, 2
0007f6   c7fb     JMP	#0x7fb               	JMP	_00085_DS_
0007f7   9801     MOV	R0, #0x1             	MOV	R0,# 0x01
                                           	BANKSEL	_RT_Low_Addr
0007f8   51df     MOV	0xdf, R0             	MOV	_RT_Low_Addr, R0
                                           	BANKSEL	_RT_Low_Addr
0007f9   03e0     CLR	0xe0                 	CLR	(_RT_Low_Addr + 1)
0007fa   c81b     JMP	#0x81b               	JMP	_00099_DS_
                                           _00085_DS_
                                           	BANKSEL	_RT_Low_Addr
0007fb   03df     CLR	0xdf                 	CLR	_RT_Low_Addr
                                           	BANKSEL	_RT_Low_Addr
0007fc   03e0     CLR	0xe0                 	CLR	(_RT_Low_Addr + 1)
0007fd   c81b     JMP	#0x81b               	JMP	_00099_DS_
                                           _00087_DS_
0007fe   9803     MOV	R0, #0x3             	MOV	R0,# 0x03
                                           	BANKSEL	_RT_High_Addr
0007ff   51e1     MOV	0xe1, R0             	MOV	_RT_High_Addr, R0
                                           	BANKSEL	_RT_High_Addr
000800   03e2     CLR	0xe2                 	CLR	(_RT_High_Addr + 1)
                                           	BANKSEL	_RT_WATER_FULL
000801   0ec9     MOVZ	R0, 0xc9            	MOVZ	R0, _RT_WATER_FULL
                                           	BANKSEL	_RT_WATER_FULL
000802   30ca     ORL	R0, 0xca             	ORL	R0, (_RT_WATER_FULL + 1)
000803   7a03     JB	0x3, 2                	JB	PSW, 2
000804   c809     JMP	#0x809               	JMP	_00089_DS_
000805   9803     MOV	R0, #0x3             	MOV	R0,# 0x03
                                           	BANKSEL	_RT_Low_Addr
000806   51df     MOV	0xdf, R0             	MOV	_RT_Low_Addr, R0
                                           	BANKSEL	_RT_Low_Addr
000807   03e0     CLR	0xe0                 	CLR	(_RT_Low_Addr + 1)
000808   c81b     JMP	#0x81b               	JMP	_00099_DS_
                                           _00089_DS_
                                           	BANKSEL	_RT_Low_Addr
000809   03df     CLR	0xdf                 	CLR	_RT_Low_Addr
                                           	BANKSEL	_RT_Low_Addr
00080a   03e0     CLR	0xe0                 	CLR	(_RT_Low_Addr + 1)
00080b   c81b     JMP	#0x81b               	JMP	_00099_DS_
                                           _00091_DS_
00080c   9807     MOV	R0, #0x7             	MOV	R0,# 0x07
                                           	BANKSEL	_RT_High_Addr
00080d   51e1     MOV	0xe1, R0             	MOV	_RT_High_Addr, R0
                                           	BANKSEL	_RT_High_Addr
00080e   03e2     CLR	0xe2                 	CLR	(_RT_High_Addr + 1)
                                           	BANKSEL	_RT_WATER_FULL
00080f   0ec9     MOVZ	R0, 0xc9            	MOVZ	R0, _RT_WATER_FULL
                                           	BANKSEL	_RT_WATER_FULL
000810   30ca     ORL	R0, 0xca             	ORL	R0, (_RT_WATER_FULL + 1)
000811   7a03     JB	0x3, 2                	JB	PSW, 2
000812   c817     JMP	#0x817               	JMP	_00093_DS_
000813   9807     MOV	R0, #0x7             	MOV	R0,# 0x07
                                           	BANKSEL	_RT_Low_Addr
000814   51df     MOV	0xdf, R0             	MOV	_RT_Low_Addr, R0
                                           	BANKSEL	_RT_Low_Addr
000815   03e0     CLR	0xe0                 	CLR	(_RT_Low_Addr + 1)
000816   c819     JMP	#0x819               	JMP	_00094_DS_
                                           _00093_DS_
                                           	BANKSEL	_RT_Low_Addr
000817   03df     CLR	0xdf                 	CLR	_RT_Low_Addr
                                           	BANKSEL	_RT_Low_Addr
000818   03e0     CLR	0xe0                 	CLR	(_RT_Low_Addr + 1)
                                           _00094_DS_
                                           	BANKSEL	_RT_Water_Flag
000819   03dd     CLR	0xdd                 	CLR	_RT_Water_Flag
                                           	BANKSEL	_RT_Water_Flag
00081a   03de     CLR	0xde                 	CLR	(_RT_Water_Flag + 1)
                                           _00099_DS_
00081b   0008     CRET                     	CRET	
                                           func._RT_Check_Input	.code
                                           _RT_Check_Input	;Function start
0002ec   e100     MOVB	#0x00               	BANKSEL	r0x1034
0002ed   038d     CLR	0x8d                 	CLR	r0x1034
0002ee   e104     MOVB	#0x04               	BANKSEL	_PA_bits
0002ef   7824     JB	0x24, 0               	JB	_PA_bits, 0
0002f0   c2f3     JMP	#0x2f3               	JMP	_00312_DS_
0002f1   e100     MOVB	#0x00               	BANKSEL	r0x1034
0002f2   0b8d     INC	0x8d                 	INC	r0x1034
                                           _00312_DS_
0002f3   e100     MOVB	#0x00               	BANKSEL	r0x1034
0002f4   0e8d     MOVZ	R0, 0x8d            	MOVZ	R0, r0x1034
                                           	BANKSEL	_RT_Status
0002f5   5193     MOV	0x93, R0             	MOV	_RT_Status, R0
                                           	BANKSEL	r0x1034
0002f6   038d     CLR	0x8d                 	CLR	r0x1034
0002f7   e101     MOVB	#0x01               	BANKSEL	_P5_bits
0002f8   7905     JB	0x5, 1                	JB	_P5_bits, 1
0002f9   c2fc     JMP	#0x2fc               	JMP	_00313_DS_
0002fa   e100     MOVB	#0x00               	BANKSEL	r0x1034
0002fb   0b8d     INC	0x8d                 	INC	r0x1034
                                           _00313_DS_
0002fc   e100     MOVB	#0x00               	BANKSEL	r0x1034
0002fd   0e8d     MOVZ	R0, 0x8d            	MOVZ	R0, r0x1034
                                           	BANKSEL	_RT_EN_Status
0002fe   5192     MOV	0x92, R0             	MOV	_RT_EN_Status, R0
                                           	BANKSEL	r0x1034
0002ff   038d     CLR	0x8d                 	CLR	r0x1034
                                           	BANKSEL	_P1_bits
000300   7807     JB	0x7, 0                	JB	_P1_bits, 0
000301   c303     JMP	#0x303               	JMP	_00314_DS_
                                           	BANKSEL	r0x1034
000302   0b8d     INC	0x8d                 	INC	r0x1034
                                           _00314_DS_
                                           	BANKSEL	r0x1034
000303   0e8d     MOVZ	R0, 0x8d            	MOVZ	R0, r0x1034
                                           	BANKSEL	_LOW_EN_Status
000304   5184     MOV	0x84, R0             	MOV	_LOW_EN_Status, R0
000305   9800     MOV	R0, #0               	MOV	R0,# 0x00
                                           	BANKSEL	_RT_Status
000306   3093     ORL	R0, 0x93             	ORL	R0, _RT_Status
000307   7a03     JB	0x3, 2                	JB	PSW, 2
000308   c31f     JMP	#0x31f               	JMP	_00061_DS_
                                           	BANKSEL	_RT_NowMode
000309   0ecf     MOVZ	R0, 0xcf            	MOVZ	R0, _RT_NowMode
                                           	BANKSEL	_RT_PastMode
00030a   51d1     MOV	0xd1, R0             	MOV	_RT_PastMode, R0
                                           	BANKSEL	_RT_NowMode
00030b   0ed0     MOVZ	R0, 0xd0            	MOVZ	R0, (_RT_NowMode + 1)
                                           	BANKSEL	_RT_PastMode
00030c   51d2     MOV	0xd2, R0             	MOV	(_RT_PastMode + 1), R0
00030d   9801     MOV	R0, #0x1             	MOV	R0,# 0x01
                                           	BANKSEL	_RT_NowMode
00030e   51cf     MOV	0xcf, R0             	MOV	_RT_NowMode, R0
                                           	BANKSEL	_RT_NowMode
00030f   03d0     CLR	0xd0                 	CLR	(_RT_NowMode + 1)
                                           	BANKSEL	_RT_PastMode
000310   0ed1     MOVZ	R0, 0xd1            	MOVZ	R0, _RT_PastMode
000311   a801     XOR	R0, #0x1             	XOR	R0,# 0x01
000312   7a03     JB	0x3, 2                	JB	PSW, 2
000313   c31b     JMP	#0x31b               	JMP	_00027_DS_
                                           	BANKSEL	_RT_PastMode
000314   0ed2     MOVZ	R0, 0xd2            	MOVZ	R0, (_RT_PastMode + 1)
000315   a800     XOR	R0, #0               	XOR	R0,# 0x00
000316   7a03     JB	0x3, 2                	JB	PSW, 2
000317   c31b     JMP	#0x31b               	JMP	_00027_DS_
                                           	BANKSEL	_RT_ActMode
000318   03cd     CLR	0xcd                 	CLR	_RT_ActMode
                                           	BANKSEL	_RT_ActMode
000319   03ce     CLR	0xce                 	CLR	(_RT_ActMode + 1)
00031a   c3aa     JMP	#0x3aa               	JMP	_00062_DS_
                                           _00027_DS_
00031b   9801     MOV	R0, #0x1             	MOV	R0,# 0x01
                                           	BANKSEL	_RT_ActMode
00031c   51cd     MOV	0xcd, R0             	MOV	_RT_ActMode, R0
                                           	BANKSEL	_RT_ActMode
00031d   03ce     CLR	0xce                 	CLR	(_RT_ActMode + 1)
00031e   c3aa     JMP	#0x3aa               	JMP	_00062_DS_
                                           _00061_DS_
                                           	BANKSEL	_RT_Status
00031f   0e93     MOVZ	R0, 0x93            	MOVZ	R0, _RT_Status
000320   a801     XOR	R0, #0x1             	XOR	R0,# 0x01
000321   7a03     JB	0x3, 2                	JB	PSW, 2
000322   c33f     JMP	#0x33f               	JMP	_00056_DS_
                                           	BANKSEL	_RT_EN_Status
000323   0e92     MOVZ	R0, 0x92            	MOVZ	R0, _RT_EN_Status
000324   a801     XOR	R0, #0x1             	XOR	R0,# 0x01
000325   7a03     JB	0x3, 2                	JB	PSW, 2
000326   c33f     JMP	#0x33f               	JMP	_00056_DS_
                                           	BANKSEL	_P1_bits
000327   7007     JNB	0x7, 0               	JNB	_P1_bits, 0
000328   c33f     JMP	#0x33f               	JMP	_00056_DS_
                                           	BANKSEL	_RT_NowMode
000329   0ecf     MOVZ	R0, 0xcf            	MOVZ	R0, _RT_NowMode
                                           	BANKSEL	_RT_PastMode
00032a   51d1     MOV	0xd1, R0             	MOV	_RT_PastMode, R0
                                           	BANKSEL	_RT_NowMode
00032b   0ed0     MOVZ	R0, 0xd0            	MOVZ	R0, (_RT_NowMode + 1)
                                           	BANKSEL	_RT_PastMode
00032c   51d2     MOV	0xd2, R0             	MOV	(_RT_PastMode + 1), R0
00032d   9802     MOV	R0, #0x2             	MOV	R0,# 0x02
                                           	BANKSEL	_RT_NowMode
00032e   51cf     MOV	0xcf, R0             	MOV	_RT_NowMode, R0
                                           	BANKSEL	_RT_NowMode
00032f   03d0     CLR	0xd0                 	CLR	(_RT_NowMode + 1)
                                           	BANKSEL	_RT_PastMode
000330   0ed1     MOVZ	R0, 0xd1            	MOVZ	R0, _RT_PastMode
000331   a802     XOR	R0, #0x2             	XOR	R0,# 0x02
000332   7a03     JB	0x3, 2                	JB	PSW, 2
000333   c33b     JMP	#0x33b               	JMP	_00030_DS_
                                           	BANKSEL	_RT_PastMode
000334   0ed2     MOVZ	R0, 0xd2            	MOVZ	R0, (_RT_PastMode + 1)
000335   a800     XOR	R0, #0               	XOR	R0,# 0x00
000336   7a03     JB	0x3, 2                	JB	PSW, 2
000337   c33b     JMP	#0x33b               	JMP	_00030_DS_
                                           	BANKSEL	_RT_ActMode
000338   03cd     CLR	0xcd                 	CLR	_RT_ActMode
                                           	BANKSEL	_RT_ActMode
000339   03ce     CLR	0xce                 	CLR	(_RT_ActMode + 1)
00033a   c3aa     JMP	#0x3aa               	JMP	_00062_DS_
                                           _00030_DS_
00033b   9802     MOV	R0, #0x2             	MOV	R0,# 0x02
                                           	BANKSEL	_RT_ActMode
00033c   51cd     MOV	0xcd, R0             	MOV	_RT_ActMode, R0
                                           	BANKSEL	_RT_ActMode
00033d   03ce     CLR	0xce                 	CLR	(_RT_ActMode + 1)
00033e   c3aa     JMP	#0x3aa               	JMP	_00062_DS_
                                           _00056_DS_
                                           	BANKSEL	_RT_Status
00033f   0e93     MOVZ	R0, 0x93            	MOVZ	R0, _RT_Status
000340   a801     XOR	R0, #0x1             	XOR	R0,# 0x01
000341   7a03     JB	0x3, 2                	JB	PSW, 2
000342   c365     JMP	#0x365               	JMP	_00051_DS_
                                           	BANKSEL	_RT_EN_Status
000343   0e92     MOVZ	R0, 0x92            	MOVZ	R0, _RT_EN_Status
000344   a801     XOR	R0, #0x1             	XOR	R0,# 0x01
000345   7a03     JB	0x3, 2                	JB	PSW, 2
000346   c365     JMP	#0x365               	JMP	_00051_DS_
000347   9800     MOV	R0, #0               	MOV	R0,# 0x00
                                           	BANKSEL	_P1_bits
000348   7007     JNB	0x7, 0               	JNB	_P1_bits, 0
000349   9801     MOV	R0, #0x1             	MOV	R0,# 0x01
                                           	BANKSEL	r0x1035
00034a   518c     MOV	0x8c, R0             	MOV	r0x1035, R0
                                           	BANKSEL	r0x1035
00034b   0e8c     MOVZ	R0, 0x8c            	MOVZ	R0, r0x1035
00034c   a801     XOR	R0, #0x1             	XOR	R0,# 0x01
00034d   7a03     JB	0x3, 2                	JB	PSW, 2
00034e   c365     JMP	#0x365               	JMP	_00051_DS_
                                           	BANKSEL	_RT_NowMode
00034f   0ecf     MOVZ	R0, 0xcf            	MOVZ	R0, _RT_NowMode
                                           	BANKSEL	_RT_PastMode
000350   51d1     MOV	0xd1, R0             	MOV	_RT_PastMode, R0
                                           	BANKSEL	_RT_NowMode
000351   0ed0     MOVZ	R0, 0xd0            	MOVZ	R0, (_RT_NowMode + 1)
                                           	BANKSEL	_RT_PastMode
000352   51d2     MOV	0xd2, R0             	MOV	(_RT_PastMode + 1), R0
000353   9804     MOV	R0, #0x4             	MOV	R0,# 0x04
                                           	BANKSEL	_RT_NowMode
000354   51cf     MOV	0xcf, R0             	MOV	_RT_NowMode, R0
                                           	BANKSEL	_RT_NowMode
000355   03d0     CLR	0xd0                 	CLR	(_RT_NowMode + 1)
                                           	BANKSEL	_RT_PastMode
000356   0ed1     MOVZ	R0, 0xd1            	MOVZ	R0, _RT_PastMode
000357   a804     XOR	R0, #0x4             	XOR	R0,# 0x04
000358   7a03     JB	0x3, 2                	JB	PSW, 2
000359   c361     JMP	#0x361               	JMP	_00033_DS_
                                           	BANKSEL	_RT_PastMode
00035a   0ed2     MOVZ	R0, 0xd2            	MOVZ	R0, (_RT_PastMode + 1)
00035b   a800     XOR	R0, #0               	XOR	R0,# 0x00
00035c   7a03     JB	0x3, 2                	JB	PSW, 2
00035d   c361     JMP	#0x361               	JMP	_00033_DS_
                                           	BANKSEL	_RT_ActMode
00035e   03cd     CLR	0xcd                 	CLR	_RT_ActMode
                                           	BANKSEL	_RT_ActMode
00035f   03ce     CLR	0xce                 	CLR	(_RT_ActMode + 1)
000360   c3aa     JMP	#0x3aa               	JMP	_00062_DS_
                                           _00033_DS_
000361   9804     MOV	R0, #0x4             	MOV	R0,# 0x04
                                           	BANKSEL	_RT_ActMode
000362   51cd     MOV	0xcd, R0             	MOV	_RT_ActMode, R0
                                           	BANKSEL	_RT_ActMode
000363   03ce     CLR	0xce                 	CLR	(_RT_ActMode + 1)
000364   c3aa     JMP	#0x3aa               	JMP	_00062_DS_
                                           _00051_DS_
                                           	BANKSEL	_RT_Status
000365   0e93     MOVZ	R0, 0x93            	MOVZ	R0, _RT_Status
000366   a801     XOR	R0, #0x1             	XOR	R0,# 0x01
000367   7a03     JB	0x3, 2                	JB	PSW, 2
000368   c385     JMP	#0x385               	JMP	_00046_DS_
000369   9800     MOV	R0, #0               	MOV	R0,# 0x00
                                           	BANKSEL	_RT_EN_Status
00036a   3092     ORL	R0, 0x92             	ORL	R0, _RT_EN_Status
00036b   7a03     JB	0x3, 2                	JB	PSW, 2
00036c   c385     JMP	#0x385               	JMP	_00046_DS_
                                           	BANKSEL	_P1_bits
00036d   7007     JNB	0x7, 0               	JNB	_P1_bits, 0
00036e   c385     JMP	#0x385               	JMP	_00046_DS_
                                           	BANKSEL	_RT_NowMode
00036f   0ecf     MOVZ	R0, 0xcf            	MOVZ	R0, _RT_NowMode
                                           	BANKSEL	_RT_PastMode
000370   51d1     MOV	0xd1, R0             	MOV	_RT_PastMode, R0
                                           	BANKSEL	_RT_NowMode
000371   0ed0     MOVZ	R0, 0xd0            	MOVZ	R0, (_RT_NowMode + 1)
                                           	BANKSEL	_RT_PastMode
000372   51d2     MOV	0xd2, R0             	MOV	(_RT_PastMode + 1), R0
000373   9808     MOV	R0, #0x8             	MOV	R0,# 0x08
                                           	BANKSEL	_RT_NowMode
000374   51cf     MOV	0xcf, R0             	MOV	_RT_NowMode, R0
                                           	BANKSEL	_RT_NowMode
000375   03d0     CLR	0xd0                 	CLR	(_RT_NowMode + 1)
                                           	BANKSEL	_RT_PastMode
000376   0ed1     MOVZ	R0, 0xd1            	MOVZ	R0, _RT_PastMode
000377   a808     XOR	R0, #0x8             	XOR	R0,# 0x08
000378   7a03     JB	0x3, 2                	JB	PSW, 2
000379   c381     JMP	#0x381               	JMP	_00036_DS_
                                           	BANKSEL	_RT_PastMode
00037a   0ed2     MOVZ	R0, 0xd2            	MOVZ	R0, (_RT_PastMode + 1)
00037b   a800     XOR	R0, #0               	XOR	R0,# 0x00
00037c   7a03     JB	0x3, 2                	JB	PSW, 2
00037d   c381     JMP	#0x381               	JMP	_00036_DS_
                                           	BANKSEL	_RT_ActMode
00037e   03cd     CLR	0xcd                 	CLR	_RT_ActMode
                                           	BANKSEL	_RT_ActMode
00037f   03ce     CLR	0xce                 	CLR	(_RT_ActMode + 1)
000380   c3aa     JMP	#0x3aa               	JMP	_00062_DS_
                                           _00036_DS_
000381   9808     MOV	R0, #0x8             	MOV	R0,# 0x08
                                           	BANKSEL	_RT_ActMode
000382   51cd     MOV	0xcd, R0             	MOV	_RT_ActMode, R0
                                           	BANKSEL	_RT_ActMode
000383   03ce     CLR	0xce                 	CLR	(_RT_ActMode + 1)
000384   c3aa     JMP	#0x3aa               	JMP	_00062_DS_
                                           _00046_DS_
                                           	BANKSEL	_RT_Status
000385   0e93     MOVZ	R0, 0x93            	MOVZ	R0, _RT_Status
000386   a801     XOR	R0, #0x1             	XOR	R0,# 0x01
000387   7a03     JB	0x3, 2                	JB	PSW, 2
000388   c3aa     JMP	#0x3aa               	JMP	_00062_DS_
000389   9800     MOV	R0, #0               	MOV	R0,# 0x00
                                           	BANKSEL	_RT_EN_Status
00038a   3092     ORL	R0, 0x92             	ORL	R0, _RT_EN_Status
00038b   7a03     JB	0x3, 2                	JB	PSW, 2
00038c   c3aa     JMP	#0x3aa               	JMP	_00062_DS_
00038d   9800     MOV	R0, #0               	MOV	R0,# 0x00
                                           	BANKSEL	_P1_bits
00038e   7007     JNB	0x7, 0               	JNB	_P1_bits, 0
00038f   9801     MOV	R0, #0x1             	MOV	R0,# 0x01
                                           	BANKSEL	r0x1035
000390   518c     MOV	0x8c, R0             	MOV	r0x1035, R0
                                           	BANKSEL	r0x1035
000391   0e8c     MOVZ	R0, 0x8c            	MOVZ	R0, r0x1035
000392   a801     XOR	R0, #0x1             	XOR	R0,# 0x01
000393   7a03     JB	0x3, 2                	JB	PSW, 2
000394   c3aa     JMP	#0x3aa               	JMP	_00062_DS_
                                           	BANKSEL	_RT_NowMode
000395   0ecf     MOVZ	R0, 0xcf            	MOVZ	R0, _RT_NowMode
                                           	BANKSEL	_RT_PastMode
000396   51d1     MOV	0xd1, R0             	MOV	_RT_PastMode, R0
                                           	BANKSEL	_RT_NowMode
000397   0ed0     MOVZ	R0, 0xd0            	MOVZ	R0, (_RT_NowMode + 1)
                                           	BANKSEL	_RT_PastMode
000398   51d2     MOV	0xd2, R0             	MOV	(_RT_PastMode + 1), R0
000399   9810     MOV	R0, #0x10            	MOV	R0,# 0x10
                                           	BANKSEL	_RT_NowMode
00039a   51cf     MOV	0xcf, R0             	MOV	_RT_NowMode, R0
                                           	BANKSEL	_RT_NowMode
00039b   03d0     CLR	0xd0                 	CLR	(_RT_NowMode + 1)
                                           	BANKSEL	_RT_PastMode
00039c   0ed1     MOVZ	R0, 0xd1            	MOVZ	R0, _RT_PastMode
00039d   a810     XOR	R0, #0x10            	XOR	R0,# 0x10
00039e   7a03     JB	0x3, 2                	JB	PSW, 2
00039f   c3a7     JMP	#0x3a7               	JMP	_00039_DS_
                                           	BANKSEL	_RT_PastMode
0003a0   0ed2     MOVZ	R0, 0xd2            	MOVZ	R0, (_RT_PastMode + 1)
0003a1   a800     XOR	R0, #0               	XOR	R0,# 0x00
0003a2   7a03     JB	0x3, 2                	JB	PSW, 2
0003a3   c3a7     JMP	#0x3a7               	JMP	_00039_DS_
                                           	BANKSEL	_RT_ActMode
0003a4   03cd     CLR	0xcd                 	CLR	_RT_ActMode
                                           	BANKSEL	_RT_ActMode
0003a5   03ce     CLR	0xce                 	CLR	(_RT_ActMode + 1)
0003a6   c3aa     JMP	#0x3aa               	JMP	_00062_DS_
                                           _00039_DS_
0003a7   9810     MOV	R0, #0x10            	MOV	R0,# 0x10
                                           	BANKSEL	_RT_ActMode
0003a8   51cd     MOV	0xcd, R0             	MOV	_RT_ActMode, R0
                                           	BANKSEL	_RT_ActMode
0003a9   03ce     CLR	0xce                 	CLR	(_RT_ActMode + 1)
                                           _00062_DS_
0003aa   9f09     MOV	R7, #0x9             	TRAPPC1	_RT_Mode_Act
0003ab   5f73     MOV	0x73, R7             	TRAPPC2	_RT_Mode_Act
0003ac   e009     MOVP	#0x09               	PAGESEL	_RT_Mode_Act
0003ad   d99f     CALL	#0x99f              	CALL	_RT_Mode_Act
0003ae   9f03     MOV	R7, #0x3             	TRAPPC1	$+2
0003af   5f73     MOV	0x73, R7             	TRAPPC2	$+1
0003b0   e003     MOVP	#0x03               	PAGESEL	$
0003b1   9f07     MOV	R7, #0x7             	TRAPPC1	_RT_Water_Act
0003b2   5f73     MOV	0x73, R7             	TRAPPC2	_RT_Water_Act
0003b3   e007     MOVP	#0x07               	PAGESEL	_RT_Water_Act
0003b4   d7a8     CALL	#0x7a8              	CALL	_RT_Water_Act
0003b5   9f03     MOV	R7, #0x3             	TRAPPC1	$+2
0003b6   5f73     MOV	0x73, R7             	TRAPPC2	$+1
0003b7   e003     MOVP	#0x03               	PAGESEL	$
0003b8   0008     CRET                     	CRET	
                                           func._delay_us	.code
                                           _delay_us	;Function start
                                           	BANKSEL	r0x1036
                                           	MOV	r0x1036, R0
                                           	BANKSEL	STK00
                                           	MOVZ	R0, STK00
                                           	BANKSEL	r0x1037
                                           	MOV	r0x1037, R0
                                           	BANKSEL	_delay_us_i_1_1
                                           	CLR	_delay_us_i_1_1
                                           	BANKSEL	_delay_us_i_1_1
                                           	CLR	(_delay_us_i_1_1 + 1)
                                           _00017_DS_
                                           	BANKSEL	r0x1036
                                           	MOVZ	R0, r0x1036
                                           	BANKSEL	_delay_us_i_1_1
                                           	SUB	R0, (_delay_us_i_1_1 + 1)
                                           	JB	PSW, 2
                                           	JMP	_00025_DS_
                                           	BANKSEL	r0x1037
                                           	MOVZ	R0, r0x1037
                                           	BANKSEL	_delay_us_i_1_1
                                           	SUB	R0, _delay_us_i_1_1
                                           _00025_DS_
                                           	JNB	PSW, 0
                                           	JMP	_00021_DS_
                                           	BANKSEL	_delay_us_i_1_1
                                           	INC	_delay_us_i_1_1
                                           	JB	PSW, 2
                                           	JMP	_00315_DS_
                                           	BANKSEL	_delay_us_i_1_1
                                           	INC	(_delay_us_i_1_1 + 1)
                                           _00315_DS_
                                           	JMP	_00017_DS_
                                           _00021_DS_
                                           	CRET	
                                           func._delay_ms	.code
                                           _delay_ms	;Function start
000e87   e100     MOVB	#0x00               	BANKSEL	r0x102A
000e88   5190     MOV	0x90, R0             	MOV	r0x102A, R0
                                           	BANKSEL	STK00
000e89   0efe     MOVZ	R0, 0xfe            	MOVZ	R0, STK00
                                           	BANKSEL	r0x102B
000e8a   5191     MOV	0x91, R0             	MOV	r0x102B, R0
                                           	BANKSEL	_delay_ms_i_1_1
000e8b   03db     CLR	0xdb                 	CLR	_delay_ms_i_1_1
                                           	BANKSEL	_delay_ms_i_1_1
000e8c   03dc     CLR	0xdc                 	CLR	(_delay_ms_i_1_1 + 1)
                                           _00006_DS_
                                           	BANKSEL	r0x102A
000e8d   0e90     MOVZ	R0, 0x90            	MOVZ	R0, r0x102A
                                           	BANKSEL	_delay_ms_i_1_1
000e8e   38dc     SUB	R0, 0xdc             	SUB	R0, (_delay_ms_i_1_1 + 1)
000e8f   7a03     JB	0x3, 2                	JB	PSW, 2
000e90   ce93     JMP	#0xe93               	JMP	_00016_DS_
                                           	BANKSEL	r0x102B
000e91   0e91     MOVZ	R0, 0x91            	MOVZ	R0, r0x102B
                                           	BANKSEL	_delay_ms_i_1_1
000e92   38db     SUB	R0, 0xdb             	SUB	R0, _delay_ms_i_1_1
                                           _00016_DS_
000e93   7003     JNB	0x3, 0               	JNB	PSW, 0
000e94   ceaa     JMP	#0xeaa               	JMP	_00010_DS_
000e95   98fa     MOV	R0, #0xfa            	MOV	R0,# 0xfa
                                           	BANKSEL	_delay_ms_j_1_1
000e96   51d9     MOV	0xd9, R0             	MOV	_delay_ms_j_1_1, R0
                                           	BANKSEL	_delay_ms_j_1_1
000e97   03da     CLR	0xda                 	CLR	(_delay_ms_j_1_1 + 1)
                                           _00003_DS_
                                           	BANKSEL	_delay_ms_j_1_1
000e98   0ed9     MOVZ	R0, 0xd9            	MOVZ	R0, _delay_ms_j_1_1
                                           	BANKSEL	r0x102C
000e99   518f     MOV	0x8f, R0             	MOV	r0x102C, R0
                                           	BANKSEL	_delay_ms_j_1_1
000e9a   0eda     MOVZ	R0, 0xda            	MOVZ	R0, (_delay_ms_j_1_1 + 1)
                                           	BANKSEL	r0x102D
000e9b   518e     MOV	0x8e, R0             	MOV	r0x102D, R0
000e9c   98ff     MOV	R0, #0xff            	MOV	R0,# 0xff
                                           	BANKSEL	_delay_ms_j_1_1
000e9d   21d9     ADD	0xd9, R0             	ADD	_delay_ms_j_1_1, R0
000e9e   7003     JNB	0x3, 0               	JNB	PSW, 0
000e9f   cea1     JMP	#0xea1               	JMP	_00316_DS_
                                           	BANKSEL	_delay_ms_j_1_1
000ea0   07da     DEC	0xda                 	DEC	(_delay_ms_j_1_1 + 1)
                                           _00316_DS_
                                           	BANKSEL	r0x102C
000ea1   0e8f     MOVZ	R0, 0x8f            	MOVZ	R0, r0x102C
                                           	BANKSEL	r0x102D
000ea2   308e     ORL	R0, 0x8e             	ORL	R0, r0x102D
000ea3   7a03     JB	0x3, 2                	JB	PSW, 2
000ea4   ce98     JMP	#0xe98               	JMP	_00003_DS_
                                           	BANKSEL	_delay_ms_i_1_1
000ea5   0bdb     INC	0xdb                 	INC	_delay_ms_i_1_1
000ea6   7a03     JB	0x3, 2                	JB	PSW, 2
000ea7   cea9     JMP	#0xea9               	JMP	_00317_DS_
                                           	BANKSEL	_delay_ms_i_1_1
000ea8   0bdc     INC	0xdc                 	INC	(_delay_ms_i_1_1 + 1)
                                           _00317_DS_
000ea9   ce8d     JMP	#0xe8d               	JMP	_00006_DS_
                                           _00010_DS_
000eaa   0008     CRET                     	CRET	
                                           func._Init_IO	.code
                                           _Init_IO	;Function start
000d67   98ff     MOV	R0, #0xff            	MOV	R0,# 0xff
000d68   e100     MOVB	#0x00               	BANKSEL	_TR0
000d69   5125     MOV	0x25, R0             	MOV	_TR0, R0
                                           	BANKSEL	_ANS0
000d6a   034a     CLR	0x4a                 	CLR	_ANS0
000d6b   9803     MOV	R0, #0x3             	MOV	R0,# 0x03
                                           	BANKSEL	_TR1
000d6c   5127     MOV	0x27, R0             	MOV	_TR1, R0
                                           	BANKSEL	_ANS1
000d6d   034b     CLR	0x4b                 	CLR	_ANS1
                                           	BANKSEL	_P1LR
000d6e   0347     CLR	0x47                 	CLR	_P1LR
000d6f   e102     MOVB	#0x02               	BANKSEL	_PUR1_bits
000d70   6841     SET	0x41, 0              	SET	_PUR1_bits, 0
000d71   e100     MOVB	#0x00               	BANKSEL	_TR2
000d72   0326     CLR	0x26                 	CLR	_TR2
                                           	BANKSEL	_ANS2
000d73   034c     CLR	0x4c                 	CLR	_ANS2
                                           	BANKSEL	_P2LR
000d74   0346     CLR	0x46                 	CLR	_P2LR
                                           	BANKSEL	_TR3
000d75   0328     CLR	0x28                 	CLR	_TR3
                                           	BANKSEL	_ANS3
000d76   034d     CLR	0x4d                 	CLR	_ANS3
                                           	BANKSEL	_P3LR
000d77   0348     CLR	0x48                 	CLR	_P3LR
000d78   9810     MOV	R0, #0x10            	MOV	R0,# 0x10
                                           	BANKSEL	_TR4
000d79   5129     MOV	0x29, R0             	MOV	_TR4, R0
                                           	BANKSEL	_ANS4
000d7a   034e     CLR	0x4e                 	CLR	_ANS4
                                           	BANKSEL	_P4LR
000d7b   0349     CLR	0x49                 	CLR	_P4LR
000d7c   9802     MOV	R0, #0x2             	MOV	R0,# 0x02
000d7d   e101     MOVB	#0x01               	BANKSEL	_TR5
000d7e   5125     MOV	0x25, R0             	MOV	_TR5, R0
                                           	BANKSEL	_ANS5
000d7f   034a     CLR	0x4a                 	CLR	_ANS5
                                           	BANKSEL	_P5LR
000d80   0345     CLR	0x45                 	CLR	_P5LR
000d81   e102     MOVB	#0x02               	BANKSEL	_PUR5_bits
000d82   6945     SET	0x45, 1              	SET	_PUR5_bits, 1
000d83   e101     MOVB	#0x01               	BANKSEL	_TR6
000d84   0326     CLR	0x26                 	CLR	_TR6
                                           	BANKSEL	_ANS6
000d85   034b     CLR	0x4b                 	CLR	_ANS6
                                           	BANKSEL	_P6LR
000d86   0346     CLR	0x46                 	CLR	_P6LR
000d87   9806     MOV	R0, #0x6             	MOV	R0,# 0x06
                                           	BANKSEL	_TR7
000d88   5127     MOV	0x27, R0             	MOV	_TR7, R0
                                           	BANKSEL	_ANS7
000d89   034c     CLR	0x4c                 	CLR	_ANS7
                                           	BANKSEL	_P7LR
000d8a   0347     CLR	0x47                 	CLR	_P7LR
000d8b   e102     MOVB	#0x02               	BANKSEL	_PUR7
000d8c   0347     CLR	0x47                 	CLR	_PUR7
000d8d   980e     MOV	R0, #0xe             	MOV	R0,# 0x0e
000d8e   e101     MOVB	#0x01               	BANKSEL	_TR9
000d8f   5129     MOV	0x29, R0             	MOV	_TR9, R0
                                           	BANKSEL	_ANS9
000d90   034e     CLR	0x4e                 	CLR	_ANS9
                                           	BANKSEL	_P9LR
000d91   0349     CLR	0x49                 	CLR	_P9LR
000d92   9801     MOV	R0, #0x1             	MOV	R0,# 0x01
000d93   e104     MOVB	#0x04               	BANKSEL	_TRA
000d94   5126     MOV	0x26, R0             	MOV	_TRA, R0
                                           	BANKSEL	_ANSA
000d95   0328     CLR	0x28                 	CLR	_ANSA
                                           	BANKSEL	_PALR
000d96   0325     CLR	0x25                 	CLR	_PALR
                                           	BANKSEL	_PURA
000d97   0327     CLR	0x27                 	CLR	_PURA
                                           	BANKSEL	_TRB
000d98   032b     CLR	0x2b                 	CLR	_TRB
                                           	BANKSEL	_ANSB
000d99   032d     CLR	0x2d                 	CLR	_ANSB
                                           	BANKSEL	_PBLR
000d9a   032a     CLR	0x2a                 	CLR	_PBLR
000d9b   0008     CRET                     	CRET	
                                           	.end
                                           	.radix dec
                                           	.include "KF8A100GQS.inc"
                                           	__config 0x8007, 0x6d4
                                           	.end
                                           	.radix dec
                                           	.include "KF8A100GQS.inc"
                                           	.type STK11, 108
                                           	.type STK10, 108
                                           	.type STK09, 108
                                           	.type STK08, 108
                                           	.type STK07, 108
                                           	.type STK06, 108
                                           	.type STK05, 108
                                           	.type STK04, 108
                                           	.type STK03, 108
                                           	.type STK02, 108
                                           	.type STK01, 108
                                           	.type STK00, 108
                                           sharebankTRAP .idata 0x73
                                           TRAPRx73
                                             .db 0x00
                                           TRAPRx74
                                             .db 0x00
                                           TRAPRx75
                                             .db 0x00
                                           TRAPRx76
                                             .db 0x00
                                           TRAPRx77
                                             .db 0x00
                                           ID_main_0	.idata
                                           _FistBootFlag
                                           	.db	0x01
                                           STARTUP	.code 0x0000
000000   0376     CLR	0x76                 	CLR 0x76
000001   0373     CLR	0x73                 	CLR 0x73
000002   e00f     MOVP	#0x0F               	PAGESEL	init_imp
000003   cf80     JMP	#0xf80               	JMP		init_imp
                                           INIT_IMP	.code
                                           init_imp
000f80   e00e     MOVP	#0x0E               	PAGESEL	_startup
000f81   de62     CALL	#0xe62              	CALL	_startup
000f82   e00f     MOVP	#0x0F               	PAGESEL	__gsinit_startup
000f83   df88     CALL	#0xf88              	CALL	__gsinit_startup
000f84   9f0a     MOV	R7, #0xa             	TRAPPC1	_main
000f85   5f73     MOV	0x73, R7             	TRAPPC2	_main
000f86   e00a     MOVP	#0x0A               	PAGESEL	_main
000f87   cae9     JMP	#0xae9               	JMP		_main
                                           interrupt_0x04	.code	0x4
000004   f8c2     MOV	R2, R0               	MOV		R2,R0
000005   5617     MOV	R3, 0x17             	MOV		R3,BANK
000006   5003     MOV	R0, 0x3              	MOV		R0,PSW
000007   e100     MOVB	#0x00               	BANKSEL	I0PSW
000008   51ed     MOV	0xed, R0             	MOV		I0PSW,R0
000009   53eb     MOV	0xeb, R1             	MOV		I0R1,R1
00000a   5fec     MOV	0xec, R7             	MOV		I0R7,R7
00000b   6a76     SET	0x76, 2              	SET		TRAPRx76,2
00000c   9f0a     MOV	R7, #0xa             	TRAPPC1	interrupt_service_routine_0x04
00000d   5f75     MOV	0x75, R7             	TRAPPC2	interrupt_service_routine_0x04
00000e   e00a     MOVP	#0x0A               	PAGESEL	interrupt_service_routine_0x04
00000f   ca9d     JMP	#0xa9d               	JMP		interrupt_service_routine_0x04
                                           func._int_fun0	.code
                                           _int_fun0	;Function start
                                           interrupt_service_routine_0x04
000a9d   e100     MOVB	#0x00               	BANKSEL	r0x1001
000a9e   0382     CLR	0x82                 	CLR	r0x1001
                                           	BANKSEL	_INTCTL_bits
000a9f   7a0b     JB	0xb, 2                	JB	_INTCTL_bits, 2
000aa0   caa2     JMP	#0xaa2               	JMP	_00023_DS_
                                           	BANKSEL	r0x1001
000aa1   0b82     INC	0x82                 	INC	r0x1001
                                           _00023_DS_
000aa2   9800     MOV	R0, #0               	MOV	R0,# 0x00
                                           	BANKSEL	_INTCTL_bits
000aa3   750b     JNB	0xb, 5               	JNB	_INTCTL_bits, 5
000aa4   9801     MOV	R0, #0x1             	MOV	R0,# 0x01
                                           	BANKSEL	r0x1002
000aa5   5181     MOV	0x81, R0             	MOV	r0x1002, R0
                                           	BANKSEL	r0x1002
000aa6   0e81     MOVZ	R0, 0x81            	MOVZ	R0, r0x1002
                                           	BANKSEL	r0x1001
000aa7   2982     AND	0x82, R0             	AND	r0x1001, R0
000aa8   9800     MOV	R0, #0               	MOV	R0,# 0x00
                                           	BANKSEL	r0x1001
000aa9   3082     ORL	R0, 0x82             	ORL	R0, r0x1001
000aaa   7203     JNB	0x3, 2               	JNB	PSW, 2
000aab   caaf     JMP	#0xaaf               	JMP	_00011_DS_
                                           	BANKSEL	_INTCTL_bits
000aac   620b     CLR	0xb, 2               	CLR	_INTCTL_bits, 2
000aad   9808     MOV	R0, #0x8             	MOV	R0,# 0x08
                                           	BANKSEL	_T0
000aae   5101     MOV	0x1, R0              	MOV	_T0, R0
                                           _00011_DS_
                                           	BANKSEL	r0x1001
000aaf   0382     CLR	0x82                 	CLR	r0x1001
                                           	BANKSEL	_EIF1_bits
000ab0   780c     JB	0xc, 0                	JB	_EIF1_bits, 0
000ab1   cab3     JMP	#0xab3               	JMP	_00024_DS_
                                           	BANKSEL	r0x1001
000ab2   0b82     INC	0x82                 	INC	r0x1001
                                           _00024_DS_
                                           	BANKSEL	r0x1003
000ab3   0380     CLR	0x80                 	CLR	r0x1003
                                           	BANKSEL	_EIE1_bits
000ab4   782c     JB	0x2c, 0               	JB	_EIE1_bits, 0
000ab5   cab7     JMP	#0xab7               	JMP	_00025_DS_
                                           	BANKSEL	r0x1003
000ab6   0b80     INC	0x80                 	INC	r0x1003
                                           _00025_DS_
                                           	BANKSEL	r0x1003
000ab7   0e80     MOVZ	R0, 0x80            	MOVZ	R0, r0x1003
                                           	BANKSEL	r0x1001
000ab8   2982     AND	0x82, R0             	AND	r0x1001, R0
000ab9   9800     MOV	R0, #0               	MOV	R0,# 0x00
                                           	BANKSEL	r0x1001
000aba   3082     ORL	R0, 0x82             	ORL	R0, r0x1001
000abb   7203     JNB	0x3, 2               	JNB	PSW, 2
000abc   cac5     JMP	#0xac5               	JMP	_00013_DS_
                                           	BANKSEL	_EIF1_bits
000abd   600c     CLR	0xc, 0               	CLR	_EIF1_bits, 0
000abe   9f0c     MOV	R7, #0xc             	TRAPPC1	_Timer_PWM_Callback
000abf   5f75     MOV	0x75, R7             	TRAPPC2	_Timer_PWM_Callback
000ac0   e00c     MOVP	#0x0C               	PAGESEL	_Timer_PWM_Callback
000ac1   dc43     CALL	#0xc43              	CALL	_Timer_PWM_Callback
000ac2   9f0a     MOV	R7, #0xa             	TRAPPC1	$+2
000ac3   5f75     MOV	0x75, R7             	TRAPPC2	$+1
000ac4   e00a     MOVP	#0x0A               	PAGESEL	$
                                           _00013_DS_
000ac5   e100     MOVB	#0x00               	BANKSEL	r0x1001
000ac6   0382     CLR	0x82                 	CLR	r0x1001
                                           	BANKSEL	_EIF1_bits
000ac7   790c     JB	0xc, 1                	JB	_EIF1_bits, 1
000ac8   caca     JMP	#0xaca               	JMP	_00026_DS_
                                           	BANKSEL	r0x1001
000ac9   0b82     INC	0x82                 	INC	r0x1001
                                           _00026_DS_
                                           	BANKSEL	r0x1003
000aca   0380     CLR	0x80                 	CLR	r0x1003
                                           	BANKSEL	_EIE1_bits
000acb   792c     JB	0x2c, 1               	JB	_EIE1_bits, 1
000acc   cace     JMP	#0xace               	JMP	_00027_DS_
                                           	BANKSEL	r0x1003
000acd   0b80     INC	0x80                 	INC	r0x1003
                                           _00027_DS_
                                           	BANKSEL	r0x1003
000ace   0e80     MOVZ	R0, 0x80            	MOVZ	R0, r0x1003
                                           	BANKSEL	r0x1001
000acf   2982     AND	0x82, R0             	AND	r0x1001, R0
000ad0   9800     MOV	R0, #0               	MOV	R0,# 0x00
                                           	BANKSEL	r0x1001
000ad1   3082     ORL	R0, 0x82             	ORL	R0, r0x1001
000ad2   7203     JNB	0x3, 2               	JNB	PSW, 2
000ad3   cadc     JMP	#0xadc               	JMP	_00016_DS_
                                           	BANKSEL	_EIF1_bits
000ad4   610c     CLR	0xc, 1               	CLR	_EIF1_bits, 1
000ad5   9f0e     MOV	R7, #0xe             	TRAPPC1	_RT_Timer_PWM_Callback
000ad6   5f75     MOV	0x75, R7             	TRAPPC2	_RT_Timer_PWM_Callback
000ad7   e00e     MOVP	#0x0E               	PAGESEL	_RT_Timer_PWM_Callback
000ad8   de01     CALL	#0xe01              	CALL	_RT_Timer_PWM_Callback
000ad9   9f0a     MOV	R7, #0xa             	TRAPPC1	$+2
000ada   5f75     MOV	0x75, R7             	TRAPPC2	$+1
000adb   e00a     MOVP	#0x0A               	PAGESEL	$
                                           _00016_DS_
000adc   e100     MOVB	#0x00               	BANKSEL	I0R1
000add   52eb     MOV	R1, 0xeb             	MOV	R1, I0R1
                                           	BANKSEL	I0R7
000ade   5eec     MOV	R7, 0xec             	MOV	R7, I0R7
                                           	BANKSEL	I0PSW
000adf   50ed     MOV	R0, 0xed             	MOV	R0, I0PSW
000ae0   5103     MOV	0x3, R0              	MOV	PSW, R0
000ae1   5073     MOV	R0, 0x73             	MOV	R0, TRAPRx73
000ae2   7176     JNB	0x76, 1              	JNB	TRAPRx76, 1
000ae3   5074     MOV	R0, 0x74             	MOV	R0, TRAPRx74
000ae4   6276     CLR	0x76, 2              	CLR	TRAPRx76, 2
000ae5   510a     MOV	0xa, R0              	MOV	PCH, R0
000ae6   5717     MOV	0x17, R3             	MOV	BANK, R3
000ae7   f8d0     MOV	R0, R2               	MOV	R0, R2
000ae8   0009     IRET                     	IRET	
                                           func._int_fun1	.code
                                           _int_fun1	;Function start
                                           interrupt_service_routine_0x14
                                           _00021_DS_
                                           	IRET	
                                           func._main	.code
                                           _main	;Function start
000ae9   9878     MOV	R0, #0x78            	MOV	R0,# 0x78
000aea   e100     MOVB	#0x00               	BANKSEL	_SCLKCTL
000aeb   5169     MOV	0x69, R0             	MOV	_SCLKCTL, R0
000aec   988e     MOV	R0, #0x8e            	MOV	R0,# 0x8e
                                           	BANKSEL	_HFCKCTL
000aed   516a     MOV	0x6a, R0             	MOV	_HFCKCTL, R0
000aee   9f0d     MOV	R7, #0xd             	TRAPPC1	_Init_IO
000aef   5f73     MOV	0x73, R7             	TRAPPC2	_Init_IO
000af0   e00d     MOVP	#0x0D               	PAGESEL	_Init_IO
000af1   dd67     CALL	#0xd67              	CALL	_Init_IO
000af2   9f0a     MOV	R7, #0xa             	TRAPPC1	$+2
000af3   5f73     MOV	0x73, R7             	TRAPPC2	$+1
000af4   e00a     MOVP	#0x0A               	PAGESEL	$
000af5   9f0e     MOV	R7, #0xe             	TRAPPC1	_IS31FL3265B_Init
000af6   5f73     MOV	0x73, R7             	TRAPPC2	_IS31FL3265B_Init
000af7   e00e     MOVP	#0x0E               	PAGESEL	_IS31FL3265B_Init
000af8   dec5     CALL	#0xec5              	CALL	_IS31FL3265B_Init
000af9   9f0a     MOV	R7, #0xa             	TRAPPC1	$+2
000afa   5f73     MOV	0x73, R7             	TRAPPC2	$+1
000afb   e00a     MOVP	#0x0A               	PAGESEL	$
000afc   9f0f     MOV	R7, #0xf             	TRAPPC1	_Timer0_Init
000afd   5f73     MOV	0x73, R7             	TRAPPC2	_Timer0_Init
000afe   e00f     MOVP	#0x0F               	PAGESEL	_Timer0_Init
000aff   df77     CALL	#0xf77              	CALL	_Timer0_Init
000b00   9f0b     MOV	R7, #0xb             	TRAPPC1	$+2
000b01   5f73     MOV	0x73, R7             	TRAPPC2	$+1
000b02   e00b     MOVP	#0x0B               	PAGESEL	$
000b03   9f0f     MOV	R7, #0xf             	TRAPPC1	_Timer1_Init
000b04   5f73     MOV	0x73, R7             	TRAPPC2	_Timer1_Init
000b05   e00f     MOVP	#0x0F               	PAGESEL	_Timer1_Init
000b06   df3a     CALL	#0xf3a              	CALL	_Timer1_Init
000b07   9f0b     MOV	R7, #0xb             	TRAPPC1	$+2
000b08   5f73     MOV	0x73, R7             	TRAPPC2	$+1
000b09   e00b     MOVP	#0x0B               	PAGESEL	$
000b0a   9f0f     MOV	R7, #0xf             	TRAPPC1	_Timer2_Init
000b0b   5f73     MOV	0x73, R7             	TRAPPC2	_Timer2_Init
000b0c   e00f     MOVP	#0x0F               	PAGESEL	_Timer2_Init
000b0d   df2b     CALL	#0xf2b              	CALL	_Timer2_Init
000b0e   9f0b     MOV	R7, #0xb             	TRAPPC1	$+2
000b0f   5f73     MOV	0x73, R7             	TRAPPC2	$+1
000b10   e00b     MOVP	#0x0B               	PAGESEL	$
000b11   e100     MOVB	#0x00               	BANKSEL	_INTCTL_bits
000b12   6e0b     SET	0xb, 6               	SET	_INTCTL_bits, 6
                                           	BANKSEL	_INTCTL_bits
000b13   6f0b     SET	0xb, 7               	SET	_INTCTL_bits, 7
000b14   9800     MOV	R0, #0               	MOV	R0,# 0x00
                                           	BANKSEL	_FistBootFlag
000b15   3083     ORL	R0, 0x83             	ORL	R0, _FistBootFlag
000b16   7203     JNB	0x3, 2               	JNB	PSW, 2
000b17   cb20     JMP	#0xb20               	JMP	_00004_DS_
                                           	BANKSEL	_FistBootFlag
000b18   0383     CLR	0x83                 	CLR	_FistBootFlag
000b19   9f09     MOV	R7, #0x9             	TRAPPC1	_Led_Hello_Check
000b1a   5f73     MOV	0x73, R7             	TRAPPC2	_Led_Hello_Check
000b1b   e009     MOVP	#0x09               	PAGESEL	_Led_Hello_Check
000b1c   d9f6     CALL	#0x9f6              	CALL	_Led_Hello_Check
000b1d   9f0b     MOV	R7, #0xb             	TRAPPC1	$+2
000b1e   5f73     MOV	0x73, R7             	TRAPPC2	$+1
000b1f   e00b     MOVP	#0x0B               	PAGESEL	$
                                           _00004_DS_
000b20   9f03     MOV	R7, #0x3             	TRAPPC1	_Tail_Stop_Check_Input
000b21   5f73     MOV	0x73, R7             	TRAPPC2	_Tail_Stop_Check_Input
000b22   e003     MOVP	#0x03               	PAGESEL	_Tail_Stop_Check_Input
000b23   d3b9     CALL	#0x3b9              	CALL	_Tail_Stop_Check_Input
000b24   9f0b     MOV	R7, #0xb             	TRAPPC1	$+2
000b25   5f73     MOV	0x73, R7             	TRAPPC2	$+1
000b26   e00b     MOVP	#0x0B               	PAGESEL	$
000b27   9f02     MOV	R7, #0x2             	TRAPPC1	_RT_Check_Input
000b28   5f73     MOV	0x73, R7             	TRAPPC2	_RT_Check_Input
000b29   e002     MOVP	#0x02               	PAGESEL	_RT_Check_Input
000b2a   d2ec     CALL	#0x2ec              	CALL	_RT_Check_Input
000b2b   9f0b     MOV	R7, #0xb             	TRAPPC1	$+2
000b2c   5f73     MOV	0x73, R7             	TRAPPC2	$+1
000b2d   e00b     MOVP	#0x0B               	PAGESEL	$
000b2e   cb20     JMP	#0xb20               	JMP	_00004_DS_
000b2f   0008     CRET                     	CRET	
                                           	.end
                                           .config
008007   06d4     DECR	0xd4               
008008   ffff     NOPZ                    
                                           func.__divsint
000d9c   f7f8     JB	R0, 7                
000d9d   cdb3     JMP	#0xdb3              
000d9e   e100     MOVB	#0x00              
000d9f   77fd     JNB	0xfd, 7             
000da0   cda2     JMP	#0xda2              
000da1   cdad     JMP	#0xdad              
000da2   05fd     CPL	0xfd                
000da3   05fc     CPL	0xfc                
000da4   0bfc     INC	0xfc                
000da5   7203     JNB	0x3, 2              
000da6   0bfd     INC	0xfd                
000da7   05fe     CPL	0xfe                
000da8   ff00     CPL	R0                  
000da9   0bfe     INC	0xfe                
000daa   7203     JNB	0x3, 2              
000dab   ff10     INC	R0                  
000dac   cdca     JMP	#0xdca              
000dad   05fe     CPL	0xfe                
000dae   ff00     CPL	R0                  
000daf   0bfe     INC	0xfe                
000db0   7203     JNB	0x3, 2              
000db1   ff10     INC	R0                  
000db2   cdbc     JMP	#0xdbc              
000db3   e100     MOVB	#0x00              
000db4   77fd     JNB	0xfd, 7             
000db5   cdb7     JMP	#0xdb7              
000db6   cdca     JMP	#0xdca              
000db7   05fd     CPL	0xfd                
000db8   05fc     CPL	0xfc                
000db9   0bfc     INC	0xfc                
000dba   7203     JNB	0x3, 2              
000dbb   0bfd     INC	0xfd                
000dbc   9f0d     MOV	R7, #0xd            
000dbd   5f73     MOV	0x73, R7            
000dbe   e00d     MOVP	#0x0D              
000dbf   dd2f     CALL	#0xd2f             
000dc0   9f0d     MOV	R7, #0xd            
000dc1   5f73     MOV	0x73, R7            
000dc2   e00d     MOVP	#0x0D              
000dc3   e100     MOVB	#0x00              
000dc4   05fe     CPL	0xfe                
000dc5   ff00     CPL	R0                  
000dc6   0bfe     INC	0xfe                
000dc7   7203     JNB	0x3, 2              
000dc8   ff10     INC	R0                  
000dc9   cdce     JMP	#0xdce              
000dca   9f0d     MOV	R7, #0xd            
000dcb   5f73     MOV	0x73, R7            
000dcc   e00d     MOVP	#0x0D              
000dcd   dd2f     CALL	#0xd2f             
000dce   0008     CRET                    
                                           func.__hmulchar
000f1b   e102     MOVB	#0x02              
000f1c   034f     CLR	0x4f                
000f1d   0350     CLR	0x50                
000f1e   0349     CLR	0x49                
000f1f   5148     MOV	0x48, R0            
000f20   e100     MOVB	#0x00              
000f21   50fe     MOV	R0, 0xfe            
000f22   e102     MOVB	#0x02              
000f23   514e     MOV	0x4e, R0            
000f24   694f     SET	0x4f, 1             
000f25   784f     JB	0x4f, 0              
000f26   cf25     JMP	#0xf25              
000f27   034f     CLR	0x4f                
000f28   504d     MOV	R0, 0x4d            
000f29   0008     CRET                    
000f2a   0008     CRET                    
                                           func.__gsinit_startup
000f88   9f0c     MOV	R7, #0xc            
000f89   5f73     MOV	0x73, R7            
000f8a   e00c     MOVP	#0x0C              
000f8b   dc02     CALL	#0xc02             
000f8c   9f0f     MOV	R7, #0xf            
000f8d   5f73     MOV	0x73, R7            
000f8e   e00f     MOVP	#0x0F              
000f8f   0008     CRET                    
                                           func.__divuint
000d2f   e100     MOVB	#0x00              
000d30   52fd     MOV	R1, 0xfd            
000d31   32fc     ORL	R1, 0xfc            
000d32   7203     JNB	0x3, 2              
000d33   cd66     JMP	#0xd66              
000d34   03fb     CLR	0xfb                
000d35   03fa     CLR	0xfa                
000d36   03f9     CLR	0xf9                
000d37   03f8     CLR	0xf8                
000d38   68f8     SET	0xf8, 0             
000d39   77fd     JNB	0xfd, 7             
000d3a   cd42     JMP	#0xd42              
000d3b   6003     CLR	0x3, 0              
000d3c   13fc     RLC	0xfc                
000d3d   13fd     RLC	0xfd                
000d3e   6003     CLR	0x3, 0              
000d3f   13f8     RLC	0xf8                
000d40   13f9     RLC	0xf9                
000d41   cd39     JMP	#0xd39              
000d42   52f9     MOV	R1, 0xf9            
000d43   32f8     ORL	R1, 0xf8            
000d44   7203     JNB	0x3, 2              
000d45   cd63     JMP	#0xd63              
000d46   52fd     MOV	R1, 0xfd            
000d47   f841     SUB	R1, R0              
000d48   7a03     JB	0x3, 2               
000d49   cd4c     JMP	#0xd4c              
000d4a   52fc     MOV	R1, 0xfc            
000d4b   3afe     SUB	R1, 0xfe            
000d4c   7803     JB	0x3, 0               
000d4d   cd5c     JMP	#0xd5c              
000d4e   52f8     MOV	R1, 0xf8            
000d4f   23fa     ADD	0xfa, R1            
000d50   52f9     MOV	R1, 0xf9            
000d51   7003     JNB	0x3, 0              
000d52   ff11     INC	R1                  
000d53   23fb     ADD	0xfb, R1            
000d54   52fc     MOV	R1, 0xfc            
000d55   3afe     SUB	R1, 0xfe            
000d56   53fe     MOV	0xfe, R1            
000d57   7803     JB	0x3, 0               
000d58   ff08     DEC	R0                  
000d59   52fd     MOV	R1, 0xfd            
000d5a   f841     SUB	R1, R0              
000d5b   f8c8     MOV	R0, R1              
000d5c   6003     CLR	0x3, 0              
000d5d   11fd     RRC	0xfd                
000d5e   11fc     RRC	0xfc                
000d5f   6003     CLR	0x3, 0              
000d60   11f9     RRC	0xf9                
000d61   11f8     RRC	0xf8                
000d62   cd42     JMP	#0xd42              
000d63   50fa     MOV	R0, 0xfa            
000d64   51fe     MOV	0xfe, R0            
000d65   50fb     MOV	R0, 0xfb            
000d66   0008     CRET                    
                                           _sartup_A100GQS
000e62   e100     MOVB	#0x00              
000e63   6f53     SET	0x53, 7             
000e64   6853     SET	0x53, 0             
000e65   e070     MOVP	#0x70              
000e66   dffb     CALL	#0xffb             
000e67   e103     MOVB	#0x03              
000e68   5161     MOV	0x61, R0            
000e69   ffff     NOPZ                    
000e6a   ffff     NOPZ                    
000e6b   dff8     CALL	#0xff8             
000e6c   5165     MOV	0x65, R0            
000e6d   ffff     NOPZ                    
000e6e   ffff     NOPZ                    
000e6f   e100     MOVB	#0x00              
000e70   6753     CLR	0x53, 7             
000e71   dffe     CALL	#0xffe             
000e72   e100     MOVB	#0x00              
000e73   5137     MOV	0x37, R0            
000e74   ffff     NOPZ                    
000e75   ffff     NOPZ                    
000e76   dffd     CALL	#0xffd             
000e77   5130     MOV	0x30, R0            
000e78   ffff     NOPZ                    
000e79   ffff     NOPZ                    
000e7a   dffc     CALL	#0xffc             
000e7b   e101     MOVB	#0x01              
000e7c   5132     MOV	0x32, R0            
000e7d   ffff     NOPZ                    
000e7e   ffff     NOPZ                    
000e7f   dffa     CALL	#0xffa             
000e80   e102     MOVB	#0x02              
000e81   513b     MOV	0x3b, R0            
000e82   ffff     NOPZ                    
000e83   dff9     CALL	#0xff9             
000e84   513c     MOV	0x3c, R0            
000e85   ffff     NOPZ                    
000e86   0008     CRET                    
                                           .cinit
000c02   e100     MOVB	#0x00              
000c03   9880     MOV	R0, #0x80           
000c04   9903     MOV	R1, #0x3            
000c05   e00c     MOVP	#0x0C              
000c06   dc3d     CALL	#0xc3d             
000c07   9886     MOV	R0, #0x86           
000c08   9943     MOV	R1, #0x43           
000c09   e00c     MOVP	#0x0C              
000c0a   dc3d     CALL	#0xc3d             
000c0b   98d9     MOV	R0, #0xd9           
000c0c   990e     MOV	R1, #0xe            
000c0d   e00c     MOVP	#0x0C              
000c0e   dc3d     CALL	#0xc3d             
000c0f   98eb     MOV	R0, #0xeb           
000c10   9914     MOV	R1, #0x14           
000c11   e00c     MOVP	#0x0C              
000c12   dc3d     CALL	#0xc3d             
000c13   9800     MOV	R0, #0              
000c14   5173     MOV	0x73, R0            
000c15   5174     MOV	0x74, R0            
000c16   5175     MOV	0x75, R0            
000c17   5176     MOV	0x76, R0            
000c18   5177     MOV	0x77, R0            
000c19   9801     MOV	R0, #0x1            
000c1a   5183     MOV	0x83, R0            
000c1b   9800     MOV	R0, #0              
000c1c   5184     MOV	0x84, R0            
000c1d   9800     MOV	R0, #0              
000c1e   5185     MOV	0x85, R0            
000c1f   9800     MOV	R0, #0              
000c20   51c9     MOV	0xc9, R0            
000c21   51ca     MOV	0xca, R0            
000c22   9800     MOV	R0, #0              
000c23   51cb     MOV	0xcb, R0            
000c24   51cc     MOV	0xcc, R0            
000c25   9800     MOV	R0, #0              
000c26   51cd     MOV	0xcd, R0            
000c27   51ce     MOV	0xce, R0            
000c28   9800     MOV	R0, #0              
000c29   51cf     MOV	0xcf, R0            
000c2a   51d0     MOV	0xd0, R0            
000c2b   9800     MOV	R0, #0              
000c2c   51d1     MOV	0xd1, R0            
000c2d   51d2     MOV	0xd2, R0            
000c2e   9800     MOV	R0, #0              
000c2f   51d3     MOV	0xd3, R0            
000c30   51d4     MOV	0xd4, R0            
000c31   9800     MOV	R0, #0              
000c32   51d5     MOV	0xd5, R0            
000c33   51d6     MOV	0xd6, R0            
000c34   9800     MOV	R0, #0              
000c35   51d7     MOV	0xd7, R0            
000c36   51d8     MOV	0xd8, R0            
000c37   9800     MOV	R0, #0              
000c38   51e7     MOV	0xe7, R0            
000c39   51e8     MOV	0xe8, R0            
000c3a   51e9     MOV	0xe9, R0            
000c3b   51ea     MOV	0xea, R0            
000c3c   0008     CRET                    
000c3d   020a     CLR	R2                  
000c3e   f750     ST	[R0], R2             
000c3f   ff10     INC	R0                  
000c40   ff59     DECJZ	R1                
000c41   cc3e     JMP	#0xc3e              
000c42   0008     CRET                    
